

Microchip MPLAB XC8 Assembler V2.45 build 20230818022343 
                                                                                               Sun Feb 11 20:41:06 2024

Microchip MPLAB XC8 C Compiler v2.45 (Free license) build 20230818022343 Og1 
     1                           	processor	18F4620
     2                           	fnconf	rparam,??,?,0
     3                           	pagewidth 120
     4                           	opt	flic
     5                           	psect	idataCOMRAM,global,class=CODE,delta=1,noexec
     6                           	psect	smallconst,global,reloc=2,class=SMALLCONST,delta=1,noexec
     7                           	psect	cinit,global,reloc=2,class=CODE,delta=1
     8                           	psect	bssCOMRAM,global,class=COMRAM,space=1,delta=1,lowdata,noexec
     9                           	psect	dataCOMRAM,global,class=COMRAM,space=1,delta=1,lowdata,noexec
    10                           	psect	cstackBANK0,global,class=BANK0,space=1,delta=1,lowdata,noexec
    11                           	psect	cstackCOMRAM,global,class=COMRAM,space=1,delta=1,lowdata,noexec
    12                           	psect	text0,global,reloc=2,class=CODE,delta=1
    13                           	psect	text1,global,reloc=2,class=CODE,delta=1
    14                           	psect	text2,global,reloc=2,class=CODE,delta=1
    15                           	psect	text3,global,reloc=2,class=CODE,delta=1
    16                           	psect	text4,global,reloc=2,class=CODE,delta=1
    17                           	psect	text5,global,reloc=2,class=CODE,delta=1
    18                           	psect	text6,global,reloc=2,class=CODE,delta=1
    19                           	psect	text7,global,reloc=2,class=CODE,delta=1
    20                           	psect	text8,global,reloc=2,class=CODE,delta=1
    21                           	psect	text9,global,reloc=2,class=CODE,delta=1
    22                           	psect	text10,global,reloc=2,class=CODE,delta=1
    23                           	psect	text11,global,reloc=2,class=CODE,delta=1
    24                           	psect	text12,global,reloc=2,class=CODE,delta=1
    25                           	psect	text13,global,reloc=2,class=CODE,delta=1
    26                           	psect	text14,global,reloc=2,class=CODE,delta=1
    27                           	psect	text15,global,reloc=2,class=CODE,delta=1
    28                           	psect	text16,global,reloc=2,class=CODE,delta=1
    29                           	psect	text17,global,reloc=2,class=CODE,delta=1
    30                           	psect	text18,global,reloc=2,class=CODE,delta=1
    31                           	psect	intcodelo,global,reloc=2,class=CODE,delta=1
    32                           	psect	text20,global,reloc=2,class=CODE,delta=1
    33                           	psect	text21,global,reloc=2,class=CODE,delta=1
    34                           	psect	text22,global,reloc=2,class=CODE,delta=1
    35                           	psect	text23,global,reloc=2,class=CODE,delta=1
    36                           	psect	intcode,global,reloc=2,class=CODE,delta=1
    37                           	psect	intcode_body,global,reloc=2,class=CODE,delta=1
    38                           	psect	text25,global,reloc=2,class=CODE,delta=1
    39                           	psect	text26,global,reloc=2,class=CODE,delta=1
    40                           	psect	text27,global,reloc=2,class=CODE,delta=1
    41                           	psect	text28,global,reloc=2,class=CODE,delta=1
    42                           	psect	text29,global,reloc=2,class=CODE,delta=1
    43                           	psect	intsave_regs,global,class=BIGRAM,space=1,delta=1,noexec
    44                           	psect	text30,global,reloc=2,class=CODE,delta=1
    45                           	psect	rparam,global,class=COMRAM,space=1,delta=1,noexec
    46                           	psect	temp,global,ovrld,common,class=COMRAM,space=1,delta=1
    47                           	psect	config,global,abs,ovrld,class=CONFIG,space=4,delta=1,noexec
    48   000000                     
    49                           ; Generated 23/03/2023 GMT
    50                           ; 
    51                           ; Copyright © 2023, Microchip Technology Inc. and its subsidiaries ("Microchip")
    52                           ; All rights reserved.
    53                           ; 
    54                           ; This software is developed by Microchip Technology Inc. and its subsidiaries ("Microch
      +                          ip").
    55                           ; 
    56                           ; Redistribution and use in source and binary forms, with or without modification, are
    57                           ; permitted provided that the following conditions are met:
    58                           ; 
    59                           ;     1. Redistributions of source code must retain the above copyright notice, this lis
      +                          t of
    60                           ;        conditions and the following disclaimer.
    61                           ; 
    62                           ;     2. Redistributions in binary form must reproduce the above copyright notice, this 
      +                          list
    63                           ;        of conditions and the following disclaimer in the documentation and/or other
    64                           ;        materials provided with the distribution. Publication is not required when
    65                           ;        this file is used in an embedded application.
    66                           ; 
    67                           ;     3. Microchip's name may not be used to endorse or promote products derived from th
      +                          is
    68                           ;        software without specific prior written permission.
    69                           ; 
    70                           ; THIS SOFTWARE IS PROVIDED BY MICROCHIP "AS IS" AND ANY EXPRESS OR IMPLIED WARRANTIES,
    71                           ; INCLUDING, BUT NOT LIMITED TO, THE IMPLIED WARRANTIES OF MERCHANTABILITY AND FITNESS F
      +                          OR
    72                           ; PURPOSE ARE DISCLAIMED.  IN NO EVENT SHALL MICROCHIP BE LIABLE FOR ANY DIRECT, INDIREC
      +                          T,
    73                           ; INCIDENTAL, SPECIAL, EXEMPLARY, OR CONSEQUENTIAL DAMAGES (INCLUDING BUT NOT LIMITED TO
    74                           ; PROCUREMENT OF SUBSTITUTE GOODS OR SERVICES; LOSS OF USE, DATA OR PROFITS; OR BUSINESS
    75                           ; INTERRUPTION) HOWSOEVER CAUSED AND ON ANY THEORY OF LIABILITY, WHETHER IN CONTRACT, ST
      +                          RICT
    76                           ; LIABILITY, OR TORT (INCLUDING NEGLIGENCE OR OTHERWISE) ARISING IN ANY WAY OUT OF THE U
      +                          SE OF
    77                           ; THIS SOFTWARE, EVEN IF ADVISED OF THE POSSIBILITY OF SUCH DAMAGE.
    78                           ; 
    79                           ; 
    80                           ; Code-generator required, PIC18F4620 Definitions
    81                           ; 
    82                           ; SFR Addresses
    83   000000                     
    84                           	psect	idataCOMRAM
    85   001AA0                     __pidataCOMRAM:
    86                           	callstack 0
    87                           
    88                           ;initializer for _port_registers
    89   001AA0  80                 	db	128
    90   001AA1  0F                 	db	15
    91   001AA2  81                 	db	129
    92   001AA3  0F                 	db	15
    93   001AA4  82                 	db	130
    94   001AA5  0F                 	db	15
    95   001AA6  83                 	db	131
    96   001AA7  0F                 	db	15
    97   001AA8  84                 	db	132
    98   001AA9  0F                 	db	15
    99                           
   100                           ;initializer for _lat_registers
   101   001AAA  89                 	db	137
   102   001AAB  0F                 	db	15
   103   001AAC  8A                 	db	138
   104   001AAD  0F                 	db	15
   105   001AAE  8B                 	db	139
   106   001AAF  0F                 	db	15
   107   001AB0  8C                 	db	140
   108   001AB1  0F                 	db	15
   109   001AB2  8D                 	db	141
   110   001AB3  0F                 	db	15
   111                           
   112                           ;initializer for _tris_registers
   113   001AB4  92                 	db	146
   114   001AB5  0F                 	db	15
   115   001AB6  93                 	db	147
   116   001AB7  0F                 	db	15
   117   001AB8  94                 	db	148
   118   001AB9  0F                 	db	15
   119   001ABA  95                 	db	149
   120   001ABB  0F                 	db	15
   121   001ABC  96                 	db	150
   122   001ABD  0F                 	db	15
   123                           
   124                           ;initializer for _ret
   125   001ABE  01                 	db	1
   126                           
   127                           ;initializer for _RB7_f
   128   001ABF  01                 	db	1
   129                           
   130                           ;initializer for _RB6_f
   131   001AC0  01                 	db	1
   132                           
   133                           ;initializer for _RB5_f
   134   001AC1  01                 	db	1
   135                           
   136                           ;initializer for _RB4_f
   137   001AC2  01                 	db	1
   138                           
   139                           ;initializer for _clock
   140   001AC3  26                 	db	low _timer_increment
   141   001AC4  1C                 	db	high _timer_increment
   142   001AC5  00                 	db	0
   143   001AC6  00                 	db	0
   144   001AC7  01                 	db	1
   145   001AC8  41                 	db	65
   146                           
   147                           ;initializer for _segment
   148   001AC9  02                 	db	2
   149   001ACA  0A                 	db	10
   150   001ACB  12                 	db	18
   151   001ACC  1A                 	db	26
   152   001ACD  01                 	db	1
   153                           
   154                           ;initializer for _led
   155   001ACE  22                 	db	34
   156                           
   157                           	psect	smallconst
   158   001000                     __psmallconst:
   159                           	callstack 0
   160   001000  00                 	db	0
   161   001001                     _btn_values:
   162                           	callstack 0
   163   001001  37                 	db	55
   164   001002  38                 	db	56
   165   001003  39                 	db	57
   166   001004  2F                 	db	47
   167   001005  34                 	db	52
   168   001006  35                 	db	53
   169   001007  36                 	db	54
   170   001008  2A                 	db	42
   171   001009  31                 	db	49
   172   00100A  32                 	db	50
   173   00100B  33                 	db	51
   174   00100C  2D                 	db	45
   175   00100D  23                 	db	35
   176   00100E  30                 	db	48
   177   00100F  3D                 	db	61
   178   001010  2B                 	db	43
   179   001011                     __end_of_btn_values:
   180                           	callstack 0
   181   000000                     _EECON2	set	4007
   182   000000                     _PORTE	set	3972
   183   000000                     _PORTD	set	3971
   184   000000                     _PORTC	set	3970
   185   000000                     _PORTB	set	3969
   186   000000                     _PORTA	set	3968
   187   000000                     _LATA	set	3977
   188   000000                     _TRISA	set	3986
   189   000000                     _EECON1bits	set	4006
   190   000000                     _EEDATA	set	4008
   191   000000                     _EEADR	set	4009
   192   000000                     _EEADRH	set	4010
   193   000000                     _RCONbits	set	4048
   194   000000                     _INTCONbits	set	4082
   195   000000                     _TRISE	set	3990
   196   000000                     _TRISD	set	3989
   197   000000                     _TRISC	set	3988
   198   000000                     _TRISB	set	3987
   199   000000                     _LATE	set	3981
   200   000000                     _LATD	set	3980
   201   000000                     _LATC	set	3979
   202   000000                     _LATB	set	3978
   203   000000                     _INTCON3bits	set	4080
   204   000000                     _INTCON2bits	set	4081
   205   001011                     STR_1:
   206   001011  25                 	db	37
   207   001012  69                 	db	105	;'i'
   208   001013  00                 	db	0
   209   001014  00                 	db	0	; dummy byte at the end
   210   000000                     
   211                           ; #config settings
   212                           
   213                           	psect	cinit
   214   001A6A                     __pcinit:
   215                           	callstack 0
   216   001A6A                     start_initialization:
   217                           	callstack 0
   218   001A6A                     __initialization:
   219                           	callstack 0
   220                           
   221                           ; Initialize objects allocated to COMRAM (47 bytes)
   222                           ; load TBLPTR registers with __pidataCOMRAM
   223   001A6A  0EA0               	movlw	low __pidataCOMRAM
   224   001A6C  6EF6               	movwf	tblptrl,c
   225   001A6E  0E1A               	movlw	high __pidataCOMRAM
   226   001A70  6EF7               	movwf	tblptrh,c
   227   001A72  0E00               	movlw	low (__pidataCOMRAM shr (0+16))
   228   001A74  6EF8               	movwf	tblptru,c
   229   001A76  EE00  F001         	lfsr	0,__pdataCOMRAM
   230   001A7A  EE10 F02F          	lfsr	1,47
   231   001A7E                     copy_data0:
   232   001A7E  0009               	tblrd		*+
   233   001A80  CFF5 FFEE          	movff	tablat,postinc0
   234   001A84  50E5               	movf	postdec1,w,c
   235   001A86  50E1               	movf	fsr1l,w,c
   236   001A88  E1FA               	bnz	copy_data0
   237                           
   238                           ; Clear objects allocated to COMRAM (30 bytes)
   239   001A8A  EE00  F051         	lfsr	0,__pbssCOMRAM
   240   001A8E  0E1E               	movlw	30
   241   001A90                     clear_0:
   242   001A90  6AEE               	clrf	postinc0,c
   243   001A92  06E8               	decf	wreg,f,c
   244   001A94  E1FD               	bnz	clear_0
   245   001A96                     end_of_initialization:
   246                           	callstack 0
   247   001A96                     __end_of__initialization:
   248                           	callstack 0
   249   001A96  906F               	bcf	int$flags,0,c	;clear compiler interrupt flag (level 1)
   250   001A98  926F               	bcf	int$flags,1,c	;clear compiler interrupt flag (level 2)
   251   001A9A  0100               	movlb	0
   252   001A9C  EF05  F00E         	goto	_main	;jump to C main() function
   253                           
   254                           	psect	bssCOMRAM
   255   000051                     __pbssCOMRAM:
   256                           	callstack 0
   257   000051                     _RB7_Interrupt_Handler_Low:
   258                           	callstack 0
   259   000051                     	ds	2
   260   000053                     _RB7_Interrupt_Handler_High:
   261                           	callstack 0
   262   000053                     	ds	2
   263   000055                     _RB6_Interrupt_Handler_Low:
   264                           	callstack 0
   265   000055                     	ds	2
   266   000057                     _RB6_Interrupt_Handler_High:
   267                           	callstack 0
   268   000057                     	ds	2
   269   000059                     _RB5_Interrupt_Handler_Low:
   270                           	callstack 0
   271   000059                     	ds	2
   272   00005B                     _RB5_Interrupt_Handler_High:
   273                           	callstack 0
   274   00005B                     	ds	2
   275   00005D                     _RB4_Interrupt_Handler_Low:
   276                           	callstack 0
   277   00005D                     	ds	2
   278   00005F                     _RB4_Interrupt_Handler_High:
   279                           	callstack 0
   280   00005F                     	ds	2
   281   000061                     _INT2_Interrupt_Handler:
   282                           	callstack 0
   283   000061                     	ds	2
   284   000063                     _INT1_Interrupt_Handler:
   285                           	callstack 0
   286   000063                     	ds	2
   287   000065                     _INT0_Interrupt_Handler:
   288                           	callstack 0
   289   000065                     	ds	2
   290   000067                     _timer:
   291                           	callstack 0
   292   000067                     	ds	1
   293   000068                     Relay_off@F3490:
   294                           	callstack 0
   295   000068                     	ds	1
   296   000069                     Relay_on@F3485:
   297                           	callstack 0
   298   000069                     	ds	1
   299   00006A                     Relay_initialize@F3480:
   300                           	callstack 0
   301   00006A                     	ds	1
   302   00006B                     led_toggle_status@F3497:
   303                           	callstack 0
   304   00006B                     	ds	1
   305   00006C                     led_turn_off@F3492:
   306                           	callstack 0
   307   00006C                     	ds	1
   308   00006D                     led_turn_on@F3487:
   309                           	callstack 0
   310   00006D                     	ds	1
   311   00006E                     led_intialize@F3482:
   312                           	callstack 0
   313   00006E                     	ds	1
   314                           
   315                           	psect	dataCOMRAM
   316   000001                     __pdataCOMRAM:
   317                           	callstack 0
   318   000001                     _port_registers:
   319                           	callstack 0
   320   000001                     	ds	10
   321   00000B                     _lat_registers:
   322                           	callstack 0
   323   00000B                     	ds	10
   324   000015                     _tris_registers:
   325                           	callstack 0
   326   000015                     	ds	10
   327   00001F                     _ret:
   328                           	callstack 0
   329   00001F                     	ds	1
   330   000020                     _RB7_f:
   331                           	callstack 0
   332   000020                     	ds	1
   333   000021                     _RB6_f:
   334                           	callstack 0
   335   000021                     	ds	1
   336   000022                     _RB5_f:
   337                           	callstack 0
   338   000022                     	ds	1
   339   000023                     _RB4_f:
   340                           	callstack 0
   341   000023                     	ds	1
   342   000024                     _clock:
   343                           	callstack 0
   344   000024                     	ds	6
   345   00002A                     _segment:
   346                           	callstack 0
   347   00002A                     	ds	5
   348   00002F                     _led:
   349                           	callstack 0
   350   00002F                     	ds	1
   351                           
   352                           	psect	cstackBANK0
   353   000080                     __pcstackBANK0:
   354                           	callstack 0
   355   000080                     gpio_pin_direction_intialize@_pin_config:
   356                           	callstack 0
   357   000080                     gpio_pin_write_logic@_pin_config:
   358                           	callstack 0
   359   000080                     Interrupt_INTx_Enable@obj:
   360                           	callstack 0
   361   000080                     Interrupt_INTx_Disable@obj:
   362                           	callstack 0
   363   000080                     Interrupt_INTx_Priority_Init@obj:
   364                           	callstack 0
   365   000080                     Interrupt_INTx_Edge_Init@obj:
   366                           	callstack 0
   367   000080                     INT0_Set_Interrupt_Handler@Interrupt_Handler:
   368                           	callstack 0
   369   000080                     INT1_Set_Interrupt_Handler@Interrupt_Handler:
   370                           	callstack 0
   371   000080                     INT2_Set_Interrupt_Handler@Interrupt_Handler:
   372                           	callstack 0
   373                           
   374                           ; 2 bytes @ 0x0
   375   000080                     	ds	1
   376   000081                     ??_Interrupt_INTx_Disable:
   377   000081                     ??_Interrupt_INTx_Edge_Init:
   378   000081                     ??_Interrupt_INTx_Priority_Init:
   379   000081                     ??_Interrupt_INTx_Enable:
   380   000081                     ??_gpio_pin_direction_intialize:
   381   000081                     gpio_pin_write_logic@logic_:
   382                           	callstack 0
   383                           
   384                           ; 1 bytes @ 0x1
   385   000081                     	ds	1
   386   000082                     ??_gpio_pin_write_logic:
   387   000082                     INT0_Set_Interrupt_Handler@ret:
   388                           	callstack 0
   389   000082                     INT1_Set_Interrupt_Handler@ret:
   390                           	callstack 0
   391   000082                     INT2_Set_Interrupt_Handler@ret:
   392                           	callstack 0
   393                           
   394                           ; 1 bytes @ 0x2
   395   000082                     	ds	1
   396   000083                     Interrupt_INTx_Enable@ret:
   397                           	callstack 0
   398   000083                     Interrupt_INTx_Disable@ret:
   399                           	callstack 0
   400   000083                     Interrupt_INTx_Priority_Init@ret:
   401                           	callstack 0
   402   000083                     Interrupt_INTx_Edge_Init@ret:
   403                           	callstack 0
   404   000083                     Interrupt_Set_Interrupt_Handler@obj:
   405                           	callstack 0
   406                           
   407                           ; 1 bytes @ 0x3
   408   000083                     	ds	1
   409   000084                     ??_Interrupt_Set_Interrupt_Handler:
   410                           
   411                           ; 1 bytes @ 0x4
   412   000084                     	ds	2
   413   000086                     gpio_pin_direction_intialize@ret:
   414                           	callstack 0
   415   000086                     Interrupt_Set_Interrupt_Handler@ret:
   416                           	callstack 0
   417                           
   418                           ; 1 bytes @ 0x6
   419   000086                     	ds	1
   420   000087                     gpio_pin_write_logic@ret:
   421                           	callstack 0
   422                           
   423                           ; 1 bytes @ 0x7
   424   000087                     	ds	1
   425   000088                     Seven_Segm_Display_Number@_Seven_Seg:
   426                           	callstack 0
   427   000088                     gpio_pin_initialize@_pin_config:
   428                           	callstack 0
   429                           
   430                           ; 1 bytes @ 0x8
   431   000088                     	ds	1
   432   000089                     ??_gpio_pin_initialize:
   433   000089                     Seven_Segm_Display_Number@number:
   434                           	callstack 0
   435                           
   436                           ; 1 bytes @ 0x9
   437   000089                     	ds	1
   438   00008A                     Seven_Segm_Display_Number@ret:
   439                           	callstack 0
   440   00008A                     gpio_pin_initialize@ret:
   441                           	callstack 0
   442                           
   443                           ; 1 bytes @ 0xA
   444   00008A                     	ds	1
   445   00008B                     led_intialize@Led:
   446                           	callstack 0
   447   00008B                     Seven_Segm_initailize@_Seven_Seg:
   448                           	callstack 0
   449   00008B                     Interrupt_INTx_Pin_Init@obj:
   450                           	callstack 0
   451                           
   452                           ; 1 bytes @ 0xB
   453   00008B                     	ds	1
   454   00008C                     ??_led_intialize:
   455   00008C                     Seven_Segm_initailize@ret:
   456                           	callstack 0
   457   00008C                     Interrupt_INTx_Pin_Init@ret:
   458                           	callstack 0
   459                           
   460                           ; 1 bytes @ 0xC
   461   00008C                     	ds	1
   462   00008D                     led_intialize@ret:
   463                           	callstack 0
   464   00008D                     Interrupt_INTx_Init@obj:
   465                           	callstack 0
   466                           
   467                           ; 1 bytes @ 0xD
   468   00008D                     	ds	1
   469   00008E                     led_intialize@pin_obj:
   470                           	callstack 0
   471   00008E                     Interrupt_INTx_Init@ret:
   472                           	callstack 0
   473                           
   474                           ; 1 bytes @ 0xE
   475   00008E                     	ds	1
   476   00008F                     
   477                           ; 1 bytes @ 0xF
   478                           
   479                           	psect	cstackCOMRAM
   480   000030                     __pcstackCOMRAM:
   481                           	callstack 0
   482   000030                     i2gpio_pin_toggle_logic@_pin_config:
   483                           	callstack 0
   484                           
   485                           ; 1 bytes @ 0x0
   486   000030                     	ds	1
   487   000031                     ??i2_gpio_pin_toggle_logic:
   488                           
   489                           ; 1 bytes @ 0x1
   490   000031                     	ds	4
   491   000035                     i2led_toggle_status@Led:
   492                           	callstack 0
   493                           
   494                           ; 1 bytes @ 0x5
   495   000035                     	ds	1
   496   000036                     ??i2_led_toggle_status:
   497                           
   498                           ; 1 bytes @ 0x6
   499   000036                     	ds	1
   500   000037                     i2led_toggle_status@ret:
   501                           	callstack 0
   502                           
   503                           ; 1 bytes @ 0x7
   504   000037                     	ds	1
   505   000038                     i2led_toggle_status@pin_obj:
   506                           	callstack 0
   507                           
   508                           ; 1 bytes @ 0x8
   509   000038                     	ds	1
   510   000039                     ??_Interrupt_Manager_High:
   511   000039                     
   512                           ; 1 bytes @ 0x9
   513   000039                     	ds	6
   514   00003F                     gpio_pin_toggle_logic@_pin_config:
   515                           	callstack 0
   516                           
   517                           ; 1 bytes @ 0xF
   518   00003F                     	ds	1
   519   000040                     ??_gpio_pin_toggle_logic:
   520                           
   521                           ; 1 bytes @ 0x10
   522   000040                     	ds	4
   523   000044                     led_toggle_status@Led:
   524                           	callstack 0
   525                           
   526                           ; 1 bytes @ 0x14
   527   000044                     	ds	1
   528   000045                     ??_led_toggle_status:
   529                           
   530                           ; 1 bytes @ 0x15
   531   000045                     	ds	1
   532   000046                     led_toggle_status@ret:
   533                           	callstack 0
   534                           
   535                           ; 1 bytes @ 0x16
   536   000046                     	ds	1
   537   000047                     led_toggle_status@pin_obj:
   538                           	callstack 0
   539                           
   540                           ; 1 bytes @ 0x17
   541   000047                     	ds	1
   542   000048                     ??_Interrupt_Manager_Low:
   543                           
   544                           ; 1 bytes @ 0x18
   545   000048                     	ds	9
   546                           
   547 ;;
   548 ;;Main: autosize = 0, tempsize = 0, incstack = 0, save=0
   549 ;;
   550 ;; *************** function _main *****************
   551 ;; Defined at:
   552 ;;		line 24 in file "app.c"
   553 ;; Parameters:    Size  Location     Type
   554 ;;		None
   555 ;; Auto vars:     Size  Location     Type
   556 ;;		None
   557 ;; Return value:  Size  Location     Type
   558 ;;                  2  720[None  ] int 
   559 ;; Registers used:
   560 ;;		wreg, fsr2l, fsr2h, status,2, status,0, prodl, prodh, cstack
   561 ;; Tracked objects:
   562 ;;		On entry : 0/0
   563 ;;		On exit  : 0/0
   564 ;;		Unchanged: 0/0
   565 ;; Data sizes:     COMRAM   BANK0   BANK1   BANK2   BANK3   BANK4   BANK5   BANK6   BANK7   BANK8   BANK9  BANK10  BANK1
      +1  BANK12  BANK13  BANK14  BANK15
   566 ;;      Params:         0       0       0       0       0       0       0       0       0       0       0       0       
      +0       0       0       0       0
   567 ;;      Locals:         0       0       0       0       0       0       0       0       0       0       0       0       
      +0       0       0       0       0
   568 ;;      Temps:          0       0       0       0       0       0       0       0       0       0       0       0       
      +0       0       0       0       0
   569 ;;      Totals:         0       0       0       0       0       0       0       0       0       0       0       0       
      +0       0       0       0       0
   570 ;;Total ram usage:        0 bytes
   571 ;; Hardware stack levels required when called: 15
   572 ;; This function calls:
   573 ;;		_Application_initialize
   574 ;;		_Seven_Segm_Display_Number
   575 ;; This function is called by:
   576 ;;		Startup code after reset
   577 ;; This function uses a non-reentrant model
   578 ;;
   579                           
   580                           	psect	text0
   581   001C0A                     __ptext0:
   582                           	callstack 0
   583   001C0A                     _main:
   584                           	callstack 16
   585   001C0A                     
   586                           ;app.c: 27:     Application_initialize();
   587   001C0A  EC2A  F00E         	call	_Application_initialize	;wreg free
   588   001C0E                     l721:
   589                           
   590                           ;app.c: 29:         ret = Seven_Segm_Display_Number(&segment, timer);
   591   001C0E  0E2A               	movlw	low _segment
   592   001C10  0100               	movlb	0	; () banked
   593   001C12  6F88               	movwf	Seven_Segm_Display_Number@_Seven_Seg& (0+255),b
   594   001C14  C067  F089         	movff	_timer,Seven_Segm_Display_Number@number
   595   001C18  ECBD  F00A         	call	_Seven_Segm_Display_Number	;wreg free
   596   001C1C  6E1F               	movwf	_ret^0,c
   597   001C1E  EF07  F00E         	goto	l721
   598   001C22  EF43  F000         	goto	start
   599   001C26                     __end_of_main:
   600                           	callstack 0
   601                           
   602 ;; *************** function _Seven_Segm_Display_Number *****************
   603 ;; Defined at:
   604 ;;		line 51 in file "ECU_LAYER/Seven_Seg/Seven_Seg.c"
   605 ;; Parameters:    Size  Location     Type
   606 ;;  _Seven_Seg      1    8[BANK0 ] PTR struct .
   607 ;;		 -> segment(5), 
   608 ;;  number          1    9[BANK0 ] unsigned char 
   609 ;; Auto vars:     Size  Location     Type
   610 ;;  ret             1   10[BANK0 ] unsigned char 
   611 ;; Return value:  Size  Location     Type
   612 ;;                  1    wreg      unsigned char 
   613 ;; Registers used:
   614 ;;		wreg, fsr2l, fsr2h, status,2, status,0, prodl, prodh, cstack
   615 ;; Tracked objects:
   616 ;;		On entry : 0/0
   617 ;;		On exit  : 0/0
   618 ;;		Unchanged: 0/0
   619 ;; Data sizes:     COMRAM   BANK0   BANK1   BANK2   BANK3   BANK4   BANK5   BANK6   BANK7   BANK8   BANK9  BANK10  BANK1
      +1  BANK12  BANK13  BANK14  BANK15
   620 ;;      Params:         0       2       0       0       0       0       0       0       0       0       0       0       
      +0       0       0       0       0
   621 ;;      Locals:         0       1       0       0       0       0       0       0       0       0       0       0       
      +0       0       0       0       0
   622 ;;      Temps:          0       0       0       0       0       0       0       0       0       0       0       0       
      +0       0       0       0       0
   623 ;;      Totals:         0       3       0       0       0       0       0       0       0       0       0       0       
      +0       0       0       0       0
   624 ;;Total ram usage:        3 bytes
   625 ;; Hardware stack levels used: 1
   626 ;; Hardware stack levels required when called: 11
   627 ;; This function calls:
   628 ;;		_gpio_pin_write_logic
   629 ;; This function is called by:
   630 ;;		_main
   631 ;; This function uses a non-reentrant model
   632 ;;
   633                           
   634                           	psect	text1
   635   00157A                     __ptext1:
   636                           	callstack 0
   637   00157A                     _Seven_Segm_Display_Number:
   638                           	callstack 19
   639   00157A                     
   640                           ;ECU_LAYER/Seven_Seg/Seven_Seg.c: 54:     if (((void*)0) == _Seven_Seg || (number < 0 ||
      +                           number > 9)) {
   641   00157A  0100               	movlb	0	; () banked
   642   00157C  5188               	movf	Seven_Segm_Display_Number@_Seven_Seg& (0+255),w,b
   643   00157E  B4D8               	btfsc	status,2,c
   644   001580  EFC4  F00A         	goto	u3111
   645   001584  EFC6  F00A         	goto	u3110
   646   001588                     u3111:
   647   001588  EFCE  F00A         	goto	l4308
   648   00158C                     u3110:
   649   00158C                     
   650                           ; BSR set to: 0
   651   00158C  0E09               	movlw	9
   652   00158E  6589               	cpfsgt	Seven_Segm_Display_Number@number& (0+255),b
   653   001590  EFCC  F00A         	goto	u3121
   654   001594  EFCE  F00A         	goto	u3120
   655   001598                     u3121:
   656   001598  EFD2  F00A         	goto	l4310
   657   00159C                     u3120:
   658   00159C                     l4308:
   659                           
   660                           ; BSR set to: 0
   661                           ;ECU_LAYER/Seven_Seg/Seven_Seg.c: 55:         ret = (Std_ReturnType)0X00;
   662   00159C  0E00               	movlw	0
   663   00159E  6F8A               	movwf	Seven_Segm_Display_Number@ret& (0+255),b
   664                           
   665                           ;ECU_LAYER/Seven_Seg/Seven_Seg.c: 56:     } else {
   666   0015A0  EFFD  F00A         	goto	l4312
   667   0015A4                     l4310:
   668                           
   669                           ; BSR set to: 0
   670                           ;ECU_LAYER/Seven_Seg/Seven_Seg.c: 57:         ret = gpio_pin_write_logic(&_Seven_Seg->se
      +                          gment_pins[SEGMENT_PIN0], (number >> 0) & (uint8)1);
   671   0015A4  C088  F080         	movff	Seven_Segm_Display_Number@_Seven_Seg,gpio_pin_write_logic@_pin_config
   672   0015A8  5189               	movf	Seven_Segm_Display_Number@number& (0+255),w,b
   673   0015AA  0B01               	andlw	1
   674   0015AC  6F81               	movwf	gpio_pin_write_logic@logic_& (0+255),b
   675   0015AE  EC30  F009         	call	_gpio_pin_write_logic	;wreg free
   676   0015B2  0100               	movlb	0	; () banked
   677   0015B4  6F8A               	movwf	Seven_Segm_Display_Number@ret& (0+255),b
   678                           
   679                           ;ECU_LAYER/Seven_Seg/Seven_Seg.c: 58:         ret = gpio_pin_write_logic(&_Seven_Seg->se
      +                          gment_pins[SEGMENT_PIN1], (number >> 1) & (uint8)1);
   680   0015B6  2988               	incf	Seven_Segm_Display_Number@_Seven_Seg& (0+255),w,b
   681   0015B8  6F80               	movwf	gpio_pin_write_logic@_pin_config& (0+255),b
   682   0015BA  90D8               	bcf	status,0,c
   683   0015BC  3189               	rrcf	Seven_Segm_Display_Number@number& (0+255),w,b
   684   0015BE  0B01               	andlw	1
   685   0015C0  6F81               	movwf	gpio_pin_write_logic@logic_& (0+255),b
   686   0015C2  EC30  F009         	call	_gpio_pin_write_logic	;wreg free
   687   0015C6  0100               	movlb	0	; () banked
   688   0015C8  6F8A               	movwf	Seven_Segm_Display_Number@ret& (0+255),b
   689                           
   690                           ;ECU_LAYER/Seven_Seg/Seven_Seg.c: 59:         ret = gpio_pin_write_logic(&_Seven_Seg->se
      +                          gment_pins[SEGMENT_PIN2], (number >> 2) & (uint8)1);
   691   0015CA  5188               	movf	Seven_Segm_Display_Number@_Seven_Seg& (0+255),w,b
   692   0015CC  0F02               	addlw	2
   693   0015CE  6F80               	movwf	gpio_pin_write_logic@_pin_config& (0+255),b
   694   0015D0  4189               	rrncf	Seven_Segm_Display_Number@number& (0+255),w,b
   695   0015D2  42E8               	rrncf	wreg,f,c
   696   0015D4  0B3F               	andlw	63
   697   0015D6  0B01               	andlw	1
   698   0015D8  6F81               	movwf	gpio_pin_write_logic@logic_& (0+255),b
   699   0015DA  EC30  F009         	call	_gpio_pin_write_logic	;wreg free
   700   0015DE  0100               	movlb	0	; () banked
   701   0015E0  6F8A               	movwf	Seven_Segm_Display_Number@ret& (0+255),b
   702                           
   703                           ;ECU_LAYER/Seven_Seg/Seven_Seg.c: 60:         ret = gpio_pin_write_logic(&_Seven_Seg->se
      +                          gment_pins[SEGMENT_PIN3], (number >> 3) & (uint8)1);
   704   0015E2  5188               	movf	Seven_Segm_Display_Number@_Seven_Seg& (0+255),w,b
   705   0015E4  0F03               	addlw	3
   706   0015E6  6F80               	movwf	gpio_pin_write_logic@_pin_config& (0+255),b
   707   0015E8  3989               	swapf	Seven_Segm_Display_Number@number& (0+255),w,b
   708   0015EA  46E8               	rlncf	wreg,f,c
   709   0015EC  0B1F               	andlw	31
   710   0015EE  0B01               	andlw	1
   711   0015F0  6F81               	movwf	gpio_pin_write_logic@logic_& (0+255),b
   712   0015F2  EC30  F009         	call	_gpio_pin_write_logic	;wreg free
   713   0015F6  0100               	movlb	0	; () banked
   714   0015F8  6F8A               	movwf	Seven_Segm_Display_Number@ret& (0+255),b
   715   0015FA                     l4312:
   716                           
   717                           ; BSR set to: 0
   718                           ;ECU_LAYER/Seven_Seg/Seven_Seg.c: 63:     return ret;
   719   0015FA  518A               	movf	Seven_Segm_Display_Number@ret& (0+255),w,b
   720   0015FC                     
   721                           ; BSR set to: 0
   722   0015FC  0012               	return		;funcret
   723   0015FE                     __end_of_Seven_Segm_Display_Number:
   724                           	callstack 0
   725                           
   726 ;; *************** function _Application_initialize *****************
   727 ;; Defined at:
   728 ;;		line 36 in file "app.c"
   729 ;; Parameters:    Size  Location     Type
   730 ;;		None
   731 ;; Auto vars:     Size  Location     Type
   732 ;;		None
   733 ;; Return value:  Size  Location     Type
   734 ;;                  1    wreg      void 
   735 ;; Registers used:
   736 ;;		wreg, fsr2l, fsr2h, status,2, status,0, prodl, prodh, cstack
   737 ;; Tracked objects:
   738 ;;		On entry : 0/0
   739 ;;		On exit  : 0/0
   740 ;;		Unchanged: 0/0
   741 ;; Data sizes:     COMRAM   BANK0   BANK1   BANK2   BANK3   BANK4   BANK5   BANK6   BANK7   BANK8   BANK9  BANK10  BANK1
      +1  BANK12  BANK13  BANK14  BANK15
   742 ;;      Params:         0       0       0       0       0       0       0       0       0       0       0       0       
      +0       0       0       0       0
   743 ;;      Locals:         0       0       0       0       0       0       0       0       0       0       0       0       
      +0       0       0       0       0
   744 ;;      Temps:          0       0       0       0       0       0       0       0       0       0       0       0       
      +0       0       0       0       0
   745 ;;      Totals:         0       0       0       0       0       0       0       0       0       0       0       0       
      +0       0       0       0       0
   746 ;;Total ram usage:        0 bytes
   747 ;; Hardware stack levels used: 1
   748 ;; Hardware stack levels required when called: 14
   749 ;; This function calls:
   750 ;;		_Interrupt_INTx_Init
   751 ;;		_ecu_layer_initailize
   752 ;; This function is called by:
   753 ;;		_main
   754 ;; This function uses a non-reentrant model
   755 ;;
   756                           
   757                           	psect	text2
   758   001C54                     __ptext2:
   759                           	callstack 0
   760   001C54                     _Application_initialize:
   761                           	callstack 16
   762   001C54                     
   763                           ;app.c: 37:     ecu_layer_initailize();
   764   001C54  EC1F  F00E         	call	_ecu_layer_initailize	;wreg free
   765                           
   766                           ;app.c: 38:     ret = Interrupt_INTx_Init(&clock);
   767   001C58  0E24               	movlw	low _clock
   768   001C5A  0100               	movlb	0	; () banked
   769   001C5C  6F8D               	movwf	Interrupt_INTx_Init@obj& (0+255),b
   770   001C5E  ECA5  F00C         	call	_Interrupt_INTx_Init	;wreg free
   771   001C62  6E1F               	movwf	_ret^0,c
   772   001C64  0012               	return		;funcret
   773   001C66                     __end_of_Application_initialize:
   774                           	callstack 0
   775                           
   776 ;; *************** function _ecu_layer_initailize *****************
   777 ;; Defined at:
   778 ;;		line 40 in file "ECU_LAYER/ecu_layer_init.c"
   779 ;; Parameters:    Size  Location     Type
   780 ;;		None
   781 ;; Auto vars:     Size  Location     Type
   782 ;;  ret             1    0        unsigned char 
   783 ;; Return value:  Size  Location     Type
   784 ;;                  1    wreg      void 
   785 ;; Registers used:
   786 ;;		wreg, fsr2l, fsr2h, status,2, status,0, prodl, prodh, cstack
   787 ;; Tracked objects:
   788 ;;		On entry : 0/0
   789 ;;		On exit  : 0/0
   790 ;;		Unchanged: 0/0
   791 ;; Data sizes:     COMRAM   BANK0   BANK1   BANK2   BANK3   BANK4   BANK5   BANK6   BANK7   BANK8   BANK9  BANK10  BANK1
      +1  BANK12  BANK13  BANK14  BANK15
   792 ;;      Params:         0       0       0       0       0       0       0       0       0       0       0       0       
      +0       0       0       0       0
   793 ;;      Locals:         0       0       0       0       0       0       0       0       0       0       0       0       
      +0       0       0       0       0
   794 ;;      Temps:          0       0       0       0       0       0       0       0       0       0       0       0       
      +0       0       0       0       0
   795 ;;      Totals:         0       0       0       0       0       0       0       0       0       0       0       0       
      +0       0       0       0       0
   796 ;;Total ram usage:        0 bytes
   797 ;; Hardware stack levels used: 1
   798 ;; Hardware stack levels required when called: 13
   799 ;; This function calls:
   800 ;;		_Seven_Segm_initailize
   801 ;;		_led_intialize
   802 ;; This function is called by:
   803 ;;		_Application_initialize
   804 ;; This function uses a non-reentrant model
   805 ;;
   806                           
   807                           	psect	text3
   808   001C3E                     __ptext3:
   809                           	callstack 0
   810   001C3E                     _ecu_layer_initailize:
   811                           	callstack 16
   812   001C3E  0E2A               	movlw	low _segment
   813   001C40  0100               	movlb	0	; () banked
   814   001C42  6F8B               	movwf	Seven_Segm_initailize@_Seven_Seg& (0+255),b
   815   001C44  EC0C  F00D         	call	_Seven_Segm_initailize	;wreg free
   816   001C48  0E2F               	movlw	low _led
   817   001C4A  0100               	movlb	0	; () banked
   818   001C4C  6F8B               	movwf	led_intialize@Led& (0+255),b
   819   001C4E  EC81  F00B         	call	_led_intialize	;wreg free
   820   001C52  0012               	return		;funcret
   821   001C54                     __end_of_ecu_layer_initailize:
   822                           	callstack 0
   823                           
   824 ;; *************** function _led_intialize *****************
   825 ;; Defined at:
   826 ;;		line 12 in file "ECU_LAYER/Led/ecu_led.c"
   827 ;; Parameters:    Size  Location     Type
   828 ;;  Led             1   11[BANK0 ] PTR const struct .
   829 ;;		 -> led(1), 
   830 ;; Auto vars:     Size  Location     Type
   831 ;;  pin_obj         1   14[BANK0 ] struct .
   832 ;;  ret             1   13[BANK0 ] unsigned char 
   833 ;; Return value:  Size  Location     Type
   834 ;;                  1    wreg      unsigned char 
   835 ;; Registers used:
   836 ;;		wreg, fsr2l, fsr2h, status,2, status,0, prodl, prodh, cstack
   837 ;; Tracked objects:
   838 ;;		On entry : 0/0
   839 ;;		On exit  : 0/0
   840 ;;		Unchanged: 0/0
   841 ;; Data sizes:     COMRAM   BANK0   BANK1   BANK2   BANK3   BANK4   BANK5   BANK6   BANK7   BANK8   BANK9  BANK10  BANK1
      +1  BANK12  BANK13  BANK14  BANK15
   842 ;;      Params:         0       1       0       0       0       0       0       0       0       0       0       0       
      +0       0       0       0       0
   843 ;;      Locals:         0       2       0       0       0       0       0       0       0       0       0       0       
      +0       0       0       0       0
   844 ;;      Temps:          0       1       0       0       0       0       0       0       0       0       0       0       
      +0       0       0       0       0
   845 ;;      Totals:         0       4       0       0       0       0       0       0       0       0       0       0       
      +0       0       0       0       0
   846 ;;Total ram usage:        4 bytes
   847 ;; Hardware stack levels used: 1
   848 ;; Hardware stack levels required when called: 12
   849 ;; This function calls:
   850 ;;		_gpio_pin_initialize
   851 ;; This function is called by:
   852 ;;		_ecu_layer_initailize
   853 ;; This function uses a non-reentrant model
   854 ;;
   855                           
   856                           	psect	text4
   857   001702                     __ptext4:
   858                           	callstack 0
   859   001702                     _led_intialize:
   860                           	callstack 16
   861   001702                     
   862                           ;ECU_LAYER/Led/ecu_led.c: 13:     Std_ReturnType ret = (Std_ReturnType)0X01;
   863   001702  0E01               	movlw	1
   864   001704  0100               	movlb	0	; () banked
   865   001706  6F8D               	movwf	led_intialize@ret& (0+255),b
   866                           
   867                           ;ECU_LAYER/Led/ecu_led.c: 14:     if (((void*)0) == Led) {
   868   001708  518B               	movf	led_intialize@Led& (0+255),w,b
   869   00170A  A4D8               	btfss	status,2,c
   870   00170C  EF8A  F00B         	goto	u2751
   871   001710  EF8C  F00B         	goto	u2750
   872   001714                     u2751:
   873   001714  EF90  F00B         	goto	l251
   874   001718                     u2750:
   875   001718                     
   876                           ; BSR set to: 0
   877                           ;ECU_LAYER/Led/ecu_led.c: 15:         ret = (Std_ReturnType)0X00;
   878   001718  0E00               	movlw	0
   879   00171A  6F8D               	movwf	led_intialize@ret& (0+255),b
   880                           
   881                           ;ECU_LAYER/Led/ecu_led.c: 16:     } else {
   882   00171C  EFBB  F00B         	goto	l3944
   883   001720                     l251:
   884                           
   885                           ; BSR set to: 0
   886                           ;ECU_LAYER/Led/ecu_led.c: 18:         pin_config_t pin_obj = {
   887   001720  C06E  F08E         	movff	led_intialize@F3482,led_intialize@pin_obj
   888   001724                     
   889                           ; BSR set to: 0
   890   001724  518B               	movf	led_intialize@Led& (0+255),w,b
   891   001726  6ED9               	movwf	fsr2l,c
   892   001728  6ADA               	clrf	fsr2h,c
   893   00172A  50DF               	movf	223,w,c
   894   00172C  0B07               	andlw	7
   895   00172E  6F8C               	movwf	??_led_intialize& (0+255),b
   896   001730  518E               	movf	led_intialize@pin_obj& (0+255),w,b
   897   001732  198C               	xorwf	??_led_intialize& (0+255),w,b
   898   001734  0BF8               	andlw	-8
   899   001736  198C               	xorwf	??_led_intialize& (0+255),w,b
   900   001738  6F8E               	movwf	led_intialize@pin_obj& (0+255),b
   901   00173A  518B               	movf	led_intialize@Led& (0+255),w,b
   902   00173C  6ED9               	movwf	fsr2l,c
   903   00173E  6ADA               	clrf	fsr2h,c
   904   001740  30DF               	rrcf	223,w,c
   905   001742  32E8               	rrcf	wreg,f,c
   906   001744  32E8               	rrcf	wreg,f,c
   907   001746  0B07               	andlw	7
   908   001748  6F8C               	movwf	??_led_intialize& (0+255),b
   909   00174A  478C               	rlncf	??_led_intialize& (0+255),f,b
   910   00174C  478C               	rlncf	??_led_intialize& (0+255),f,b
   911   00174E  478C               	rlncf	??_led_intialize& (0+255),f,b
   912   001750  518E               	movf	led_intialize@pin_obj& (0+255),w,b
   913   001752  198C               	xorwf	??_led_intialize& (0+255),w,b
   914   001754  0BC7               	andlw	-57
   915   001756  198C               	xorwf	??_led_intialize& (0+255),w,b
   916   001758  6F8E               	movwf	led_intialize@pin_obj& (0+255),b
   917   00175A                     
   918                           ; BSR set to: 0
   919   00175A  9D8E               	bcf	led_intialize@pin_obj& (0+255),6,b
   920   00175C                     
   921                           ; BSR set to: 0
   922   00175C  518B               	movf	led_intialize@Led& (0+255),w,b
   923   00175E  6ED9               	movwf	fsr2l,c
   924   001760  6ADA               	clrf	fsr2h,c
   925   001762  ACDF               	btfss	indf2,6,c
   926   001764  D002               	bra	u2765
   927   001766  8F8E               	bsf	led_intialize@pin_obj& (0+255),7,b
   928   001768  D002               	bra	u2767
   929   00176A                     u2765:
   930   00176A  0100               	movlb	0	; () banked
   931   00176C  9F8E               	bcf	led_intialize@pin_obj& (0+255),7,b
   932   00176E                     u2767:
   933   00176E                     
   934                           ; BSR set to: 0
   935                           ;ECU_LAYER/Led/ecu_led.c: 24:         gpio_pin_initialize(&pin_obj);
   936   00176E  0E8E               	movlw	low led_intialize@pin_obj
   937   001770  6F88               	movwf	gpio_pin_initialize@_pin_config& (0+255),b
   938   001772  ECDA  F00C         	call	_gpio_pin_initialize	;wreg free
   939   001776                     l3944:
   940                           
   941                           ;ECU_LAYER/Led/ecu_led.c: 26:     return ret;
   942   001776  0100               	movlb	0	; () banked
   943   001778  518D               	movf	led_intialize@ret& (0+255),w,b
   944   00177A                     
   945                           ; BSR set to: 0
   946   00177A  0012               	return		;funcret
   947   00177C                     __end_of_led_intialize:
   948                           	callstack 0
   949                           
   950 ;; *************** function _Seven_Segm_initailize *****************
   951 ;; Defined at:
   952 ;;		line 21 in file "ECU_LAYER/Seven_Seg/Seven_Seg.c"
   953 ;; Parameters:    Size  Location     Type
   954 ;;  _Seven_Seg      1   11[BANK0 ] PTR struct .
   955 ;;		 -> segment(5), 
   956 ;; Auto vars:     Size  Location     Type
   957 ;;  ret             1   12[BANK0 ] unsigned char 
   958 ;; Return value:  Size  Location     Type
   959 ;;                  1    wreg      unsigned char 
   960 ;; Registers used:
   961 ;;		wreg, fsr2l, fsr2h, status,2, status,0, prodl, prodh, cstack
   962 ;; Tracked objects:
   963 ;;		On entry : 0/0
   964 ;;		On exit  : 0/0
   965 ;;		Unchanged: 0/0
   966 ;; Data sizes:     COMRAM   BANK0   BANK1   BANK2   BANK3   BANK4   BANK5   BANK6   BANK7   BANK8   BANK9  BANK10  BANK1
      +1  BANK12  BANK13  BANK14  BANK15
   967 ;;      Params:         0       1       0       0       0       0       0       0       0       0       0       0       
      +0       0       0       0       0
   968 ;;      Locals:         0       1       0       0       0       0       0       0       0       0       0       0       
      +0       0       0       0       0
   969 ;;      Temps:          0       0       0       0       0       0       0       0       0       0       0       0       
      +0       0       0       0       0
   970 ;;      Totals:         0       2       0       0       0       0       0       0       0       0       0       0       
      +0       0       0       0       0
   971 ;;Total ram usage:        2 bytes
   972 ;; Hardware stack levels used: 1
   973 ;; Hardware stack levels required when called: 12
   974 ;; This function calls:
   975 ;;		_gpio_pin_initialize
   976 ;; This function is called by:
   977 ;;		_ecu_layer_initailize
   978 ;; This function uses a non-reentrant model
   979 ;;
   980                           
   981                           	psect	text5
   982   001A18                     __ptext5:
   983                           	callstack 0
   984   001A18                     _Seven_Segm_initailize:
   985                           	callstack 16
   986   001A18                     
   987                           ;ECU_LAYER/Seven_Seg/Seven_Seg.c: 24:     if (((void*)0) == _Seven_Seg) {
   988   001A18  0100               	movlb	0	; () banked
   989   001A1A  518B               	movf	Seven_Segm_initailize@_Seven_Seg& (0+255),w,b
   990   001A1C  A4D8               	btfss	status,2,c
   991   001A1E  EF13  F00D         	goto	u2771
   992   001A22  EF15  F00D         	goto	u2770
   993   001A26                     u2771:
   994   001A26  EF19  F00D         	goto	l3952
   995   001A2A                     u2770:
   996   001A2A                     
   997                           ; BSR set to: 0
   998                           ;ECU_LAYER/Seven_Seg/Seven_Seg.c: 25:         ret = (Std_ReturnType)0X00;
   999   001A2A  0E00               	movlw	0
  1000   001A2C  6F8C               	movwf	Seven_Segm_initailize@ret& (0+255),b
  1001                           
  1002                           ;ECU_LAYER/Seven_Seg/Seven_Seg.c: 26:     } else {
  1003   001A2E  EF33  F00D         	goto	l3954
  1004   001A32                     l3952:
  1005                           
  1006                           ; BSR set to: 0
  1007                           ;ECU_LAYER/Seven_Seg/Seven_Seg.c: 27:         ret = gpio_pin_initialize(&_Seven_Seg->seg
      +                          ment_pins[SEGMENT_PIN0]);
  1008   001A32  C08B  F088         	movff	Seven_Segm_initailize@_Seven_Seg,gpio_pin_initialize@_pin_config
  1009   001A36  ECDA  F00C         	call	_gpio_pin_initialize	;wreg free
  1010   001A3A  0100               	movlb	0	; () banked
  1011   001A3C  6F8C               	movwf	Seven_Segm_initailize@ret& (0+255),b
  1012                           
  1013                           ;ECU_LAYER/Seven_Seg/Seven_Seg.c: 28:         ret = gpio_pin_initialize(&_Seven_Seg->seg
      +                          ment_pins[SEGMENT_PIN1]);
  1014   001A3E  298B               	incf	Seven_Segm_initailize@_Seven_Seg& (0+255),w,b
  1015   001A40  6F88               	movwf	gpio_pin_initialize@_pin_config& (0+255),b
  1016   001A42  ECDA  F00C         	call	_gpio_pin_initialize	;wreg free
  1017   001A46  0100               	movlb	0	; () banked
  1018   001A48  6F8C               	movwf	Seven_Segm_initailize@ret& (0+255),b
  1019                           
  1020                           ;ECU_LAYER/Seven_Seg/Seven_Seg.c: 29:         ret = gpio_pin_initialize(&_Seven_Seg->seg
      +                          ment_pins[SEGMENT_PIN2]);
  1021   001A4A  518B               	movf	Seven_Segm_initailize@_Seven_Seg& (0+255),w,b
  1022   001A4C  0F02               	addlw	2
  1023   001A4E  6F88               	movwf	gpio_pin_initialize@_pin_config& (0+255),b
  1024   001A50  ECDA  F00C         	call	_gpio_pin_initialize	;wreg free
  1025   001A54  0100               	movlb	0	; () banked
  1026   001A56  6F8C               	movwf	Seven_Segm_initailize@ret& (0+255),b
  1027                           
  1028                           ;ECU_LAYER/Seven_Seg/Seven_Seg.c: 30:         ret = gpio_pin_initialize(&_Seven_Seg->seg
      +                          ment_pins[SEGMENT_PIN3]);
  1029   001A58  518B               	movf	Seven_Segm_initailize@_Seven_Seg& (0+255),w,b
  1030   001A5A  0F03               	addlw	3
  1031   001A5C  6F88               	movwf	gpio_pin_initialize@_pin_config& (0+255),b
  1032   001A5E  ECDA  F00C         	call	_gpio_pin_initialize	;wreg free
  1033   001A62  0100               	movlb	0	; () banked
  1034   001A64  6F8C               	movwf	Seven_Segm_initailize@ret& (0+255),b
  1035   001A66                     l3954:
  1036                           
  1037                           ; BSR set to: 0
  1038                           ;ECU_LAYER/Seven_Seg/Seven_Seg.c: 33:     return ret;
  1039   001A66  518C               	movf	Seven_Segm_initailize@ret& (0+255),w,b
  1040   001A68                     
  1041                           ; BSR set to: 0
  1042   001A68  0012               	return		;funcret
  1043   001A6A                     __end_of_Seven_Segm_initailize:
  1044                           	callstack 0
  1045                           
  1046 ;; *************** function _Interrupt_INTx_Init *****************
  1047 ;; Defined at:
  1048 ;;		line 44 in file "MCAL_LAYER/Interrupt/mcal_external_interrupt.c"
  1049 ;; Parameters:    Size  Location     Type
  1050 ;;  obj             1   13[BANK0 ] PTR const struct .
  1051 ;;		 -> clock(6), 
  1052 ;; Auto vars:     Size  Location     Type
  1053 ;;  ret             1   14[BANK0 ] unsigned char 
  1054 ;; Return value:  Size  Location     Type
  1055 ;;                  1    wreg      unsigned char 
  1056 ;; Registers used:
  1057 ;;		wreg, fsr2l, fsr2h, status,2, status,0, prodl, prodh, cstack
  1058 ;; Tracked objects:
  1059 ;;		On entry : 0/0
  1060 ;;		On exit  : 0/0
  1061 ;;		Unchanged: 0/0
  1062 ;; Data sizes:     COMRAM   BANK0   BANK1   BANK2   BANK3   BANK4   BANK5   BANK6   BANK7   BANK8   BANK9  BANK10  BANK1
      +1  BANK12  BANK13  BANK14  BANK15
  1063 ;;      Params:         0       1       0       0       0       0       0       0       0       0       0       0       
      +0       0       0       0       0
  1064 ;;      Locals:         0       1       0       0       0       0       0       0       0       0       0       0       
      +0       0       0       0       0
  1065 ;;      Temps:          0       0       0       0       0       0       0       0       0       0       0       0       
      +0       0       0       0       0
  1066 ;;      Totals:         0       2       0       0       0       0       0       0       0       0       0       0       
      +0       0       0       0       0
  1067 ;;Total ram usage:        2 bytes
  1068 ;; Hardware stack levels used: 1
  1069 ;; Hardware stack levels required when called: 13
  1070 ;; This function calls:
  1071 ;;		_Interrupt_INTx_Disable
  1072 ;;		_Interrupt_INTx_Edge_Init
  1073 ;;		_Interrupt_INTx_Enable
  1074 ;;		_Interrupt_INTx_Pin_Init
  1075 ;;		_Interrupt_INTx_Priority_Init
  1076 ;;		_Interrupt_Set_Interrupt_Handler
  1077 ;; This function is called by:
  1078 ;;		_Application_initialize
  1079 ;; This function uses a non-reentrant model
  1080 ;;
  1081                           
  1082                           	psect	text6
  1083   00194A                     __ptext6:
  1084                           	callstack 0
  1085   00194A                     _Interrupt_INTx_Init:
  1086                           	callstack 16
  1087   00194A                     
  1088                           ;MCAL_LAYER/Interrupt/mcal_external_interrupt.c: 45:     Std_ReturnType ret = (Std_Retur
      +                          nType)0X01;
  1089   00194A  0E01               	movlw	1
  1090   00194C  0100               	movlb	0	; () banked
  1091   00194E  6F8E               	movwf	Interrupt_INTx_Init@ret& (0+255),b
  1092                           
  1093                           ;MCAL_LAYER/Interrupt/mcal_external_interrupt.c: 46:     if (((void*)0) == obj) {
  1094   001950  518D               	movf	Interrupt_INTx_Init@obj& (0+255),w,b
  1095   001952  A4D8               	btfss	status,2,c
  1096   001954  EFAE  F00C         	goto	u3001
  1097   001958  EFB0  F00C         	goto	u3000
  1098   00195C                     u3001:
  1099   00195C  EFB4  F00C         	goto	l4198
  1100   001960                     u3000:
  1101   001960                     
  1102                           ; BSR set to: 0
  1103                           ;MCAL_LAYER/Interrupt/mcal_external_interrupt.c: 47:         ret = (Std_ReturnType)0X00;
  1104   001960  0E00               	movlw	0
  1105   001962  6F8E               	movwf	Interrupt_INTx_Init@ret& (0+255),b
  1106                           
  1107                           ;MCAL_LAYER/Interrupt/mcal_external_interrupt.c: 48:     } else {
  1108   001964  EFD8  F00C         	goto	l4206
  1109   001968                     l4198:
  1110                           
  1111                           ; BSR set to: 0
  1112                           ;MCAL_LAYER/Interrupt/mcal_external_interrupt.c: 50:         ret |= Interrupt_INTx_Disab
      +                          le(obj);
  1113   001968  C08D  F080         	movff	Interrupt_INTx_Init@obj,Interrupt_INTx_Disable@obj
  1114   00196C  EC6D  F00C         	call	_Interrupt_INTx_Disable	;wreg free
  1115   001970  0100               	movlb	0	; () banked
  1116   001972  138E               	iorwf	Interrupt_INTx_Init@ret& (0+255),f,b
  1117                           
  1118                           ;MCAL_LAYER/Interrupt/mcal_external_interrupt.c: 51:         ret |= Interrupt_INTx_Edge_
      +                          Init(obj);
  1119   001974  C08D  F080         	movff	Interrupt_INTx_Init@obj,Interrupt_INTx_Edge_Init@obj
  1120   001978  ECA1  F008         	call	_Interrupt_INTx_Edge_Init	;wreg free
  1121   00197C  0100               	movlb	0	; () banked
  1122   00197E  138E               	iorwf	Interrupt_INTx_Init@ret& (0+255),f,b
  1123                           
  1124                           ;MCAL_LAYER/Interrupt/mcal_external_interrupt.c: 55:         ret |= Interrupt_INTx_Prior
      +                          ity_Init(obj);
  1125   001980  C08D  F080         	movff	Interrupt_INTx_Init@obj,Interrupt_INTx_Priority_Init@obj
  1126   001984  EC6C  F00A         	call	_Interrupt_INTx_Priority_Init	;wreg free
  1127   001988  0100               	movlb	0	; () banked
  1128   00198A  138E               	iorwf	Interrupt_INTx_Init@ret& (0+255),f,b
  1129   00198C                     
  1130                           ; BSR set to: 0
  1131                           ;MCAL_LAYER/Interrupt/mcal_external_interrupt.c: 59:         ret |= Interrupt_INTx_Pin_I
      +                          nit(obj);
  1132   00198C  C08D  F08B         	movff	Interrupt_INTx_Init@obj,Interrupt_INTx_Pin_Init@obj
  1133   001990  ECEF  F00D         	call	_Interrupt_INTx_Pin_Init	;wreg free
  1134   001994  0100               	movlb	0	; () banked
  1135   001996  138E               	iorwf	Interrupt_INTx_Init@ret& (0+255),f,b
  1136   001998                     
  1137                           ; BSR set to: 0
  1138                           ;MCAL_LAYER/Interrupt/mcal_external_interrupt.c: 60:         ret |= Interrupt_Set_Interr
      +                          upt_Handler(obj);
  1139   001998  C08D  F083         	movff	Interrupt_INTx_Init@obj,Interrupt_Set_Interrupt_Handler@obj
  1140   00199C  EC18  F00A         	call	_Interrupt_Set_Interrupt_Handler	;wreg free
  1141   0019A0  0100               	movlb	0	; () banked
  1142   0019A2  138E               	iorwf	Interrupt_INTx_Init@ret& (0+255),f,b
  1143   0019A4                     
  1144                           ; BSR set to: 0
  1145                           ;MCAL_LAYER/Interrupt/mcal_external_interrupt.c: 63:         ret |= Interrupt_INTx_Enabl
      +                          e(obj);
  1146   0019A4  C08D  F080         	movff	Interrupt_INTx_Init@obj,Interrupt_INTx_Enable@obj
  1147   0019A8  ECBB  F009         	call	_Interrupt_INTx_Enable	;wreg free
  1148   0019AC  0100               	movlb	0	; () banked
  1149   0019AE  138E               	iorwf	Interrupt_INTx_Init@ret& (0+255),f,b
  1150   0019B0                     l4206:
  1151                           
  1152                           ; BSR set to: 0
  1153                           ;MCAL_LAYER/Interrupt/mcal_external_interrupt.c: 65:     return ret;
  1154   0019B0  518E               	movf	Interrupt_INTx_Init@ret& (0+255),w,b
  1155   0019B2                     
  1156                           ; BSR set to: 0
  1157   0019B2  0012               	return		;funcret
  1158   0019B4                     __end_of_Interrupt_INTx_Init:
  1159                           	callstack 0
  1160                           
  1161 ;; *************** function _Interrupt_Set_Interrupt_Handler *****************
  1162 ;; Defined at:
  1163 ;;		line 428 in file "MCAL_LAYER/Interrupt/mcal_external_interrupt.c"
  1164 ;; Parameters:    Size  Location     Type
  1165 ;;  obj             1    3[BANK0 ] PTR const struct .
  1166 ;;		 -> clock(6), 
  1167 ;; Auto vars:     Size  Location     Type
  1168 ;;  ret             1    6[BANK0 ] unsigned char 
  1169 ;; Return value:  Size  Location     Type
  1170 ;;                  1    wreg      unsigned char 
  1171 ;; Registers used:
  1172 ;;		wreg, fsr2l, fsr2h, status,2, status,0, cstack
  1173 ;; Tracked objects:
  1174 ;;		On entry : 0/0
  1175 ;;		On exit  : 0/0
  1176 ;;		Unchanged: 0/0
  1177 ;; Data sizes:     COMRAM   BANK0   BANK1   BANK2   BANK3   BANK4   BANK5   BANK6   BANK7   BANK8   BANK9  BANK10  BANK1
      +1  BANK12  BANK13  BANK14  BANK15
  1178 ;;      Params:         0       1       0       0       0       0       0       0       0       0       0       0       
      +0       0       0       0       0
  1179 ;;      Locals:         0       1       0       0       0       0       0       0       0       0       0       0       
      +0       0       0       0       0
  1180 ;;      Temps:          0       2       0       0       0       0       0       0       0       0       0       0       
      +0       0       0       0       0
  1181 ;;      Totals:         0       4       0       0       0       0       0       0       0       0       0       0       
      +0       0       0       0       0
  1182 ;;Total ram usage:        4 bytes
  1183 ;; Hardware stack levels used: 1
  1184 ;; Hardware stack levels required when called: 11
  1185 ;; This function calls:
  1186 ;;		_INT0_Set_Interrupt_Handler
  1187 ;;		_INT1_Set_Interrupt_Handler
  1188 ;;		_INT2_Set_Interrupt_Handler
  1189 ;; This function is called by:
  1190 ;;		_Interrupt_INTx_Init
  1191 ;; This function uses a non-reentrant model
  1192 ;;
  1193                           
  1194                           	psect	text7
  1195   001430                     __ptext7:
  1196                           	callstack 0
  1197   001430                     _Interrupt_Set_Interrupt_Handler:
  1198                           	callstack 17
  1199   001430                     
  1200                           ;MCAL_LAYER/Interrupt/mcal_external_interrupt.c: 430:     if (((void*)0) == obj) {
  1201   001430  0100               	movlb	0	; () banked
  1202   001432  5183               	movf	Interrupt_Set_Interrupt_Handler@obj& (0+255),w,b
  1203   001434  A4D8               	btfss	status,2,c
  1204   001436  EF1F  F00A         	goto	u2901
  1205   00143A  EF21  F00A         	goto	u2900
  1206   00143E                     u2901:
  1207   00143E  EF4C  F00A         	goto	l4068
  1208   001442                     u2900:
  1209   001442                     l4056:
  1210                           
  1211                           ; BSR set to: 0
  1212                           ;MCAL_LAYER/Interrupt/mcal_external_interrupt.c: 431:         ret = (Std_ReturnType)0X00
      +                          ;
  1213   001442  0E00               	movlw	0
  1214   001444  6F86               	movwf	Interrupt_Set_Interrupt_Handler@ret& (0+255),b
  1215                           
  1216                           ;MCAL_LAYER/Interrupt/mcal_external_interrupt.c: 432:     } else {
  1217   001446  EF6A  F00A         	goto	l4070
  1218   00144A                     l4058:
  1219                           
  1220                           ; BSR set to: 0
  1221                           ;MCAL_LAYER/Interrupt/mcal_external_interrupt.c: 436:                 ret = INT0_Set_Int
      +                          errupt_Handler(obj->External_CallBack);
  1222   00144A  5183               	movf	Interrupt_Set_Interrupt_Handler@obj& (0+255),w,b
  1223   00144C  6ED9               	movwf	fsr2l,c
  1224   00144E  6ADA               	clrf	fsr2h,c
  1225   001450  CFDE F080          	movff	postinc2,INT0_Set_Interrupt_Handler@Interrupt_Handler
  1226   001454  CFDD F081          	movff	postdec2,INT0_Set_Interrupt_Handler@Interrupt_Handler+1
  1227   001458  ECD9  F00D         	call	_INT0_Set_Interrupt_Handler	;wreg free
  1228   00145C  0100               	movlb	0	; () banked
  1229   00145E  6F86               	movwf	Interrupt_Set_Interrupt_Handler@ret& (0+255),b
  1230                           
  1231                           ;MCAL_LAYER/Interrupt/mcal_external_interrupt.c: 437:                 break;
  1232   001460  EF6A  F00A         	goto	l4070
  1233   001464                     l4060:
  1234                           
  1235                           ; BSR set to: 0
  1236                           ;MCAL_LAYER/Interrupt/mcal_external_interrupt.c: 439:                 ret = INT1_Set_Int
      +                          errupt_Handler(obj->External_CallBack);
  1237   001464  5183               	movf	Interrupt_Set_Interrupt_Handler@obj& (0+255),w,b
  1238   001466  6ED9               	movwf	fsr2l,c
  1239   001468  6ADA               	clrf	fsr2h,c
  1240   00146A  CFDE F080          	movff	postinc2,INT1_Set_Interrupt_Handler@Interrupt_Handler
  1241   00146E  CFDD F081          	movff	postdec2,INT1_Set_Interrupt_Handler@Interrupt_Handler+1
  1242   001472  ECC3  F00D         	call	_INT1_Set_Interrupt_Handler	;wreg free
  1243   001476  0100               	movlb	0	; () banked
  1244   001478  6F86               	movwf	Interrupt_Set_Interrupt_Handler@ret& (0+255),b
  1245                           
  1246                           ;MCAL_LAYER/Interrupt/mcal_external_interrupt.c: 440:                 break;
  1247   00147A  EF6A  F00A         	goto	l4070
  1248   00147E                     l4062:
  1249                           
  1250                           ; BSR set to: 0
  1251                           ;MCAL_LAYER/Interrupt/mcal_external_interrupt.c: 442:                 ret = INT2_Set_Int
      +                          errupt_Handler(obj->External_CallBack);
  1252   00147E  5183               	movf	Interrupt_Set_Interrupt_Handler@obj& (0+255),w,b
  1253   001480  6ED9               	movwf	fsr2l,c
  1254   001482  6ADA               	clrf	fsr2h,c
  1255   001484  CFDE F080          	movff	postinc2,INT2_Set_Interrupt_Handler@Interrupt_Handler
  1256   001488  CFDD F081          	movff	postdec2,INT2_Set_Interrupt_Handler@Interrupt_Handler+1
  1257   00148C  ECAD  F00D         	call	_INT2_Set_Interrupt_Handler	;wreg free
  1258   001490  0100               	movlb	0	; () banked
  1259   001492  6F86               	movwf	Interrupt_Set_Interrupt_Handler@ret& (0+255),b
  1260                           
  1261                           ;MCAL_LAYER/Interrupt/mcal_external_interrupt.c: 443:                 break;
  1262   001494  EF6A  F00A         	goto	l4070
  1263   001498                     l4068:
  1264                           
  1265                           ; BSR set to: 0
  1266   001498  5183               	movf	Interrupt_Set_Interrupt_Handler@obj& (0+255),w,b
  1267   00149A  6ED9               	movwf	fsr2l,c
  1268   00149C  6ADA               	clrf	fsr2h,c
  1269   00149E  0E03               	movlw	3
  1270   0014A0  26D9               	addwf	fsr2l,f,c
  1271   0014A2  50DF               	movf	indf2,w,c
  1272   0014A4  6F84               	movwf	??_Interrupt_Set_Interrupt_Handler& (0+255),b
  1273   0014A6  6B85               	clrf	(??_Interrupt_Set_Interrupt_Handler+1)& (0+255),b
  1274                           
  1275                           ; Switch on 2 bytes has been partitioned into a top level switch of size 1, and 1 sub-sw
      +                          itches
  1276                           ; Switch size 1, requested type "simple"
  1277                           ; Number of cases is 1, Range of values is 0 to 0
  1278                           ; switch strategies available:
  1279                           ; Name         Instructions Cycles
  1280                           ; simple_byte            4     3 (average)
  1281                           ;	Chosen strategy is simple_byte
  1282   0014A8  5185               	movf	(??_Interrupt_Set_Interrupt_Handler+1)& (0+255),w,b
  1283   0014AA  0A00               	xorlw	0	; case 0
  1284   0014AC  B4D8               	btfsc	status,2,c
  1285   0014AE  EF5B  F00A         	goto	l4946
  1286   0014B2  EF21  F00A         	goto	l4056
  1287   0014B6                     l4946:
  1288                           
  1289                           ; BSR set to: 0
  1290                           ; Switch size 1, requested type "simple"
  1291                           ; Number of cases is 3, Range of values is 0 to 2
  1292                           ; switch strategies available:
  1293                           ; Name         Instructions Cycles
  1294                           ; simple_byte           10     6 (average)
  1295                           ;	Chosen strategy is simple_byte
  1296   0014B6  5184               	movf	??_Interrupt_Set_Interrupt_Handler& (0+255),w,b
  1297   0014B8  0A00               	xorlw	0	; case 0
  1298   0014BA  B4D8               	btfsc	status,2,c
  1299   0014BC  EF25  F00A         	goto	l4058
  1300   0014C0  0A01               	xorlw	1	; case 1
  1301   0014C2  B4D8               	btfsc	status,2,c
  1302   0014C4  EF32  F00A         	goto	l4060
  1303   0014C8  0A03               	xorlw	3	; case 2
  1304   0014CA  B4D8               	btfsc	status,2,c
  1305   0014CC  EF3F  F00A         	goto	l4062
  1306   0014D0  EF21  F00A         	goto	l4056
  1307   0014D4                     l4070:
  1308                           
  1309                           ; BSR set to: 0
  1310                           ;MCAL_LAYER/Interrupt/mcal_external_interrupt.c: 449:     return ret;
  1311   0014D4  5186               	movf	Interrupt_Set_Interrupt_Handler@ret& (0+255),w,b
  1312   0014D6                     
  1313                           ; BSR set to: 0
  1314   0014D6  0012               	return		;funcret
  1315   0014D8                     __end_of_Interrupt_Set_Interrupt_Handler:
  1316                           	callstack 0
  1317                           
  1318 ;; *************** function _INT2_Set_Interrupt_Handler *****************
  1319 ;; Defined at:
  1320 ;;		line 411 in file "MCAL_LAYER/Interrupt/mcal_external_interrupt.c"
  1321 ;; Parameters:    Size  Location     Type
  1322 ;;  Interrupt_Ha    2    0[BANK0 ] PTR FTN()void 
  1323 ;;		 -> i2_timer_increment(1), timer_increment(1), 
  1324 ;; Auto vars:     Size  Location     Type
  1325 ;;  ret             1    2[BANK0 ] unsigned char 
  1326 ;; Return value:  Size  Location     Type
  1327 ;;                  1    wreg      unsigned char 
  1328 ;; Registers used:
  1329 ;;		wreg, status,2, status,0
  1330 ;; Tracked objects:
  1331 ;;		On entry : 0/0
  1332 ;;		On exit  : 0/0
  1333 ;;		Unchanged: 0/0
  1334 ;; Data sizes:     COMRAM   BANK0   BANK1   BANK2   BANK3   BANK4   BANK5   BANK6   BANK7   BANK8   BANK9  BANK10  BANK1
      +1  BANK12  BANK13  BANK14  BANK15
  1335 ;;      Params:         0       2       0       0       0       0       0       0       0       0       0       0       
      +0       0       0       0       0
  1336 ;;      Locals:         0       1       0       0       0       0       0       0       0       0       0       0       
      +0       0       0       0       0
  1337 ;;      Temps:          0       0       0       0       0       0       0       0       0       0       0       0       
      +0       0       0       0       0
  1338 ;;      Totals:         0       3       0       0       0       0       0       0       0       0       0       0       
      +0       0       0       0       0
  1339 ;;Total ram usage:        3 bytes
  1340 ;; Hardware stack levels used: 1
  1341 ;; Hardware stack levels required when called: 10
  1342 ;; This function calls:
  1343 ;;		Nothing
  1344 ;; This function is called by:
  1345 ;;		_Interrupt_Set_Interrupt_Handler
  1346 ;; This function uses a non-reentrant model
  1347 ;;
  1348                           
  1349                           	psect	text8
  1350   001B5A                     __ptext8:
  1351                           	callstack 0
  1352   001B5A                     _INT2_Set_Interrupt_Handler:
  1353                           	callstack 17
  1354   001B5A                     
  1355                           ;MCAL_LAYER/Interrupt/mcal_external_interrupt.c: 412:     Std_ReturnType ret = (Std_Retu
      +                          rnType)0X01;
  1356   001B5A  0E01               	movlw	1
  1357   001B5C  0100               	movlb	0	; () banked
  1358   001B5E  6F82               	movwf	INT2_Set_Interrupt_Handler@ret& (0+255),b
  1359   001B60                     
  1360                           ; BSR set to: 0
  1361                           ;MCAL_LAYER/Interrupt/mcal_external_interrupt.c: 413:     if (((void*)0) == Interrupt_Ha
      +                          ndler) {
  1362   001B60  5180               	movf	INT2_Set_Interrupt_Handler@Interrupt_Handler& (0+255),w,b
  1363   001B62  1181               	iorwf	(INT2_Set_Interrupt_Handler@Interrupt_Handler+1)& (0+255),w,b
  1364   001B64  A4D8               	btfss	status,2,c
  1365   001B66  EFB7  F00D         	goto	u2741
  1366   001B6A  EFB9  F00D         	goto	u2740
  1367   001B6E                     u2741:
  1368   001B6E  EFBD  F00D         	goto	l3926
  1369   001B72                     u2740:
  1370   001B72                     
  1371                           ; BSR set to: 0
  1372                           ;MCAL_LAYER/Interrupt/mcal_external_interrupt.c: 414:         ret = (Std_ReturnType)0X00
      +                          ;
  1373   001B72  0E00               	movlw	0
  1374   001B74  6F82               	movwf	INT2_Set_Interrupt_Handler@ret& (0+255),b
  1375                           
  1376                           ;MCAL_LAYER/Interrupt/mcal_external_interrupt.c: 415:     } else {
  1377   001B76  EFC1  F00D         	goto	l3928
  1378   001B7A                     l3926:
  1379                           
  1380                           ; BSR set to: 0
  1381                           ;MCAL_LAYER/Interrupt/mcal_external_interrupt.c: 417:         INT2_Interrupt_Handler = I
      +                          nterrupt_Handler;
  1382   001B7A  C080  F061         	movff	INT2_Set_Interrupt_Handler@Interrupt_Handler,_INT2_Interrupt_Handler
  1383   001B7E  C081  F062         	movff	INT2_Set_Interrupt_Handler@Interrupt_Handler+1,_INT2_Interrupt_Handler+1
  1384   001B82                     l3928:
  1385                           
  1386                           ; BSR set to: 0
  1387                           ;MCAL_LAYER/Interrupt/mcal_external_interrupt.c: 419:     return ret;
  1388   001B82  5182               	movf	INT2_Set_Interrupt_Handler@ret& (0+255),w,b
  1389   001B84                     
  1390                           ; BSR set to: 0
  1391   001B84  0012               	return		;funcret
  1392   001B86                     __end_of_INT2_Set_Interrupt_Handler:
  1393                           	callstack 0
  1394                           
  1395 ;; *************** function _INT1_Set_Interrupt_Handler *****************
  1396 ;; Defined at:
  1397 ;;		line 394 in file "MCAL_LAYER/Interrupt/mcal_external_interrupt.c"
  1398 ;; Parameters:    Size  Location     Type
  1399 ;;  Interrupt_Ha    2    0[BANK0 ] PTR FTN()void 
  1400 ;;		 -> i2_timer_increment(1), timer_increment(1), 
  1401 ;; Auto vars:     Size  Location     Type
  1402 ;;  ret             1    2[BANK0 ] unsigned char 
  1403 ;; Return value:  Size  Location     Type
  1404 ;;                  1    wreg      unsigned char 
  1405 ;; Registers used:
  1406 ;;		wreg, status,2, status,0
  1407 ;; Tracked objects:
  1408 ;;		On entry : 0/0
  1409 ;;		On exit  : 0/0
  1410 ;;		Unchanged: 0/0
  1411 ;; Data sizes:     COMRAM   BANK0   BANK1   BANK2   BANK3   BANK4   BANK5   BANK6   BANK7   BANK8   BANK9  BANK10  BANK1
      +1  BANK12  BANK13  BANK14  BANK15
  1412 ;;      Params:         0       2       0       0       0       0       0       0       0       0       0       0       
      +0       0       0       0       0
  1413 ;;      Locals:         0       1       0       0       0       0       0       0       0       0       0       0       
      +0       0       0       0       0
  1414 ;;      Temps:          0       0       0       0       0       0       0       0       0       0       0       0       
      +0       0       0       0       0
  1415 ;;      Totals:         0       3       0       0       0       0       0       0       0       0       0       0       
      +0       0       0       0       0
  1416 ;;Total ram usage:        3 bytes
  1417 ;; Hardware stack levels used: 1
  1418 ;; Hardware stack levels required when called: 10
  1419 ;; This function calls:
  1420 ;;		Nothing
  1421 ;; This function is called by:
  1422 ;;		_Interrupt_Set_Interrupt_Handler
  1423 ;; This function uses a non-reentrant model
  1424 ;;
  1425                           
  1426                           	psect	text9
  1427   001B86                     __ptext9:
  1428                           	callstack 0
  1429   001B86                     _INT1_Set_Interrupt_Handler:
  1430                           	callstack 17
  1431   001B86                     
  1432                           ;MCAL_LAYER/Interrupt/mcal_external_interrupt.c: 395:     Std_ReturnType ret = (Std_Retu
      +                          rnType)0X01;
  1433   001B86  0E01               	movlw	1
  1434   001B88  0100               	movlb	0	; () banked
  1435   001B8A  6F82               	movwf	INT1_Set_Interrupt_Handler@ret& (0+255),b
  1436   001B8C                     
  1437                           ; BSR set to: 0
  1438                           ;MCAL_LAYER/Interrupt/mcal_external_interrupt.c: 396:     if (((void*)0) == Interrupt_Ha
      +                          ndler) {
  1439   001B8C  5180               	movf	INT1_Set_Interrupt_Handler@Interrupt_Handler& (0+255),w,b
  1440   001B8E  1181               	iorwf	(INT1_Set_Interrupt_Handler@Interrupt_Handler+1)& (0+255),w,b
  1441   001B90  A4D8               	btfss	status,2,c
  1442   001B92  EFCD  F00D         	goto	u2731
  1443   001B96  EFCF  F00D         	goto	u2730
  1444   001B9A                     u2731:
  1445   001B9A  EFD3  F00D         	goto	l3914
  1446   001B9E                     u2730:
  1447   001B9E                     
  1448                           ; BSR set to: 0
  1449                           ;MCAL_LAYER/Interrupt/mcal_external_interrupt.c: 397:         ret = (Std_ReturnType)0X00
      +                          ;
  1450   001B9E  0E00               	movlw	0
  1451   001BA0  6F82               	movwf	INT1_Set_Interrupt_Handler@ret& (0+255),b
  1452                           
  1453                           ;MCAL_LAYER/Interrupt/mcal_external_interrupt.c: 398:     } else {
  1454   001BA2  EFD7  F00D         	goto	l3916
  1455   001BA6                     l3914:
  1456                           
  1457                           ; BSR set to: 0
  1458                           ;MCAL_LAYER/Interrupt/mcal_external_interrupt.c: 400:         INT1_Interrupt_Handler = I
      +                          nterrupt_Handler;
  1459   001BA6  C080  F063         	movff	INT1_Set_Interrupt_Handler@Interrupt_Handler,_INT1_Interrupt_Handler
  1460   001BAA  C081  F064         	movff	INT1_Set_Interrupt_Handler@Interrupt_Handler+1,_INT1_Interrupt_Handler+1
  1461   001BAE                     l3916:
  1462                           
  1463                           ; BSR set to: 0
  1464                           ;MCAL_LAYER/Interrupt/mcal_external_interrupt.c: 402:     return ret;
  1465   001BAE  5182               	movf	INT1_Set_Interrupt_Handler@ret& (0+255),w,b
  1466   001BB0                     
  1467                           ; BSR set to: 0
  1468   001BB0  0012               	return		;funcret
  1469   001BB2                     __end_of_INT1_Set_Interrupt_Handler:
  1470                           	callstack 0
  1471                           
  1472 ;; *************** function _INT0_Set_Interrupt_Handler *****************
  1473 ;; Defined at:
  1474 ;;		line 377 in file "MCAL_LAYER/Interrupt/mcal_external_interrupt.c"
  1475 ;; Parameters:    Size  Location     Type
  1476 ;;  Interrupt_Ha    2    0[BANK0 ] PTR FTN()void 
  1477 ;;		 -> i2_timer_increment(1), timer_increment(1), 
  1478 ;; Auto vars:     Size  Location     Type
  1479 ;;  ret             1    2[BANK0 ] unsigned char 
  1480 ;; Return value:  Size  Location     Type
  1481 ;;                  1    wreg      unsigned char 
  1482 ;; Registers used:
  1483 ;;		wreg, status,2, status,0
  1484 ;; Tracked objects:
  1485 ;;		On entry : 0/0
  1486 ;;		On exit  : 0/0
  1487 ;;		Unchanged: 0/0
  1488 ;; Data sizes:     COMRAM   BANK0   BANK1   BANK2   BANK3   BANK4   BANK5   BANK6   BANK7   BANK8   BANK9  BANK10  BANK1
      +1  BANK12  BANK13  BANK14  BANK15
  1489 ;;      Params:         0       2       0       0       0       0       0       0       0       0       0       0       
      +0       0       0       0       0
  1490 ;;      Locals:         0       1       0       0       0       0       0       0       0       0       0       0       
      +0       0       0       0       0
  1491 ;;      Temps:          0       0       0       0       0       0       0       0       0       0       0       0       
      +0       0       0       0       0
  1492 ;;      Totals:         0       3       0       0       0       0       0       0       0       0       0       0       
      +0       0       0       0       0
  1493 ;;Total ram usage:        3 bytes
  1494 ;; Hardware stack levels used: 1
  1495 ;; Hardware stack levels required when called: 10
  1496 ;; This function calls:
  1497 ;;		Nothing
  1498 ;; This function is called by:
  1499 ;;		_Interrupt_Set_Interrupt_Handler
  1500 ;; This function uses a non-reentrant model
  1501 ;;
  1502                           
  1503                           	psect	text10
  1504   001BB2                     __ptext10:
  1505                           	callstack 0
  1506   001BB2                     _INT0_Set_Interrupt_Handler:
  1507                           	callstack 17
  1508   001BB2                     
  1509                           ;MCAL_LAYER/Interrupt/mcal_external_interrupt.c: 378:     Std_ReturnType ret = (Std_Retu
      +                          rnType)0X01;
  1510   001BB2  0E01               	movlw	1
  1511   001BB4  0100               	movlb	0	; () banked
  1512   001BB6  6F82               	movwf	INT0_Set_Interrupt_Handler@ret& (0+255),b
  1513   001BB8                     
  1514                           ; BSR set to: 0
  1515                           ;MCAL_LAYER/Interrupt/mcal_external_interrupt.c: 379:     if (((void*)0) == Interrupt_Ha
      +                          ndler) {
  1516   001BB8  5180               	movf	INT0_Set_Interrupt_Handler@Interrupt_Handler& (0+255),w,b
  1517   001BBA  1181               	iorwf	(INT0_Set_Interrupt_Handler@Interrupt_Handler+1)& (0+255),w,b
  1518   001BBC  A4D8               	btfss	status,2,c
  1519   001BBE  EFE3  F00D         	goto	u2721
  1520   001BC2  EFE5  F00D         	goto	u2720
  1521   001BC6                     u2721:
  1522   001BC6  EFE9  F00D         	goto	l3902
  1523   001BCA                     u2720:
  1524   001BCA                     
  1525                           ; BSR set to: 0
  1526                           ;MCAL_LAYER/Interrupt/mcal_external_interrupt.c: 380:         ret = (Std_ReturnType)0X00
      +                          ;
  1527   001BCA  0E00               	movlw	0
  1528   001BCC  6F82               	movwf	INT0_Set_Interrupt_Handler@ret& (0+255),b
  1529                           
  1530                           ;MCAL_LAYER/Interrupt/mcal_external_interrupt.c: 381:     } else {
  1531   001BCE  EFED  F00D         	goto	l3904
  1532   001BD2                     l3902:
  1533                           
  1534                           ; BSR set to: 0
  1535                           ;MCAL_LAYER/Interrupt/mcal_external_interrupt.c: 383:         INT0_Interrupt_Handler = I
      +                          nterrupt_Handler;
  1536   001BD2  C080  F065         	movff	INT0_Set_Interrupt_Handler@Interrupt_Handler,_INT0_Interrupt_Handler
  1537   001BD6  C081  F066         	movff	INT0_Set_Interrupt_Handler@Interrupt_Handler+1,_INT0_Interrupt_Handler+1
  1538   001BDA                     l3904:
  1539                           
  1540                           ; BSR set to: 0
  1541                           ;MCAL_LAYER/Interrupt/mcal_external_interrupt.c: 385:     return ret;
  1542   001BDA  5182               	movf	INT0_Set_Interrupt_Handler@ret& (0+255),w,b
  1543   001BDC                     
  1544                           ; BSR set to: 0
  1545   001BDC  0012               	return		;funcret
  1546   001BDE                     __end_of_INT0_Set_Interrupt_Handler:
  1547                           	callstack 0
  1548                           
  1549 ;; *************** function _Interrupt_INTx_Priority_Init *****************
  1550 ;; Defined at:
  1551 ;;		line 251 in file "MCAL_LAYER/Interrupt/mcal_external_interrupt.c"
  1552 ;; Parameters:    Size  Location     Type
  1553 ;;  obj             1    0[BANK0 ] PTR const struct .
  1554 ;;		 -> clock(6), 
  1555 ;; Auto vars:     Size  Location     Type
  1556 ;;  ret             1    3[BANK0 ] unsigned char 
  1557 ;; Return value:  Size  Location     Type
  1558 ;;                  1    wreg      unsigned char 
  1559 ;; Registers used:
  1560 ;;		wreg, fsr2l, fsr2h, status,2, status,0
  1561 ;; Tracked objects:
  1562 ;;		On entry : 0/0
  1563 ;;		On exit  : 0/0
  1564 ;;		Unchanged: 0/0
  1565 ;; Data sizes:     COMRAM   BANK0   BANK1   BANK2   BANK3   BANK4   BANK5   BANK6   BANK7   BANK8   BANK9  BANK10  BANK1
      +1  BANK12  BANK13  BANK14  BANK15
  1566 ;;      Params:         0       1       0       0       0       0       0       0       0       0       0       0       
      +0       0       0       0       0
  1567 ;;      Locals:         0       1       0       0       0       0       0       0       0       0       0       0       
      +0       0       0       0       0
  1568 ;;      Temps:          0       2       0       0       0       0       0       0       0       0       0       0       
      +0       0       0       0       0
  1569 ;;      Totals:         0       4       0       0       0       0       0       0       0       0       0       0       
      +0       0       0       0       0
  1570 ;;Total ram usage:        4 bytes
  1571 ;; Hardware stack levels used: 1
  1572 ;; Hardware stack levels required when called: 10
  1573 ;; This function calls:
  1574 ;;		Nothing
  1575 ;; This function is called by:
  1576 ;;		_Interrupt_INTx_Init
  1577 ;; This function uses a non-reentrant model
  1578 ;;
  1579                           
  1580                           	psect	text11
  1581   0014D8                     __ptext11:
  1582                           	callstack 0
  1583   0014D8                     _Interrupt_INTx_Priority_Init:
  1584                           	callstack 18
  1585   0014D8                     
  1586                           ;MCAL_LAYER/Interrupt/mcal_external_interrupt.c: 252:     Std_ReturnType ret = (Std_Retu
      +                          rnType)0X01;
  1587   0014D8  0E01               	movlw	1
  1588   0014DA  0100               	movlb	0	; () banked
  1589   0014DC  6F83               	movwf	Interrupt_INTx_Priority_Init@ret& (0+255),b
  1590                           
  1591                           ;MCAL_LAYER/Interrupt/mcal_external_interrupt.c: 254:     if (((void*)0) == obj) {
  1592   0014DE  5180               	movf	Interrupt_INTx_Priority_Init@obj& (0+255),w,b
  1593   0014E0  A4D8               	btfss	status,2,c
  1594   0014E2  EF75  F00A         	goto	u2861
  1595   0014E6  EF77  F00A         	goto	u2860
  1596   0014EA                     u2861:
  1597   0014EA  EFA1  F00A         	goto	l4034
  1598   0014EE                     u2860:
  1599   0014EE                     l4022:
  1600                           
  1601                           ; BSR set to: 0
  1602                           ;MCAL_LAYER/Interrupt/mcal_external_interrupt.c: 255:         ret = (Std_ReturnType)0X00
      +                          ;
  1603   0014EE  0E00               	movlw	0
  1604   0014F0  6F83               	movwf	Interrupt_INTx_Priority_Init@ret& (0+255),b
  1605                           
  1606                           ;MCAL_LAYER/Interrupt/mcal_external_interrupt.c: 256:     } else {
  1607   0014F2  EFBB  F00A         	goto	l4036
  1608   0014F6                     l4024:
  1609                           
  1610                           ; BSR set to: 0
  1611                           ;MCAL_LAYER/Interrupt/mcal_external_interrupt.c: 261:                 if (obj->Source ==
      +                           INTERRUPT_EXTERNAL_INT1) {
  1612   0014F6  5180               	movf	Interrupt_INTx_Priority_Init@obj& (0+255),w,b
  1613   0014F8  6ED9               	movwf	fsr2l,c
  1614   0014FA  6ADA               	clrf	fsr2h,c
  1615   0014FC  0E03               	movlw	3
  1616   0014FE  26D9               	addwf	fsr2l,f,c
  1617   001500  04DE               	decf	postinc2,w,c
  1618   001502  A4D8               	btfss	status,2,c
  1619   001504  EF86  F00A         	goto	u2871
  1620   001508  EF88  F00A         	goto	u2870
  1621   00150C                     u2871:
  1622   00150C  EF8B  F00A         	goto	l550
  1623   001510                     u2870:
  1624   001510                     
  1625                           ; BSR set to: 0
  1626                           ;MCAL_LAYER/Interrupt/mcal_external_interrupt.c: 262:                     (INTCON3bits.I
      +                          NT1IP = 1);
  1627   001510  8CF0               	bsf	240,6,c	;volatile
  1628                           
  1629                           ;MCAL_LAYER/Interrupt/mcal_external_interrupt.c: 263:                 } else {
  1630   001512  EFBB  F00A         	goto	l4036
  1631   001516                     l550:
  1632                           
  1633                           ; BSR set to: 0
  1634                           ;MCAL_LAYER/Interrupt/mcal_external_interrupt.c: 264:                     (INTCON3bits.I
      +                          NT2IP = 1);
  1635   001516  8EF0               	bsf	240,7,c	;volatile
  1636   001518  EFBB  F00A         	goto	l4036
  1637   00151C                     l4028:
  1638                           
  1639                           ; BSR set to: 0
  1640                           ;MCAL_LAYER/Interrupt/mcal_external_interrupt.c: 269:                 if (obj->Source ==
      +                           INTERRUPT_EXTERNAL_INT1) {
  1641   00151C  5180               	movf	Interrupt_INTx_Priority_Init@obj& (0+255),w,b
  1642   00151E  6ED9               	movwf	fsr2l,c
  1643   001520  6ADA               	clrf	fsr2h,c
  1644   001522  0E03               	movlw	3
  1645   001524  26D9               	addwf	fsr2l,f,c
  1646   001526  04DE               	decf	postinc2,w,c
  1647   001528  A4D8               	btfss	status,2,c
  1648   00152A  EF99  F00A         	goto	u2881
  1649   00152E  EF9B  F00A         	goto	u2880
  1650   001532                     u2881:
  1651   001532  EF9E  F00A         	goto	l554
  1652   001536                     u2880:
  1653   001536                     
  1654                           ; BSR set to: 0
  1655                           ;MCAL_LAYER/Interrupt/mcal_external_interrupt.c: 270:                     (INTCON3bits.I
      +                          NT1IP = 0);
  1656   001536  9CF0               	bcf	240,6,c	;volatile
  1657                           
  1658                           ;MCAL_LAYER/Interrupt/mcal_external_interrupt.c: 271:                 } else {
  1659   001538  EFBB  F00A         	goto	l4036
  1660   00153C                     l554:
  1661                           
  1662                           ; BSR set to: 0
  1663                           ;MCAL_LAYER/Interrupt/mcal_external_interrupt.c: 272:                     (INTCON3bits.I
      +                          NT2IP = 0);
  1664   00153C  9EF0               	bcf	240,7,c	;volatile
  1665   00153E  EFBB  F00A         	goto	l4036
  1666   001542                     l4034:
  1667                           
  1668                           ; BSR set to: 0
  1669   001542  5180               	movf	Interrupt_INTx_Priority_Init@obj& (0+255),w,b
  1670   001544  6ED9               	movwf	fsr2l,c
  1671   001546  6ADA               	clrf	fsr2h,c
  1672   001548  0E04               	movlw	4
  1673   00154A  26D9               	addwf	fsr2l,f,c
  1674   00154C  50DF               	movf	indf2,w,c
  1675   00154E  6F81               	movwf	??_Interrupt_INTx_Priority_Init& (0+255),b
  1676   001550  6B82               	clrf	(??_Interrupt_INTx_Priority_Init+1)& (0+255),b
  1677                           
  1678                           ; Switch on 2 bytes has been partitioned into a top level switch of size 1, and 1 sub-sw
      +                          itches
  1679                           ; Switch size 1, requested type "simple"
  1680                           ; Number of cases is 1, Range of values is 0 to 0
  1681                           ; switch strategies available:
  1682                           ; Name         Instructions Cycles
  1683                           ; simple_byte            4     3 (average)
  1684                           ;	Chosen strategy is simple_byte
  1685   001552  5182               	movf	(??_Interrupt_INTx_Priority_Init+1)& (0+255),w,b
  1686   001554  0A00               	xorlw	0	; case 0
  1687   001556  B4D8               	btfsc	status,2,c
  1688   001558  EFB0  F00A         	goto	l4948
  1689   00155C  EF77  F00A         	goto	l4022
  1690   001560                     l4948:
  1691                           
  1692                           ; BSR set to: 0
  1693                           ; Switch size 1, requested type "simple"
  1694                           ; Number of cases is 2, Range of values is 0 to 1
  1695                           ; switch strategies available:
  1696                           ; Name         Instructions Cycles
  1697                           ; simple_byte            7     4 (average)
  1698                           ;	Chosen strategy is simple_byte
  1699   001560  5181               	movf	??_Interrupt_INTx_Priority_Init& (0+255),w,b
  1700   001562  0A00               	xorlw	0	; case 0
  1701   001564  B4D8               	btfsc	status,2,c
  1702   001566  EF8E  F00A         	goto	l4028
  1703   00156A  0A01               	xorlw	1	; case 1
  1704   00156C  B4D8               	btfsc	status,2,c
  1705   00156E  EF7B  F00A         	goto	l4024
  1706   001572  EF77  F00A         	goto	l4022
  1707   001576                     l4036:
  1708                           
  1709                           ; BSR set to: 0
  1710                           ;MCAL_LAYER/Interrupt/mcal_external_interrupt.c: 280:     return ret;
  1711   001576  5183               	movf	Interrupt_INTx_Priority_Init@ret& (0+255),w,b
  1712   001578                     
  1713                           ; BSR set to: 0
  1714   001578  0012               	return		;funcret
  1715   00157A                     __end_of_Interrupt_INTx_Priority_Init:
  1716                           	callstack 0
  1717                           
  1718 ;; *************** function _Interrupt_INTx_Pin_Init *****************
  1719 ;; Defined at:
  1720 ;;		line 331 in file "MCAL_LAYER/Interrupt/mcal_external_interrupt.c"
  1721 ;; Parameters:    Size  Location     Type
  1722 ;;  obj             1   11[BANK0 ] PTR const struct .
  1723 ;;		 -> clock(6), 
  1724 ;; Auto vars:     Size  Location     Type
  1725 ;;  ret             1   12[BANK0 ] unsigned char 
  1726 ;; Return value:  Size  Location     Type
  1727 ;;                  1    wreg      unsigned char 
  1728 ;; Registers used:
  1729 ;;		wreg, fsr2l, fsr2h, status,2, status,0, prodl, prodh, cstack
  1730 ;; Tracked objects:
  1731 ;;		On entry : 0/0
  1732 ;;		On exit  : 0/0
  1733 ;;		Unchanged: 0/0
  1734 ;; Data sizes:     COMRAM   BANK0   BANK1   BANK2   BANK3   BANK4   BANK5   BANK6   BANK7   BANK8   BANK9  BANK10  BANK1
      +1  BANK12  BANK13  BANK14  BANK15
  1735 ;;      Params:         0       1       0       0       0       0       0       0       0       0       0       0       
      +0       0       0       0       0
  1736 ;;      Locals:         0       1       0       0       0       0       0       0       0       0       0       0       
      +0       0       0       0       0
  1737 ;;      Temps:          0       0       0       0       0       0       0       0       0       0       0       0       
      +0       0       0       0       0
  1738 ;;      Totals:         0       2       0       0       0       0       0       0       0       0       0       0       
      +0       0       0       0       0
  1739 ;;Total ram usage:        2 bytes
  1740 ;; Hardware stack levels used: 1
  1741 ;; Hardware stack levels required when called: 12
  1742 ;; This function calls:
  1743 ;;		_gpio_pin_initialize
  1744 ;; This function is called by:
  1745 ;;		_Interrupt_INTx_Init
  1746 ;; This function uses a non-reentrant model
  1747 ;;
  1748                           
  1749                           	psect	text12
  1750   001BDE                     __ptext12:
  1751                           	callstack 0
  1752   001BDE                     _Interrupt_INTx_Pin_Init:
  1753                           	callstack 16
  1754   001BDE                     
  1755                           ;MCAL_LAYER/Interrupt/mcal_external_interrupt.c: 333:     if (((void*)0) == obj) {
  1756   001BDE  0100               	movlb	0	; () banked
  1757   001BE0  518B               	movf	Interrupt_INTx_Pin_Init@obj& (0+255),w,b
  1758   001BE2  A4D8               	btfss	status,2,c
  1759   001BE4  EFF6  F00D         	goto	u2891
  1760   001BE8  EFF8  F00D         	goto	u2890
  1761   001BEC                     u2891:
  1762   001BEC  EFFC  F00D         	goto	l4048
  1763   001BF0                     u2890:
  1764   001BF0                     
  1765                           ; BSR set to: 0
  1766                           ;MCAL_LAYER/Interrupt/mcal_external_interrupt.c: 334:         ret = (Std_ReturnType)0X00
      +                          ;
  1767   001BF0  0E00               	movlw	0
  1768   001BF2  6F8C               	movwf	Interrupt_INTx_Pin_Init@ret& (0+255),b
  1769                           
  1770                           ;MCAL_LAYER/Interrupt/mcal_external_interrupt.c: 335:     } else {
  1771   001BF4  EF03  F00E         	goto	l4050
  1772   001BF8                     l4048:
  1773                           
  1774                           ; BSR set to: 0
  1775                           ;MCAL_LAYER/Interrupt/mcal_external_interrupt.c: 337:         ret = gpio_pin_initialize(
      +                          &(obj->mcu_pin));
  1776   001BF8  518B               	movf	Interrupt_INTx_Pin_Init@obj& (0+255),w,b
  1777   001BFA  0F05               	addlw	5
  1778   001BFC  6F88               	movwf	gpio_pin_initialize@_pin_config& (0+255),b
  1779   001BFE  ECDA  F00C         	call	_gpio_pin_initialize	;wreg free
  1780   001C02  0100               	movlb	0	; () banked
  1781   001C04  6F8C               	movwf	Interrupt_INTx_Pin_Init@ret& (0+255),b
  1782   001C06                     l4050:
  1783                           
  1784                           ; BSR set to: 0
  1785                           ;MCAL_LAYER/Interrupt/mcal_external_interrupt.c: 339:     return ret;
  1786   001C06  518C               	movf	Interrupt_INTx_Pin_Init@ret& (0+255),w,b
  1787   001C08                     
  1788                           ; BSR set to: 0
  1789   001C08  0012               	return		;funcret
  1790   001C0A                     __end_of_Interrupt_INTx_Pin_Init:
  1791                           	callstack 0
  1792                           
  1793 ;; *************** function _gpio_pin_initialize *****************
  1794 ;; Defined at:
  1795 ;;		line 101 in file "MCAL_Layer/GPIO/hal_gpio.c"
  1796 ;; Parameters:    Size  Location     Type
  1797 ;;  _pin_config     1    8[BANK0 ] PTR const struct .
  1798 ;;		 -> clock(6), segment$segment_pins(4), segment(5), Relay_initialize@pin_obj(1), 
  1799 ;;		 -> led_intialize@pin_obj(1), 
  1800 ;; Auto vars:     Size  Location     Type
  1801 ;;  ret             1   10[BANK0 ] unsigned char 
  1802 ;; Return value:  Size  Location     Type
  1803 ;;                  1    wreg      unsigned char 
  1804 ;; Registers used:
  1805 ;;		wreg, fsr2l, fsr2h, status,2, status,0, prodl, prodh, cstack
  1806 ;; Tracked objects:
  1807 ;;		On entry : 0/0
  1808 ;;		On exit  : 0/0
  1809 ;;		Unchanged: 0/0
  1810 ;; Data sizes:     COMRAM   BANK0   BANK1   BANK2   BANK3   BANK4   BANK5   BANK6   BANK7   BANK8   BANK9  BANK10  BANK1
      +1  BANK12  BANK13  BANK14  BANK15
  1811 ;;      Params:         0       1       0       0       0       0       0       0       0       0       0       0       
      +0       0       0       0       0
  1812 ;;      Locals:         0       1       0       0       0       0       0       0       0       0       0       0       
      +0       0       0       0       0
  1813 ;;      Temps:          0       1       0       0       0       0       0       0       0       0       0       0       
      +0       0       0       0       0
  1814 ;;      Totals:         0       3       0       0       0       0       0       0       0       0       0       0       
      +0       0       0       0       0
  1815 ;;Total ram usage:        3 bytes
  1816 ;; Hardware stack levels used: 1
  1817 ;; Hardware stack levels required when called: 11
  1818 ;; This function calls:
  1819 ;;		_gpio_pin_direction_intialize
  1820 ;;		_gpio_pin_write_logic
  1821 ;; This function is called by:
  1822 ;;		_led_intialize
  1823 ;;		_Seven_Segm_initailize
  1824 ;;		_Interrupt_INTx_Pin_Init
  1825 ;;		_button_intialize
  1826 ;;		_lcd_4bit_initailize
  1827 ;;		_lcd_8bit_initailize
  1828 ;;		_Dc_motor_initialize
  1829 ;;		_keypad_initialize
  1830 ;;		_Relay_initialize
  1831 ;; This function uses a non-reentrant model
  1832 ;;
  1833                           
  1834                           	psect	text13
  1835   0019B4                     __ptext13:
  1836                           	callstack 0
  1837   0019B4                     _gpio_pin_initialize:
  1838                           	callstack 16
  1839   0019B4                     
  1840                           ;MCAL_Layer/GPIO/hal_gpio.c: 102:     Std_ReturnType ret = (Std_ReturnType)0X01;
  1841   0019B4  0E01               	movlw	1
  1842   0019B6  0100               	movlb	0	; () banked
  1843   0019B8  6F8A               	movwf	gpio_pin_initialize@ret& (0+255),b
  1844                           
  1845                           ;MCAL_Layer/GPIO/hal_gpio.c: 103:     if (((void*)0) == _pin_config || _pin_config->pin 
      +                          > 8 - 1) {
  1846   0019BA  5188               	movf	gpio_pin_initialize@_pin_config& (0+255),w,b
  1847   0019BC  B4D8               	btfsc	status,2,c
  1848   0019BE  EFE3  F00C         	goto	u2701
  1849   0019C2  EFE5  F00C         	goto	u2700
  1850   0019C6                     u2701:
  1851   0019C6  EFF5  F00C         	goto	l3888
  1852   0019CA                     u2700:
  1853   0019CA                     
  1854                           ; BSR set to: 0
  1855   0019CA  5188               	movf	gpio_pin_initialize@_pin_config& (0+255),w,b
  1856   0019CC  6ED9               	movwf	fsr2l,c
  1857   0019CE  6ADA               	clrf	fsr2h,c
  1858   0019D0  30DF               	rrcf	223,w,c
  1859   0019D2  32E8               	rrcf	wreg,f,c
  1860   0019D4  32E8               	rrcf	wreg,f,c
  1861   0019D6  0B07               	andlw	7
  1862   0019D8  6F89               	movwf	??_gpio_pin_initialize& (0+255),b
  1863   0019DA  0E07               	movlw	7
  1864   0019DC  6589               	cpfsgt	??_gpio_pin_initialize& (0+255),b
  1865   0019DE  EFF3  F00C         	goto	u2711
  1866   0019E2  EFF5  F00C         	goto	u2710
  1867   0019E6                     u2711:
  1868   0019E6  EFF9  F00C         	goto	l3890
  1869   0019EA                     u2710:
  1870   0019EA                     l3888:
  1871                           
  1872                           ; BSR set to: 0
  1873                           ;MCAL_Layer/GPIO/hal_gpio.c: 104:         ret = (Std_ReturnType)0X00;
  1874   0019EA  0E00               	movlw	0
  1875   0019EC  6F8A               	movwf	gpio_pin_initialize@ret& (0+255),b
  1876                           
  1877                           ;MCAL_Layer/GPIO/hal_gpio.c: 105:     } else {
  1878   0019EE  EF09  F00D         	goto	l3892
  1879   0019F2                     l3890:
  1880                           
  1881                           ; BSR set to: 0
  1882                           ;MCAL_Layer/GPIO/hal_gpio.c: 106:         gpio_pin_direction_intialize(_pin_config);
  1883   0019F2  C088  F080         	movff	gpio_pin_initialize@_pin_config,gpio_pin_direction_intialize@_pin_config
  1884   0019F6  EC0B  F008         	call	_gpio_pin_direction_intialize	;wreg free
  1885                           
  1886                           ;MCAL_Layer/GPIO/hal_gpio.c: 107:         gpio_pin_write_logic(_pin_config, _pin_config-
      +                          >logic);
  1887   0019FA  C088  F080         	movff	gpio_pin_initialize@_pin_config,gpio_pin_write_logic@_pin_config
  1888   0019FE  0100               	movlb	0	; () banked
  1889   001A00  5188               	movf	gpio_pin_initialize@_pin_config& (0+255),w,b
  1890   001A02  6ED9               	movwf	fsr2l,c
  1891   001A04  6ADA               	clrf	fsr2h,c
  1892   001A06  0E00               	movlw	0
  1893   001A08  BEDF               	btfsc	indf2,7,c
  1894   001A0A  0E01               	movlw	1
  1895   001A0C  6F81               	movwf	gpio_pin_write_logic@logic_& (0+255),b
  1896   001A0E  EC30  F009         	call	_gpio_pin_write_logic	;wreg free
  1897   001A12                     l3892:
  1898                           
  1899                           ;MCAL_Layer/GPIO/hal_gpio.c: 110:     return ret;
  1900   001A12  0100               	movlb	0	; () banked
  1901   001A14  518A               	movf	gpio_pin_initialize@ret& (0+255),w,b
  1902   001A16                     
  1903                           ; BSR set to: 0
  1904   001A16  0012               	return		;funcret
  1905   001A18                     __end_of_gpio_pin_initialize:
  1906                           	callstack 0
  1907                           
  1908 ;; *************** function _gpio_pin_write_logic *****************
  1909 ;; Defined at:
  1910 ;;		line 55 in file "MCAL_Layer/GPIO/hal_gpio.c"
  1911 ;; Parameters:    Size  Location     Type
  1912 ;;  _pin_config     1    0[BANK0 ] PTR const struct .
  1913 ;;		 -> clock(6), segment$segment_pins(4), segment(5), Relay_off@pin_obj(1), 
  1914 ;;		 -> Relay_on@pin_obj(1), Relay_initialize@pin_obj(1), led_turn_off@pin_obj(1), led_turn_on@pin_obj(1), 
  1915 ;;		 -> led_intialize@pin_obj(1), 
  1916 ;;  logic_          1    1[BANK0 ] enum E3402
  1917 ;; Auto vars:     Size  Location     Type
  1918 ;;  ret             1    7[BANK0 ] unsigned char 
  1919 ;; Return value:  Size  Location     Type
  1920 ;;                  1    wreg      unsigned char 
  1921 ;; Registers used:
  1922 ;;		wreg, fsr2l, fsr2h, status,2, status,0, prodl, prodh
  1923 ;; Tracked objects:
  1924 ;;		On entry : 0/0
  1925 ;;		On exit  : 0/0
  1926 ;;		Unchanged: 0/0
  1927 ;; Data sizes:     COMRAM   BANK0   BANK1   BANK2   BANK3   BANK4   BANK5   BANK6   BANK7   BANK8   BANK9  BANK10  BANK1
      +1  BANK12  BANK13  BANK14  BANK15
  1928 ;;      Params:         0       2       0       0       0       0       0       0       0       0       0       0       
      +0       0       0       0       0
  1929 ;;      Locals:         0       1       0       0       0       0       0       0       0       0       0       0       
      +0       0       0       0       0
  1930 ;;      Temps:          0       5       0       0       0       0       0       0       0       0       0       0       
      +0       0       0       0       0
  1931 ;;      Totals:         0       8       0       0       0       0       0       0       0       0       0       0       
      +0       0       0       0       0
  1932 ;;Total ram usage:        8 bytes
  1933 ;; Hardware stack levels used: 1
  1934 ;; Hardware stack levels required when called: 10
  1935 ;; This function calls:
  1936 ;;		Nothing
  1937 ;; This function is called by:
  1938 ;;		_Seven_Segm_Display_Number
  1939 ;;		_gpio_pin_initialize
  1940 ;;		_lcd_4bit_send_command
  1941 ;;		_lcd_4bit_send_char_data
  1942 ;;		_lcd_8bit_send_command
  1943 ;;		_lcd_8bit_send_char_data
  1944 ;;		_lcd_8bits_send_enable
  1945 ;;		_lcd_4bits_send_enable
  1946 ;;		_lcd_4bits_command
  1947 ;;		_Dc_motor_rotate_right
  1948 ;;		_Dc_motor_rotate_left
  1949 ;;		_Dc_motor_stop
  1950 ;;		_keypad_get_value
  1951 ;;		_led_turn_on
  1952 ;;		_led_turn_off
  1953 ;;		_Relay_on
  1954 ;;		_Relay_off
  1955 ;; This function uses a non-reentrant model
  1956 ;;
  1957                           
  1958                           	psect	text14
  1959   001260                     __ptext14:
  1960                           	callstack 0
  1961   001260                     _gpio_pin_write_logic:
  1962                           	callstack 19
  1963   001260                     
  1964                           ;MCAL_Layer/GPIO/hal_gpio.c: 56:     Std_ReturnType ret = (Std_ReturnType)0X01;
  1965   001260  0E01               	movlw	1
  1966   001262  0100               	movlb	0	; () banked
  1967   001264  6F87               	movwf	gpio_pin_write_logic@ret& (0+255),b
  1968                           
  1969                           ;MCAL_Layer/GPIO/hal_gpio.c: 57:     if (((void*)0) == _pin_config || _pin_config->pin >
      +                           8 - 1) {
  1970   001266  5180               	movf	gpio_pin_write_logic@_pin_config& (0+255),w,b
  1971   001268  B4D8               	btfsc	status,2,c
  1972   00126A  EF39  F009         	goto	u2601
  1973   00126E  EF3B  F009         	goto	u2600
  1974   001272                     u2601:
  1975   001272  EF4B  F009         	goto	l3842
  1976   001276                     u2600:
  1977   001276                     
  1978                           ; BSR set to: 0
  1979   001276  5180               	movf	gpio_pin_write_logic@_pin_config& (0+255),w,b
  1980   001278  6ED9               	movwf	fsr2l,c
  1981   00127A  6ADA               	clrf	fsr2h,c
  1982   00127C  30DF               	rrcf	223,w,c
  1983   00127E  32E8               	rrcf	wreg,f,c
  1984   001280  32E8               	rrcf	wreg,f,c
  1985   001282  0B07               	andlw	7
  1986   001284  6F82               	movwf	??_gpio_pin_write_logic& (0+255),b
  1987   001286  0E07               	movlw	7
  1988   001288  6582               	cpfsgt	??_gpio_pin_write_logic& (0+255),b
  1989   00128A  EF49  F009         	goto	u2611
  1990   00128E  EF4B  F009         	goto	u2610
  1991   001292                     u2611:
  1992   001292  EFA4  F009         	goto	l3852
  1993   001296                     u2610:
  1994   001296                     l3842:
  1995                           
  1996                           ; BSR set to: 0
  1997                           ;MCAL_Layer/GPIO/hal_gpio.c: 58:         ret = (Std_ReturnType)0X00;
  1998   001296  0E00               	movlw	0
  1999   001298  6F87               	movwf	gpio_pin_write_logic@ret& (0+255),b
  2000                           
  2001                           ;MCAL_Layer/GPIO/hal_gpio.c: 59:     } else {
  2002   00129A  EFB9  F009         	goto	l3854
  2003   00129E                     l3844:
  2004                           
  2005                           ; BSR set to: 0
  2006                           ;MCAL_Layer/GPIO/hal_gpio.c: 63:                 (*lat_registers[_pin_config->port] |= (
      +                          (uint8)1 << _pin_config->pin));
  2007   00129E  5180               	movf	gpio_pin_write_logic@_pin_config& (0+255),w,b
  2008   0012A0  6ED9               	movwf	fsr2l,c
  2009   0012A2  6ADA               	clrf	fsr2h,c
  2010   0012A4  30DF               	rrcf	223,w,c
  2011   0012A6  32E8               	rrcf	wreg,f,c
  2012   0012A8  32E8               	rrcf	wreg,f,c
  2013   0012AA  0B07               	andlw	7
  2014   0012AC  6F82               	movwf	??_gpio_pin_write_logic& (0+255),b
  2015   0012AE  0E01               	movlw	1
  2016   0012B0  6F83               	movwf	(??_gpio_pin_write_logic+1)& (0+255),b
  2017   0012B2  2B82               	incf	??_gpio_pin_write_logic& (0+255),f,b
  2018   0012B4  EF5E  F009         	goto	u2624
  2019   0012B8                     u2625:
  2020   0012B8  90D8               	bcf	status,0,c
  2021   0012BA  3783               	rlcf	(??_gpio_pin_write_logic+1)& (0+255),f,b
  2022   0012BC                     u2624:
  2023   0012BC  2F82               	decfsz	??_gpio_pin_write_logic& (0+255),f,b
  2024   0012BE  EF5C  F009         	goto	u2625
  2025   0012C2  0100               	movlb	0	; () banked
  2026   0012C4  5180               	movf	gpio_pin_write_logic@_pin_config& (0+255),w,b
  2027   0012C6  6ED9               	movwf	fsr2l,c
  2028   0012C8  6ADA               	clrf	fsr2h,c
  2029   0012CA  50DF               	movf	223,w,c
  2030   0012CC  0B07               	andlw	7
  2031   0012CE  0D02               	mullw	2
  2032   0012D0  50F3               	movf	243,w,c
  2033   0012D2  0F0B               	addlw	low _lat_registers
  2034   0012D4  6ED9               	movwf	fsr2l,c
  2035   0012D6  6ADA               	clrf	fsr2h,c
  2036   0012D8  CFDE F084          	movff	postinc2,??_gpio_pin_write_logic+2
  2037   0012DC  CFDD F085          	movff	postdec2,??_gpio_pin_write_logic+3
  2038   0012E0  C084  FFD9         	movff	??_gpio_pin_write_logic+2,fsr2l
  2039   0012E4  C085  FFDA         	movff	??_gpio_pin_write_logic+3,fsr2h
  2040   0012E8  5183               	movf	(??_gpio_pin_write_logic+1)& (0+255),w,b
  2041   0012EA  12DF               	iorwf	indf2,f,c
  2042                           
  2043                           ;MCAL_Layer/GPIO/hal_gpio.c: 64:                 break;
  2044   0012EC  EFB9  F009         	goto	l3854
  2045   0012F0                     l3846:
  2046                           
  2047                           ; BSR set to: 0
  2048                           ;MCAL_Layer/GPIO/hal_gpio.c: 67:                 (*lat_registers[_pin_config->port] &= ~
      +                          ((uint8)1 << _pin_config->pin));
  2049   0012F0  5180               	movf	gpio_pin_write_logic@_pin_config& (0+255),w,b
  2050   0012F2  6ED9               	movwf	fsr2l,c
  2051   0012F4  6ADA               	clrf	fsr2h,c
  2052   0012F6  30DF               	rrcf	223,w,c
  2053   0012F8  32E8               	rrcf	wreg,f,c
  2054   0012FA  32E8               	rrcf	wreg,f,c
  2055   0012FC  0B07               	andlw	7
  2056   0012FE  6F82               	movwf	??_gpio_pin_write_logic& (0+255),b
  2057   001300  0E01               	movlw	1
  2058   001302  6F83               	movwf	(??_gpio_pin_write_logic+1)& (0+255),b
  2059   001304  2B82               	incf	??_gpio_pin_write_logic& (0+255),f,b
  2060   001306  EF87  F009         	goto	u2634
  2061   00130A                     u2635:
  2062   00130A  90D8               	bcf	status,0,c
  2063   00130C  3783               	rlcf	(??_gpio_pin_write_logic+1)& (0+255),f,b
  2064   00130E                     u2634:
  2065   00130E  2F82               	decfsz	??_gpio_pin_write_logic& (0+255),f,b
  2066   001310  EF85  F009         	goto	u2635
  2067   001314  0100               	movlb	0	; () banked
  2068   001316  5183               	movf	(??_gpio_pin_write_logic+1)& (0+255),w,b
  2069   001318  0AFF               	xorlw	255
  2070   00131A  6F84               	movwf	(??_gpio_pin_write_logic+2)& (0+255),b
  2071   00131C  5180               	movf	gpio_pin_write_logic@_pin_config& (0+255),w,b
  2072   00131E  6ED9               	movwf	fsr2l,c
  2073   001320  6ADA               	clrf	fsr2h,c
  2074   001322  50DF               	movf	223,w,c
  2075   001324  0B07               	andlw	7
  2076   001326  0D02               	mullw	2
  2077   001328  50F3               	movf	243,w,c
  2078   00132A  0F0B               	addlw	low _lat_registers
  2079   00132C  6ED9               	movwf	fsr2l,c
  2080   00132E  6ADA               	clrf	fsr2h,c
  2081   001330  CFDE F085          	movff	postinc2,??_gpio_pin_write_logic+3
  2082   001334  CFDD F086          	movff	postdec2,??_gpio_pin_write_logic+4
  2083   001338  C085  FFD9         	movff	??_gpio_pin_write_logic+3,fsr2l
  2084   00133C  C086  FFDA         	movff	??_gpio_pin_write_logic+4,fsr2h
  2085   001340  5184               	movf	(??_gpio_pin_write_logic+2)& (0+255),w,b
  2086   001342  16DF               	andwf	indf2,f,c
  2087                           
  2088                           ;MCAL_Layer/GPIO/hal_gpio.c: 68:                 break;
  2089   001344  EFB9  F009         	goto	l3854
  2090   001348                     l3852:
  2091                           
  2092                           ; BSR set to: 0
  2093   001348  5181               	movf	gpio_pin_write_logic@logic_& (0+255),w,b
  2094   00134A  6F82               	movwf	??_gpio_pin_write_logic& (0+255),b
  2095   00134C  6B83               	clrf	(??_gpio_pin_write_logic+1)& (0+255),b
  2096                           
  2097                           ; Switch on 2 bytes has been partitioned into a top level switch of size 1, and 1 sub-sw
      +                          itches
  2098                           ; Switch size 1, requested type "simple"
  2099                           ; Number of cases is 1, Range of values is 0 to 0
  2100                           ; switch strategies available:
  2101                           ; Name         Instructions Cycles
  2102                           ; simple_byte            4     3 (average)
  2103                           ;	Chosen strategy is simple_byte
  2104   00134E  5183               	movf	(??_gpio_pin_write_logic+1)& (0+255),w,b
  2105   001350  0A00               	xorlw	0	; case 0
  2106   001352  B4D8               	btfsc	status,2,c
  2107   001354  EFAE  F009         	goto	l4950
  2108   001358  EF4B  F009         	goto	l3842
  2109   00135C                     l4950:
  2110                           
  2111                           ; BSR set to: 0
  2112                           ; Switch size 1, requested type "simple"
  2113                           ; Number of cases is 2, Range of values is 0 to 1
  2114                           ; switch strategies available:
  2115                           ; Name         Instructions Cycles
  2116                           ; simple_byte            7     4 (average)
  2117                           ;	Chosen strategy is simple_byte
  2118   00135C  5182               	movf	??_gpio_pin_write_logic& (0+255),w,b
  2119   00135E  0A00               	xorlw	0	; case 0
  2120   001360  B4D8               	btfsc	status,2,c
  2121   001362  EF78  F009         	goto	l3846
  2122   001366  0A01               	xorlw	1	; case 1
  2123   001368  B4D8               	btfsc	status,2,c
  2124   00136A  EF4F  F009         	goto	l3844
  2125   00136E  EF4B  F009         	goto	l3842
  2126   001372                     l3854:
  2127                           
  2128                           ; BSR set to: 0
  2129                           ;MCAL_Layer/GPIO/hal_gpio.c: 77:     return ret;
  2130   001372  5187               	movf	gpio_pin_write_logic@ret& (0+255),w,b
  2131   001374                     
  2132                           ; BSR set to: 0
  2133   001374  0012               	return		;funcret
  2134   001376                     __end_of_gpio_pin_write_logic:
  2135                           	callstack 0
  2136                           
  2137 ;; *************** function _gpio_pin_direction_intialize *****************
  2138 ;; Defined at:
  2139 ;;		line 19 in file "MCAL_Layer/GPIO/hal_gpio.c"
  2140 ;; Parameters:    Size  Location     Type
  2141 ;;  _pin_config     1    0[BANK0 ] PTR const struct .
  2142 ;;		 -> clock(6), segment$segment_pins(4), segment(5), Relay_initialize@pin_obj(1), 
  2143 ;;		 -> led_intialize@pin_obj(1), 
  2144 ;; Auto vars:     Size  Location     Type
  2145 ;;  ret             1    6[BANK0 ] unsigned char 
  2146 ;; Return value:  Size  Location     Type
  2147 ;;                  1    wreg      unsigned char 
  2148 ;; Registers used:
  2149 ;;		wreg, fsr2l, fsr2h, status,2, status,0, prodl, prodh
  2150 ;; Tracked objects:
  2151 ;;		On entry : 0/0
  2152 ;;		On exit  : 0/0
  2153 ;;		Unchanged: 0/0
  2154 ;; Data sizes:     COMRAM   BANK0   BANK1   BANK2   BANK3   BANK4   BANK5   BANK6   BANK7   BANK8   BANK9  BANK10  BANK1
      +1  BANK12  BANK13  BANK14  BANK15
  2155 ;;      Params:         0       1       0       0       0       0       0       0       0       0       0       0       
      +0       0       0       0       0
  2156 ;;      Locals:         0       1       0       0       0       0       0       0       0       0       0       0       
      +0       0       0       0       0
  2157 ;;      Temps:          0       5       0       0       0       0       0       0       0       0       0       0       
      +0       0       0       0       0
  2158 ;;      Totals:         0       7       0       0       0       0       0       0       0       0       0       0       
      +0       0       0       0       0
  2159 ;;Total ram usage:        7 bytes
  2160 ;; Hardware stack levels used: 1
  2161 ;; Hardware stack levels required when called: 10
  2162 ;; This function calls:
  2163 ;;		Nothing
  2164 ;; This function is called by:
  2165 ;;		_gpio_pin_initialize
  2166 ;;		_Interrupt_RBx_Init
  2167 ;; This function uses a non-reentrant model
  2168 ;;
  2169                           
  2170                           	psect	text15
  2171   001016                     __ptext15:
  2172                           	callstack 0
  2173   001016                     _gpio_pin_direction_intialize:
  2174                           	callstack 16
  2175   001016                     
  2176                           ;MCAL_Layer/GPIO/hal_gpio.c: 20:     Std_ReturnType ret = (Std_ReturnType)0X01;
  2177   001016  0E01               	movlw	1
  2178   001018  0100               	movlb	0	; () banked
  2179   00101A  6F86               	movwf	gpio_pin_direction_intialize@ret& (0+255),b
  2180                           
  2181                           ;MCAL_Layer/GPIO/hal_gpio.c: 22:     if (((void*)0) == _pin_config || (_pin_config->pin 
      +                          > 8 - 1)) {
  2182   00101C  5180               	movf	gpio_pin_direction_intialize@_pin_config& (0+255),w,b
  2183   00101E  B4D8               	btfsc	status,2,c
  2184   001020  EF14  F008         	goto	u2641
  2185   001024  EF16  F008         	goto	u2640
  2186   001028                     u2641:
  2187   001028  EF26  F008         	goto	l3866
  2188   00102C                     u2640:
  2189   00102C                     
  2190                           ; BSR set to: 0
  2191   00102C  5180               	movf	gpio_pin_direction_intialize@_pin_config& (0+255),w,b
  2192   00102E  6ED9               	movwf	fsr2l,c
  2193   001030  6ADA               	clrf	fsr2h,c
  2194   001032  30DF               	rrcf	223,w,c
  2195   001034  32E8               	rrcf	wreg,f,c
  2196   001036  32E8               	rrcf	wreg,f,c
  2197   001038  0B07               	andlw	7
  2198   00103A  6F81               	movwf	??_gpio_pin_direction_intialize& (0+255),b
  2199   00103C  0E07               	movlw	7
  2200   00103E  6581               	cpfsgt	??_gpio_pin_direction_intialize& (0+255),b
  2201   001040  EF24  F008         	goto	u2651
  2202   001044  EF26  F008         	goto	u2650
  2203   001048                     u2651:
  2204   001048  EF7F  F008         	goto	l3874
  2205   00104C                     u2650:
  2206   00104C                     l3866:
  2207                           
  2208                           ; BSR set to: 0
  2209                           ;MCAL_Layer/GPIO/hal_gpio.c: 23:         ret = (Std_ReturnType)0X00;
  2210   00104C  0E00               	movlw	0
  2211   00104E  6F86               	movwf	gpio_pin_direction_intialize@ret& (0+255),b
  2212                           
  2213                           ;MCAL_Layer/GPIO/hal_gpio.c: 24:     } else {
  2214   001050  EF9F  F008         	goto	l3876
  2215   001054                     l3868:
  2216                           
  2217                           ; BSR set to: 0
  2218                           ;MCAL_Layer/GPIO/hal_gpio.c: 28:                 (*tris_registers[_pin_config->port] &= 
      +                          ~((uint8)1 << _pin_config->pin));
  2219   001054  5180               	movf	gpio_pin_direction_intialize@_pin_config& (0+255),w,b
  2220   001056  6ED9               	movwf	fsr2l,c
  2221   001058  6ADA               	clrf	fsr2h,c
  2222   00105A  30DF               	rrcf	223,w,c
  2223   00105C  32E8               	rrcf	wreg,f,c
  2224   00105E  32E8               	rrcf	wreg,f,c
  2225   001060  0B07               	andlw	7
  2226   001062  6F81               	movwf	??_gpio_pin_direction_intialize& (0+255),b
  2227   001064  0E01               	movlw	1
  2228   001066  6F82               	movwf	(??_gpio_pin_direction_intialize+1)& (0+255),b
  2229   001068  2B81               	incf	??_gpio_pin_direction_intialize& (0+255),f,b
  2230   00106A  EF39  F008         	goto	u2664
  2231   00106E                     u2665:
  2232   00106E  90D8               	bcf	status,0,c
  2233   001070  3782               	rlcf	(??_gpio_pin_direction_intialize+1)& (0+255),f,b
  2234   001072                     u2664:
  2235   001072  2F81               	decfsz	??_gpio_pin_direction_intialize& (0+255),f,b
  2236   001074  EF37  F008         	goto	u2665
  2237   001078  0100               	movlb	0	; () banked
  2238   00107A  5182               	movf	(??_gpio_pin_direction_intialize+1)& (0+255),w,b
  2239   00107C  0AFF               	xorlw	255
  2240   00107E  6F83               	movwf	(??_gpio_pin_direction_intialize+2)& (0+255),b
  2241   001080  5180               	movf	gpio_pin_direction_intialize@_pin_config& (0+255),w,b
  2242   001082  6ED9               	movwf	fsr2l,c
  2243   001084  6ADA               	clrf	fsr2h,c
  2244   001086  50DF               	movf	223,w,c
  2245   001088  0B07               	andlw	7
  2246   00108A  0D02               	mullw	2
  2247   00108C  50F3               	movf	243,w,c
  2248   00108E  0F15               	addlw	low _tris_registers
  2249   001090  6ED9               	movwf	fsr2l,c
  2250   001092  6ADA               	clrf	fsr2h,c
  2251   001094  CFDE F084          	movff	postinc2,??_gpio_pin_direction_intialize+3
  2252   001098  CFDD F085          	movff	postdec2,??_gpio_pin_direction_intialize+4
  2253   00109C  C084  FFD9         	movff	??_gpio_pin_direction_intialize+3,fsr2l
  2254   0010A0  C085  FFDA         	movff	??_gpio_pin_direction_intialize+4,fsr2h
  2255   0010A4  5183               	movf	(??_gpio_pin_direction_intialize+2)& (0+255),w,b
  2256   0010A6  16DF               	andwf	indf2,f,c
  2257                           
  2258                           ;MCAL_Layer/GPIO/hal_gpio.c: 30:                 break;
  2259   0010A8  EF9F  F008         	goto	l3876
  2260   0010AC                     l3870:
  2261                           
  2262                           ; BSR set to: 0
  2263                           ;MCAL_Layer/GPIO/hal_gpio.c: 33:                 (*tris_registers[_pin_config->port] |= 
      +                          ((uint8)1 << _pin_config->pin));
  2264   0010AC  5180               	movf	gpio_pin_direction_intialize@_pin_config& (0+255),w,b
  2265   0010AE  6ED9               	movwf	fsr2l,c
  2266   0010B0  6ADA               	clrf	fsr2h,c
  2267   0010B2  30DF               	rrcf	223,w,c
  2268   0010B4  32E8               	rrcf	wreg,f,c
  2269   0010B6  32E8               	rrcf	wreg,f,c
  2270   0010B8  0B07               	andlw	7
  2271   0010BA  6F81               	movwf	??_gpio_pin_direction_intialize& (0+255),b
  2272   0010BC  0E01               	movlw	1
  2273   0010BE  6F82               	movwf	(??_gpio_pin_direction_intialize+1)& (0+255),b
  2274   0010C0  2B81               	incf	??_gpio_pin_direction_intialize& (0+255),f,b
  2275   0010C2  EF65  F008         	goto	u2674
  2276   0010C6                     u2675:
  2277   0010C6  90D8               	bcf	status,0,c
  2278   0010C8  3782               	rlcf	(??_gpio_pin_direction_intialize+1)& (0+255),f,b
  2279   0010CA                     u2674:
  2280   0010CA  2F81               	decfsz	??_gpio_pin_direction_intialize& (0+255),f,b
  2281   0010CC  EF63  F008         	goto	u2675
  2282   0010D0  0100               	movlb	0	; () banked
  2283   0010D2  5180               	movf	gpio_pin_direction_intialize@_pin_config& (0+255),w,b
  2284   0010D4  6ED9               	movwf	fsr2l,c
  2285   0010D6  6ADA               	clrf	fsr2h,c
  2286   0010D8  50DF               	movf	223,w,c
  2287   0010DA  0B07               	andlw	7
  2288   0010DC  0D02               	mullw	2
  2289   0010DE  50F3               	movf	243,w,c
  2290   0010E0  0F15               	addlw	low _tris_registers
  2291   0010E2  6ED9               	movwf	fsr2l,c
  2292   0010E4  6ADA               	clrf	fsr2h,c
  2293   0010E6  CFDE F083          	movff	postinc2,??_gpio_pin_direction_intialize+2
  2294   0010EA  CFDD F084          	movff	postdec2,??_gpio_pin_direction_intialize+3
  2295   0010EE  C083  FFD9         	movff	??_gpio_pin_direction_intialize+2,fsr2l
  2296   0010F2  C084  FFDA         	movff	??_gpio_pin_direction_intialize+3,fsr2h
  2297   0010F6  5182               	movf	(??_gpio_pin_direction_intialize+1)& (0+255),w,b
  2298   0010F8  12DF               	iorwf	indf2,f,c
  2299                           
  2300                           ;MCAL_Layer/GPIO/hal_gpio.c: 34:                 break;
  2301   0010FA  EF9F  F008         	goto	l3876
  2302   0010FE                     l3874:
  2303                           
  2304                           ; BSR set to: 0
  2305   0010FE  5180               	movf	gpio_pin_direction_intialize@_pin_config& (0+255),w,b
  2306   001100  6ED9               	movwf	fsr2l,c
  2307   001102  6ADA               	clrf	fsr2h,c
  2308   001104  BCDF               	btfsc	indf2,6,c
  2309   001106  EF87  F008         	goto	u2681
  2310   00110A  EF8A  F008         	goto	u2680
  2311   00110E                     u2681:
  2312   00110E  0E01               	movlw	1
  2313   001110  EF8B  F008         	goto	u2690
  2314   001114                     u2680:
  2315   001114  0E00               	movlw	0
  2316   001116                     u2690:
  2317   001116  6F81               	movwf	??_gpio_pin_direction_intialize& (0+255),b
  2318   001118  6B82               	clrf	(??_gpio_pin_direction_intialize+1)& (0+255),b
  2319                           
  2320                           ; Switch on 2 bytes has been partitioned into a top level switch of size 1, and 1 sub-sw
      +                          itches
  2321                           ; Switch size 1, requested type "simple"
  2322                           ; Number of cases is 1, Range of values is 0 to 0
  2323                           ; switch strategies available:
  2324                           ; Name         Instructions Cycles
  2325                           ; simple_byte            4     3 (average)
  2326                           ;	Chosen strategy is simple_byte
  2327   00111A  5182               	movf	(??_gpio_pin_direction_intialize+1)& (0+255),w,b
  2328   00111C  0A00               	xorlw	0	; case 0
  2329   00111E  B4D8               	btfsc	status,2,c
  2330   001120  EF94  F008         	goto	l4952
  2331   001124  EF26  F008         	goto	l3866
  2332   001128                     l4952:
  2333                           
  2334                           ; BSR set to: 0
  2335                           ; Switch size 1, requested type "simple"
  2336                           ; Number of cases is 2, Range of values is 0 to 1
  2337                           ; switch strategies available:
  2338                           ; Name         Instructions Cycles
  2339                           ; simple_byte            7     4 (average)
  2340                           ;	Chosen strategy is simple_byte
  2341   001128  5181               	movf	??_gpio_pin_direction_intialize& (0+255),w,b
  2342   00112A  0A00               	xorlw	0	; case 0
  2343   00112C  B4D8               	btfsc	status,2,c
  2344   00112E  EF2A  F008         	goto	l3868
  2345   001132  0A01               	xorlw	1	; case 1
  2346   001134  B4D8               	btfsc	status,2,c
  2347   001136  EF56  F008         	goto	l3870
  2348   00113A  EF26  F008         	goto	l3866
  2349   00113E                     l3876:
  2350                           
  2351                           ; BSR set to: 0
  2352                           ;MCAL_Layer/GPIO/hal_gpio.c: 41:     return ret;
  2353   00113E  5186               	movf	gpio_pin_direction_intialize@ret& (0+255),w,b
  2354   001140                     
  2355                           ; BSR set to: 0
  2356   001140  0012               	return		;funcret
  2357   001142                     __end_of_gpio_pin_direction_intialize:
  2358                           	callstack 0
  2359                           
  2360 ;; *************** function _Interrupt_INTx_Enable *****************
  2361 ;; Defined at:
  2362 ;;		line 159 in file "MCAL_LAYER/Interrupt/mcal_external_interrupt.c"
  2363 ;; Parameters:    Size  Location     Type
  2364 ;;  obj             1    0[BANK0 ] PTR const struct .
  2365 ;;		 -> clock(6), 
  2366 ;; Auto vars:     Size  Location     Type
  2367 ;;  ret             1    3[BANK0 ] unsigned char 
  2368 ;; Return value:  Size  Location     Type
  2369 ;;                  1    wreg      unsigned char 
  2370 ;; Registers used:
  2371 ;;		wreg, fsr2l, fsr2h, status,2, status,0
  2372 ;; Tracked objects:
  2373 ;;		On entry : 0/0
  2374 ;;		On exit  : 0/0
  2375 ;;		Unchanged: 0/0
  2376 ;; Data sizes:     COMRAM   BANK0   BANK1   BANK2   BANK3   BANK4   BANK5   BANK6   BANK7   BANK8   BANK9  BANK10  BANK1
      +1  BANK12  BANK13  BANK14  BANK15
  2377 ;;      Params:         0       1       0       0       0       0       0       0       0       0       0       0       
      +0       0       0       0       0
  2378 ;;      Locals:         0       1       0       0       0       0       0       0       0       0       0       0       
      +0       0       0       0       0
  2379 ;;      Temps:          0       2       0       0       0       0       0       0       0       0       0       0       
      +0       0       0       0       0
  2380 ;;      Totals:         0       4       0       0       0       0       0       0       0       0       0       0       
      +0       0       0       0       0
  2381 ;;Total ram usage:        4 bytes
  2382 ;; Hardware stack levels used: 1
  2383 ;; Hardware stack levels required when called: 10
  2384 ;; This function calls:
  2385 ;;		Nothing
  2386 ;; This function is called by:
  2387 ;;		_Interrupt_INTx_Init
  2388 ;; This function uses a non-reentrant model
  2389 ;;
  2390                           
  2391                           	psect	text16
  2392   001376                     __ptext16:
  2393                           	callstack 0
  2394   001376                     _Interrupt_INTx_Enable:
  2395                           	callstack 18
  2396   001376                     
  2397                           ;MCAL_LAYER/Interrupt/mcal_external_interrupt.c: 160:     Std_ReturnType ret = (Std_Retu
      +                          rnType)0X01;
  2398   001376  0E01               	movlw	1
  2399   001378  0100               	movlb	0	; () banked
  2400   00137A  6F83               	movwf	Interrupt_INTx_Enable@ret& (0+255),b
  2401                           
  2402                           ;MCAL_LAYER/Interrupt/mcal_external_interrupt.c: 161:     if (((void*)0) == obj) {
  2403   00137C  5180               	movf	Interrupt_INTx_Enable@obj& (0+255),w,b
  2404   00137E  A4D8               	btfss	status,2,c
  2405   001380  EFC4  F009         	goto	u2911
  2406   001384  EFC6  F009         	goto	u2910
  2407   001388                     u2911:
  2408   001388  EFF8  F009         	goto	l4094
  2409   00138C                     u2910:
  2410   00138C                     l4080:
  2411                           
  2412                           ; BSR set to: 0
  2413                           ;MCAL_LAYER/Interrupt/mcal_external_interrupt.c: 162:         ret = (Std_ReturnType)0X00
      +                          ;
  2414   00138C  0E00               	movlw	0
  2415   00138E  6F83               	movwf	Interrupt_INTx_Enable@ret& (0+255),b
  2416                           
  2417                           ;MCAL_LAYER/Interrupt/mcal_external_interrupt.c: 163:     } else {
  2418   001390  EF16  F00A         	goto	l4096
  2419   001394                     l523:
  2420                           
  2421                           ; BSR set to: 0
  2422                           ;MCAL_LAYER/Interrupt/mcal_external_interrupt.c: 167:                 (INTCONbits.GIEH =
      +                           1);
  2423   001394  8EF2               	bsf	242,7,c	;volatile
  2424                           
  2425                           ;MCAL_LAYER/Interrupt/mcal_external_interrupt.c: 172:                 (INTCONbits.INT0IE
      +                           = 1);
  2426   001396  88F2               	bsf	242,4,c	;volatile
  2427                           
  2428                           ;MCAL_LAYER/Interrupt/mcal_external_interrupt.c: 173:                 break;
  2429   001398  EF16  F00A         	goto	l4096
  2430   00139C                     l525:
  2431                           
  2432                           ; BSR set to: 0
  2433                           ;MCAL_LAYER/Interrupt/mcal_external_interrupt.c: 176:                 (RCONbits.IPEN = 1
      +                          );
  2434   00139C  8ED0               	bsf	208,7,c	;volatile
  2435   00139E                     
  2436                           ; BSR set to: 0
  2437                           ;MCAL_LAYER/Interrupt/mcal_external_interrupt.c: 177:                 if (obj->Priority 
      +                          == INTERRUPT_HIGH_PRIORITY)
  2438   00139E  5180               	movf	Interrupt_INTx_Enable@obj& (0+255),w,b
  2439   0013A0  6ED9               	movwf	fsr2l,c
  2440   0013A2  6ADA               	clrf	fsr2h,c
  2441   0013A4  0E04               	movlw	4
  2442   0013A6  26D9               	addwf	fsr2l,f,c
  2443   0013A8  04DE               	decf	postinc2,w,c
  2444   0013AA  A4D8               	btfss	status,2,c
  2445   0013AC  EFDA  F009         	goto	u2921
  2446   0013B0  EFDC  F009         	goto	u2920
  2447   0013B4                     u2921:
  2448   0013B4  EFDF  F009         	goto	l526
  2449   0013B8                     u2920:
  2450   0013B8                     
  2451                           ; BSR set to: 0
  2452                           ;MCAL_LAYER/Interrupt/mcal_external_interrupt.c: 178:                     (INTCONbits.GI
      +                          EH = 1);
  2453   0013B8  8EF2               	bsf	242,7,c	;volatile
  2454   0013BA  EFE0  F009         	goto	l527
  2455   0013BE                     l526:
  2456                           
  2457                           ; BSR set to: 0
  2458                           ;MCAL_LAYER/Interrupt/mcal_external_interrupt.c: 180:                     (INTCONbits.GI
      +                          EL = 1);
  2459   0013BE  8CF2               	bsf	242,6,c	;volatile
  2460   0013C0                     l527:
  2461                           
  2462                           ; BSR set to: 0
  2463                           ;MCAL_LAYER/Interrupt/mcal_external_interrupt.c: 185:                 (INTCON3bits.INT1I
      +                          E = 1);
  2464   0013C0  86F0               	bsf	240,3,c	;volatile
  2465                           
  2466                           ;MCAL_LAYER/Interrupt/mcal_external_interrupt.c: 186:                 break;
  2467   0013C2  EF16  F00A         	goto	l4096
  2468   0013C6                     l528:
  2469                           
  2470                           ; BSR set to: 0
  2471                           ;MCAL_LAYER/Interrupt/mcal_external_interrupt.c: 189:                 (RCONbits.IPEN = 1
      +                          );
  2472   0013C6  8ED0               	bsf	208,7,c	;volatile
  2473   0013C8                     
  2474                           ; BSR set to: 0
  2475                           ;MCAL_LAYER/Interrupt/mcal_external_interrupt.c: 190:                 if (obj->Priority 
      +                          == INTERRUPT_HIGH_PRIORITY)
  2476   0013C8  5180               	movf	Interrupt_INTx_Enable@obj& (0+255),w,b
  2477   0013CA  6ED9               	movwf	fsr2l,c
  2478   0013CC  6ADA               	clrf	fsr2h,c
  2479   0013CE  0E04               	movlw	4
  2480   0013D0  26D9               	addwf	fsr2l,f,c
  2481   0013D2  04DE               	decf	postinc2,w,c
  2482   0013D4  A4D8               	btfss	status,2,c
  2483   0013D6  EFEF  F009         	goto	u2931
  2484   0013DA  EFF1  F009         	goto	u2930
  2485   0013DE                     u2931:
  2486   0013DE  EFF4  F009         	goto	l529
  2487   0013E2                     u2930:
  2488   0013E2                     
  2489                           ; BSR set to: 0
  2490                           ;MCAL_LAYER/Interrupt/mcal_external_interrupt.c: 191:                     (INTCONbits.GI
      +                          EH = 1);
  2491   0013E2  8EF2               	bsf	242,7,c	;volatile
  2492   0013E4  EFF5  F009         	goto	l530
  2493   0013E8                     l529:
  2494                           
  2495                           ; BSR set to: 0
  2496                           ;MCAL_LAYER/Interrupt/mcal_external_interrupt.c: 193:                     (INTCONbits.GI
      +                          EL = 1);
  2497   0013E8  8CF2               	bsf	242,6,c	;volatile
  2498   0013EA                     l530:
  2499                           
  2500                           ; BSR set to: 0
  2501                           ;MCAL_LAYER/Interrupt/mcal_external_interrupt.c: 198:                 (INTCON3bits.INT2I
      +                          E = 1);
  2502   0013EA  88F0               	bsf	240,4,c	;volatile
  2503                           
  2504                           ;MCAL_LAYER/Interrupt/mcal_external_interrupt.c: 199:                 break;
  2505   0013EC  EF16  F00A         	goto	l4096
  2506   0013F0                     l4094:
  2507                           
  2508                           ; BSR set to: 0
  2509   0013F0  5180               	movf	Interrupt_INTx_Enable@obj& (0+255),w,b
  2510   0013F2  6ED9               	movwf	fsr2l,c
  2511   0013F4  6ADA               	clrf	fsr2h,c
  2512   0013F6  0E03               	movlw	3
  2513   0013F8  26D9               	addwf	fsr2l,f,c
  2514   0013FA  50DF               	movf	indf2,w,c
  2515   0013FC  6F81               	movwf	??_Interrupt_INTx_Enable& (0+255),b
  2516   0013FE  6B82               	clrf	(??_Interrupt_INTx_Enable+1)& (0+255),b
  2517                           
  2518                           ; Switch on 2 bytes has been partitioned into a top level switch of size 1, and 1 sub-sw
      +                          itches
  2519                           ; Switch size 1, requested type "simple"
  2520                           ; Number of cases is 1, Range of values is 0 to 0
  2521                           ; switch strategies available:
  2522                           ; Name         Instructions Cycles
  2523                           ; simple_byte            4     3 (average)
  2524                           ;	Chosen strategy is simple_byte
  2525   001400  5182               	movf	(??_Interrupt_INTx_Enable+1)& (0+255),w,b
  2526   001402  0A00               	xorlw	0	; case 0
  2527   001404  B4D8               	btfsc	status,2,c
  2528   001406  EF07  F00A         	goto	l4954
  2529   00140A  EFC6  F009         	goto	l4080
  2530   00140E                     l4954:
  2531                           
  2532                           ; BSR set to: 0
  2533                           ; Switch size 1, requested type "simple"
  2534                           ; Number of cases is 3, Range of values is 0 to 2
  2535                           ; switch strategies available:
  2536                           ; Name         Instructions Cycles
  2537                           ; simple_byte           10     6 (average)
  2538                           ;	Chosen strategy is simple_byte
  2539   00140E  5181               	movf	??_Interrupt_INTx_Enable& (0+255),w,b
  2540   001410  0A00               	xorlw	0	; case 0
  2541   001412  B4D8               	btfsc	status,2,c
  2542   001414  EFCA  F009         	goto	l523
  2543   001418  0A01               	xorlw	1	; case 1
  2544   00141A  B4D8               	btfsc	status,2,c
  2545   00141C  EFCE  F009         	goto	l525
  2546   001420  0A03               	xorlw	3	; case 2
  2547   001422  B4D8               	btfsc	status,2,c
  2548   001424  EFE3  F009         	goto	l528
  2549   001428  EFC6  F009         	goto	l4080
  2550   00142C                     l4096:
  2551                           
  2552                           ; BSR set to: 0
  2553                           ;MCAL_LAYER/Interrupt/mcal_external_interrupt.c: 205:     return ret;
  2554   00142C  5183               	movf	Interrupt_INTx_Enable@ret& (0+255),w,b
  2555   00142E                     
  2556                           ; BSR set to: 0
  2557   00142E  0012               	return		;funcret
  2558   001430                     __end_of_Interrupt_INTx_Enable:
  2559                           	callstack 0
  2560                           
  2561 ;; *************** function _Interrupt_INTx_Edge_Init *****************
  2562 ;; Defined at:
  2563 ;;		line 290 in file "MCAL_LAYER/Interrupt/mcal_external_interrupt.c"
  2564 ;; Parameters:    Size  Location     Type
  2565 ;;  obj             1    0[BANK0 ] PTR const struct .
  2566 ;;		 -> clock(6), 
  2567 ;; Auto vars:     Size  Location     Type
  2568 ;;  ret             1    3[BANK0 ] unsigned char 
  2569 ;; Return value:  Size  Location     Type
  2570 ;;                  1    wreg      unsigned char 
  2571 ;; Registers used:
  2572 ;;		wreg, fsr2l, fsr2h, status,2, status,0
  2573 ;; Tracked objects:
  2574 ;;		On entry : 0/0
  2575 ;;		On exit  : 0/0
  2576 ;;		Unchanged: 0/0
  2577 ;; Data sizes:     COMRAM   BANK0   BANK1   BANK2   BANK3   BANK4   BANK5   BANK6   BANK7   BANK8   BANK9  BANK10  BANK1
      +1  BANK12  BANK13  BANK14  BANK15
  2578 ;;      Params:         0       1       0       0       0       0       0       0       0       0       0       0       
      +0       0       0       0       0
  2579 ;;      Locals:         0       1       0       0       0       0       0       0       0       0       0       0       
      +0       0       0       0       0
  2580 ;;      Temps:          0       2       0       0       0       0       0       0       0       0       0       0       
      +0       0       0       0       0
  2581 ;;      Totals:         0       4       0       0       0       0       0       0       0       0       0       0       
      +0       0       0       0       0
  2582 ;;Total ram usage:        4 bytes
  2583 ;; Hardware stack levels used: 1
  2584 ;; Hardware stack levels required when called: 10
  2585 ;; This function calls:
  2586 ;;		Nothing
  2587 ;; This function is called by:
  2588 ;;		_Interrupt_INTx_Init
  2589 ;; This function uses a non-reentrant model
  2590 ;;
  2591                           
  2592                           	psect	text17
  2593   001142                     __ptext17:
  2594                           	callstack 0
  2595   001142                     _Interrupt_INTx_Edge_Init:
  2596                           	callstack 18
  2597   001142                     
  2598                           ;MCAL_LAYER/Interrupt/mcal_external_interrupt.c: 291:     Std_ReturnType ret = (Std_Retu
      +                          rnType)0X01;
  2599   001142  0E01               	movlw	1
  2600   001144  0100               	movlb	0	; () banked
  2601   001146  6F83               	movwf	Interrupt_INTx_Edge_Init@ret& (0+255),b
  2602                           
  2603                           ;MCAL_LAYER/Interrupt/mcal_external_interrupt.c: 292:     if (((void*)0) == obj) {
  2604   001148  5180               	movf	Interrupt_INTx_Edge_Init@obj& (0+255),w,b
  2605   00114A  A4D8               	btfss	status,2,c
  2606   00114C  EFAA  F008         	goto	u2791
  2607   001150  EFAC  F008         	goto	u2790
  2608   001154                     u2791:
  2609   001154  EF10  F009         	goto	l4010
  2610   001158                     u2790:
  2611   001158                     l3980:
  2612                           
  2613                           ; BSR set to: 0
  2614                           ;MCAL_LAYER/Interrupt/mcal_external_interrupt.c: 293:         ret = (Std_ReturnType)0X00
      +                          ;
  2615   001158  0E00               	movlw	0
  2616   00115A  6F83               	movwf	Interrupt_INTx_Edge_Init@ret& (0+255),b
  2617                           
  2618                           ;MCAL_LAYER/Interrupt/mcal_external_interrupt.c: 294:     } else {
  2619   00115C  EF2E  F009         	goto	l4012
  2620   001160                     l3982:
  2621                           
  2622                           ; BSR set to: 0
  2623                           ;MCAL_LAYER/Interrupt/mcal_external_interrupt.c: 297:                 if (obj->Edge == I
      +                          NTERRUPT_FALLING_EDGE) {
  2624   001160  5180               	movf	Interrupt_INTx_Edge_Init@obj& (0+255),w,b
  2625   001162  6ED9               	movwf	fsr2l,c
  2626   001164  6ADA               	clrf	fsr2h,c
  2627   001166  0E02               	movlw	2
  2628   001168  26D9               	addwf	fsr2l,f,c
  2629   00116A  04DE               	decf	postinc2,w,c
  2630   00116C  A4D8               	btfss	status,2,c
  2631   00116E  EFBB  F008         	goto	u2801
  2632   001172  EFBD  F008         	goto	u2800
  2633   001176                     u2801:
  2634   001176  EFC0  F008         	goto	l3986
  2635   00117A                     u2800:
  2636   00117A                     
  2637                           ; BSR set to: 0
  2638                           ;MCAL_LAYER/Interrupt/mcal_external_interrupt.c: 298:                     (INTCON2bits.I
      +                          NTEDG0 = 0);
  2639   00117A  9CF1               	bcf	241,6,c	;volatile
  2640                           
  2641                           ;MCAL_LAYER/Interrupt/mcal_external_interrupt.c: 299:                 } else if (obj->Ed
      +                          ge == INTERRUPT_RISING_EDGE) {
  2642   00117C  EF2E  F009         	goto	l4012
  2643   001180                     l3986:
  2644                           
  2645                           ; BSR set to: 0
  2646   001180  5180               	movf	Interrupt_INTx_Edge_Init@obj& (0+255),w,b
  2647   001182  6ED9               	movwf	fsr2l,c
  2648   001184  6ADA               	clrf	fsr2h,c
  2649   001186  0E02               	movlw	2
  2650   001188  26D9               	addwf	fsr2l,f,c
  2651   00118A  50DF               	movf	indf2,w,c
  2652   00118C  A4D8               	btfss	status,2,c
  2653   00118E  EFCB  F008         	goto	u2811
  2654   001192  EFCD  F008         	goto	u2810
  2655   001196                     u2811:
  2656   001196  EF2E  F009         	goto	l567
  2657   00119A                     u2810:
  2658   00119A                     
  2659                           ; BSR set to: 0
  2660                           ;MCAL_LAYER/Interrupt/mcal_external_interrupt.c: 300:                     (INTCON2bits.I
      +                          NTEDG0 = 1);
  2661   00119A  8CF1               	bsf	241,6,c	;volatile
  2662   00119C  EF2E  F009         	goto	l4012
  2663   0011A0                     l3990:
  2664                           
  2665                           ; BSR set to: 0
  2666                           ;MCAL_LAYER/Interrupt/mcal_external_interrupt.c: 304:                 if (obj->Edge == I
      +                          NTERRUPT_FALLING_EDGE) {
  2667   0011A0  5180               	movf	Interrupt_INTx_Edge_Init@obj& (0+255),w,b
  2668   0011A2  6ED9               	movwf	fsr2l,c
  2669   0011A4  6ADA               	clrf	fsr2h,c
  2670   0011A6  0E02               	movlw	2
  2671   0011A8  26D9               	addwf	fsr2l,f,c
  2672   0011AA  04DE               	decf	postinc2,w,c
  2673   0011AC  A4D8               	btfss	status,2,c
  2674   0011AE  EFDB  F008         	goto	u2821
  2675   0011B2  EFDD  F008         	goto	u2820
  2676   0011B6                     u2821:
  2677   0011B6  EFE0  F008         	goto	l3994
  2678   0011BA                     u2820:
  2679   0011BA                     
  2680                           ; BSR set to: 0
  2681                           ;MCAL_LAYER/Interrupt/mcal_external_interrupt.c: 305:                     (INTCON2bits.I
      +                          NTEDG1 = 0);
  2682   0011BA  9AF1               	bcf	241,5,c	;volatile
  2683                           
  2684                           ;MCAL_LAYER/Interrupt/mcal_external_interrupt.c: 306:                 } else if (obj->Ed
      +                          ge == INTERRUPT_RISING_EDGE) {
  2685   0011BC  EF2E  F009         	goto	l4012
  2686   0011C0                     l3994:
  2687                           
  2688                           ; BSR set to: 0
  2689   0011C0  5180               	movf	Interrupt_INTx_Edge_Init@obj& (0+255),w,b
  2690   0011C2  6ED9               	movwf	fsr2l,c
  2691   0011C4  6ADA               	clrf	fsr2h,c
  2692   0011C6  0E02               	movlw	2
  2693   0011C8  26D9               	addwf	fsr2l,f,c
  2694   0011CA  50DF               	movf	indf2,w,c
  2695   0011CC  A4D8               	btfss	status,2,c
  2696   0011CE  EFEB  F008         	goto	u2831
  2697   0011D2  EFED  F008         	goto	u2830
  2698   0011D6                     u2831:
  2699   0011D6  EF2E  F009         	goto	l567
  2700   0011DA                     u2830:
  2701   0011DA                     
  2702                           ; BSR set to: 0
  2703                           ;MCAL_LAYER/Interrupt/mcal_external_interrupt.c: 307:                     (INTCON2bits.I
      +                          NTEDG1 = 1);
  2704   0011DA  8AF1               	bsf	241,5,c	;volatile
  2705   0011DC  EF2E  F009         	goto	l4012
  2706   0011E0                     l3998:
  2707                           
  2708                           ; BSR set to: 0
  2709                           ;MCAL_LAYER/Interrupt/mcal_external_interrupt.c: 311:                 if (obj->Edge == I
      +                          NTERRUPT_FALLING_EDGE) {
  2710   0011E0  5180               	movf	Interrupt_INTx_Edge_Init@obj& (0+255),w,b
  2711   0011E2  6ED9               	movwf	fsr2l,c
  2712   0011E4  6ADA               	clrf	fsr2h,c
  2713   0011E6  0E02               	movlw	2
  2714   0011E8  26D9               	addwf	fsr2l,f,c
  2715   0011EA  04DE               	decf	postinc2,w,c
  2716   0011EC  A4D8               	btfss	status,2,c
  2717   0011EE  EFFB  F008         	goto	u2841
  2718   0011F2  EFFD  F008         	goto	u2840
  2719   0011F6                     u2841:
  2720   0011F6  EF00  F009         	goto	l4002
  2721   0011FA                     u2840:
  2722   0011FA                     
  2723                           ; BSR set to: 0
  2724                           ;MCAL_LAYER/Interrupt/mcal_external_interrupt.c: 312:                     (INTCON2bits.I
      +                          NTEDG2 = 0);
  2725   0011FA  98F1               	bcf	241,4,c	;volatile
  2726                           
  2727                           ;MCAL_LAYER/Interrupt/mcal_external_interrupt.c: 313:                 } else if (obj->Ed
      +                          ge == INTERRUPT_RISING_EDGE) {
  2728   0011FC  EF2E  F009         	goto	l4012
  2729   001200                     l4002:
  2730                           
  2731                           ; BSR set to: 0
  2732   001200  5180               	movf	Interrupt_INTx_Edge_Init@obj& (0+255),w,b
  2733   001202  6ED9               	movwf	fsr2l,c
  2734   001204  6ADA               	clrf	fsr2h,c
  2735   001206  0E02               	movlw	2
  2736   001208  26D9               	addwf	fsr2l,f,c
  2737   00120A  50DF               	movf	indf2,w,c
  2738   00120C  A4D8               	btfss	status,2,c
  2739   00120E  EF0B  F009         	goto	u2851
  2740   001212  EF0D  F009         	goto	u2850
  2741   001216                     u2851:
  2742   001216  EF2E  F009         	goto	l567
  2743   00121A                     u2850:
  2744   00121A                     
  2745                           ; BSR set to: 0
  2746                           ;MCAL_LAYER/Interrupt/mcal_external_interrupt.c: 314:                     (INTCON2bits.I
      +                          NTEDG2 = 1);
  2747   00121A  88F1               	bsf	241,4,c	;volatile
  2748   00121C  EF2E  F009         	goto	l4012
  2749   001220                     l4010:
  2750                           
  2751                           ; BSR set to: 0
  2752   001220  5180               	movf	Interrupt_INTx_Edge_Init@obj& (0+255),w,b
  2753   001222  6ED9               	movwf	fsr2l,c
  2754   001224  6ADA               	clrf	fsr2h,c
  2755   001226  0E03               	movlw	3
  2756   001228  26D9               	addwf	fsr2l,f,c
  2757   00122A  50DF               	movf	indf2,w,c
  2758   00122C  6F81               	movwf	??_Interrupt_INTx_Edge_Init& (0+255),b
  2759   00122E  6B82               	clrf	(??_Interrupt_INTx_Edge_Init+1)& (0+255),b
  2760                           
  2761                           ; Switch on 2 bytes has been partitioned into a top level switch of size 1, and 1 sub-sw
      +                          itches
  2762                           ; Switch size 1, requested type "simple"
  2763                           ; Number of cases is 1, Range of values is 0 to 0
  2764                           ; switch strategies available:
  2765                           ; Name         Instructions Cycles
  2766                           ; simple_byte            4     3 (average)
  2767                           ;	Chosen strategy is simple_byte
  2768   001230  5182               	movf	(??_Interrupt_INTx_Edge_Init+1)& (0+255),w,b
  2769   001232  0A00               	xorlw	0	; case 0
  2770   001234  B4D8               	btfsc	status,2,c
  2771   001236  EF1F  F009         	goto	l4956
  2772   00123A  EFAC  F008         	goto	l3980
  2773   00123E                     l4956:
  2774                           
  2775                           ; BSR set to: 0
  2776                           ; Switch size 1, requested type "simple"
  2777                           ; Number of cases is 3, Range of values is 0 to 2
  2778                           ; switch strategies available:
  2779                           ; Name         Instructions Cycles
  2780                           ; simple_byte           10     6 (average)
  2781                           ;	Chosen strategy is simple_byte
  2782   00123E  5181               	movf	??_Interrupt_INTx_Edge_Init& (0+255),w,b
  2783   001240  0A00               	xorlw	0	; case 0
  2784   001242  B4D8               	btfsc	status,2,c
  2785   001244  EFB0  F008         	goto	l3982
  2786   001248  0A01               	xorlw	1	; case 1
  2787   00124A  B4D8               	btfsc	status,2,c
  2788   00124C  EFD0  F008         	goto	l3990
  2789   001250  0A03               	xorlw	3	; case 2
  2790   001252  B4D8               	btfsc	status,2,c
  2791   001254  EFF0  F008         	goto	l3998
  2792   001258  EFAC  F008         	goto	l3980
  2793   00125C                     l567:
  2794   00125C                     l4012:
  2795                           
  2796                           ; BSR set to: 0
  2797                           ;MCAL_LAYER/Interrupt/mcal_external_interrupt.c: 322:     return ret;
  2798   00125C  5183               	movf	Interrupt_INTx_Edge_Init@ret& (0+255),w,b
  2799   00125E                     
  2800                           ; BSR set to: 0
  2801   00125E  0012               	return		;funcret
  2802   001260                     __end_of_Interrupt_INTx_Edge_Init:
  2803                           	callstack 0
  2804                           
  2805 ;; *************** function _Interrupt_INTx_Disable *****************
  2806 ;; Defined at:
  2807 ;;		line 214 in file "MCAL_LAYER/Interrupt/mcal_external_interrupt.c"
  2808 ;; Parameters:    Size  Location     Type
  2809 ;;  obj             1    0[BANK0 ] PTR const struct .
  2810 ;;		 -> clock(6), 
  2811 ;; Auto vars:     Size  Location     Type
  2812 ;;  ret             1    3[BANK0 ] unsigned char 
  2813 ;; Return value:  Size  Location     Type
  2814 ;;                  1    wreg      unsigned char 
  2815 ;; Registers used:
  2816 ;;		wreg, fsr2l, fsr2h, status,2, status,0
  2817 ;; Tracked objects:
  2818 ;;		On entry : 0/0
  2819 ;;		On exit  : 0/0
  2820 ;;		Unchanged: 0/0
  2821 ;; Data sizes:     COMRAM   BANK0   BANK1   BANK2   BANK3   BANK4   BANK5   BANK6   BANK7   BANK8   BANK9  BANK10  BANK1
      +1  BANK12  BANK13  BANK14  BANK15
  2822 ;;      Params:         0       1       0       0       0       0       0       0       0       0       0       0       
      +0       0       0       0       0
  2823 ;;      Locals:         0       1       0       0       0       0       0       0       0       0       0       0       
      +0       0       0       0       0
  2824 ;;      Temps:          0       2       0       0       0       0       0       0       0       0       0       0       
      +0       0       0       0       0
  2825 ;;      Totals:         0       4       0       0       0       0       0       0       0       0       0       0       
      +0       0       0       0       0
  2826 ;;Total ram usage:        4 bytes
  2827 ;; Hardware stack levels used: 1
  2828 ;; Hardware stack levels required when called: 10
  2829 ;; This function calls:
  2830 ;;		Nothing
  2831 ;; This function is called by:
  2832 ;;		_Interrupt_INTx_Init
  2833 ;;		_Interrupt_INTx_DeInit
  2834 ;; This function uses a non-reentrant model
  2835 ;;
  2836                           
  2837                           	psect	text18
  2838   0018DA                     __ptext18:
  2839                           	callstack 0
  2840   0018DA                     _Interrupt_INTx_Disable:
  2841                           	callstack 18
  2842   0018DA                     
  2843                           ;MCAL_LAYER/Interrupt/mcal_external_interrupt.c: 215:     Std_ReturnType ret = (Std_Retu
      +                          rnType)0X01;
  2844   0018DA  0E01               	movlw	1
  2845   0018DC  0100               	movlb	0	; () banked
  2846   0018DE  6F83               	movwf	Interrupt_INTx_Disable@ret& (0+255),b
  2847                           
  2848                           ;MCAL_LAYER/Interrupt/mcal_external_interrupt.c: 216:     if (((void*)0) == obj) {
  2849   0018E0  5180               	movf	Interrupt_INTx_Disable@obj& (0+255),w,b
  2850   0018E2  A4D8               	btfss	status,2,c
  2851   0018E4  EF76  F00C         	goto	u2781
  2852   0018E8  EF78  F00C         	goto	u2780
  2853   0018EC                     u2781:
  2854   0018EC  EF85  F00C         	goto	l3966
  2855   0018F0                     u2780:
  2856   0018F0                     l3960:
  2857                           
  2858                           ; BSR set to: 0
  2859                           ;MCAL_LAYER/Interrupt/mcal_external_interrupt.c: 217:         ret = (Std_ReturnType)0X00
      +                          ;
  2860   0018F0  0E00               	movlw	0
  2861   0018F2  6F83               	movwf	Interrupt_INTx_Disable@ret& (0+255),b
  2862                           
  2863                           ;MCAL_LAYER/Interrupt/mcal_external_interrupt.c: 218:     } else {
  2864   0018F4  EFA3  F00C         	goto	l3968
  2865   0018F8                     l538:
  2866                           
  2867                           ; BSR set to: 0
  2868                           ;MCAL_LAYER/Interrupt/mcal_external_interrupt.c: 221:                 (INTCONbits.INT0IE
      +                           = 0);
  2869   0018F8  98F2               	bcf	242,4,c	;volatile
  2870                           
  2871                           ;MCAL_LAYER/Interrupt/mcal_external_interrupt.c: 222:                 break;
  2872   0018FA  EFA3  F00C         	goto	l3968
  2873   0018FE                     l540:
  2874                           
  2875                           ; BSR set to: 0
  2876                           ;MCAL_LAYER/Interrupt/mcal_external_interrupt.c: 224:                 (INTCON3bits.INT1I
      +                          E = 0);
  2877   0018FE  96F0               	bcf	240,3,c	;volatile
  2878                           
  2879                           ;MCAL_LAYER/Interrupt/mcal_external_interrupt.c: 225:                 break;
  2880   001900  EFA3  F00C         	goto	l3968
  2881   001904                     l541:
  2882                           
  2883                           ; BSR set to: 0
  2884                           ;MCAL_LAYER/Interrupt/mcal_external_interrupt.c: 227:                 (INTCON3bits.INT2I
      +                          E = 0);
  2885   001904  98F0               	bcf	240,4,c	;volatile
  2886                           
  2887                           ;MCAL_LAYER/Interrupt/mcal_external_interrupt.c: 228:                 break;
  2888   001906  EFA3  F00C         	goto	l3968
  2889   00190A                     l3966:
  2890                           
  2891                           ; BSR set to: 0
  2892   00190A  5180               	movf	Interrupt_INTx_Disable@obj& (0+255),w,b
  2893   00190C  6ED9               	movwf	fsr2l,c
  2894   00190E  6ADA               	clrf	fsr2h,c
  2895   001910  0E03               	movlw	3
  2896   001912  26D9               	addwf	fsr2l,f,c
  2897   001914  50DF               	movf	indf2,w,c
  2898   001916  6F81               	movwf	??_Interrupt_INTx_Disable& (0+255),b
  2899   001918  6B82               	clrf	(??_Interrupt_INTx_Disable+1)& (0+255),b
  2900                           
  2901                           ; Switch on 2 bytes has been partitioned into a top level switch of size 1, and 1 sub-sw
      +                          itches
  2902                           ; Switch size 1, requested type "simple"
  2903                           ; Number of cases is 1, Range of values is 0 to 0
  2904                           ; switch strategies available:
  2905                           ; Name         Instructions Cycles
  2906                           ; simple_byte            4     3 (average)
  2907                           ;	Chosen strategy is simple_byte
  2908   00191A  5182               	movf	(??_Interrupt_INTx_Disable+1)& (0+255),w,b
  2909   00191C  0A00               	xorlw	0	; case 0
  2910   00191E  B4D8               	btfsc	status,2,c
  2911   001920  EF94  F00C         	goto	l4958
  2912   001924  EF78  F00C         	goto	l3960
  2913   001928                     l4958:
  2914                           
  2915                           ; BSR set to: 0
  2916                           ; Switch size 1, requested type "simple"
  2917                           ; Number of cases is 3, Range of values is 0 to 2
  2918                           ; switch strategies available:
  2919                           ; Name         Instructions Cycles
  2920                           ; simple_byte           10     6 (average)
  2921                           ;	Chosen strategy is simple_byte
  2922   001928  5181               	movf	??_Interrupt_INTx_Disable& (0+255),w,b
  2923   00192A  0A00               	xorlw	0	; case 0
  2924   00192C  B4D8               	btfsc	status,2,c
  2925   00192E  EF7C  F00C         	goto	l538
  2926   001932  0A01               	xorlw	1	; case 1
  2927   001934  B4D8               	btfsc	status,2,c
  2928   001936  EF7F  F00C         	goto	l540
  2929   00193A  0A03               	xorlw	3	; case 2
  2930   00193C  B4D8               	btfsc	status,2,c
  2931   00193E  EF82  F00C         	goto	l541
  2932   001942  EF78  F00C         	goto	l3960
  2933   001946                     l3968:
  2934                           
  2935                           ; BSR set to: 0
  2936                           ;MCAL_LAYER/Interrupt/mcal_external_interrupt.c: 234:     return ret;
  2937   001946  5183               	movf	Interrupt_INTx_Disable@ret& (0+255),w,b
  2938   001948                     
  2939                           ; BSR set to: 0
  2940   001948  0012               	return		;funcret
  2941   00194A                     __end_of_Interrupt_INTx_Disable:
  2942                           	callstack 0
  2943                           
  2944 ;; *************** function _Interrupt_Manager_Low *****************
  2945 ;; Defined at:
  2946 ;;		line 26 in file "MCAL_LAYER/Interrupt/mcal_interrupt_manager.c"
  2947 ;; Parameters:    Size  Location     Type
  2948 ;;		None
  2949 ;; Auto vars:     Size  Location     Type
  2950 ;;		None
  2951 ;; Return value:  Size  Location     Type
  2952 ;;                  1    wreg      void 
  2953 ;; Registers used:
  2954 ;;		wreg, fsr2l, fsr2h, status,2, status,0, pcl, pclath, pclatu, tosl, prodl, prodh, cstack
  2955 ;; Tracked objects:
  2956 ;;		On entry : 0/0
  2957 ;;		On exit  : 0/0
  2958 ;;		Unchanged: 0/0
  2959 ;; Data sizes:     COMRAM   BANK0   BANK1   BANK2   BANK3   BANK4   BANK5   BANK6   BANK7   BANK8   BANK9  BANK10  BANK1
      +1  BANK12  BANK13  BANK14  BANK15
  2960 ;;      Params:         0       0       0       0       0       0       0       0       0       0       0       0       
      +0       0       0       0       0
  2961 ;;      Locals:         0       0       0       0       0       0       0       0       0       0       0       0       
      +0       0       0       0       0
  2962 ;;      Temps:          9       0       0       0       0       0       0       0       0       0       0       0       
      +0       0       0       0       0
  2963 ;;      Totals:         9       0       0       0       0       0       0       0       0       0       0       0       
      +0       0       0       0       0
  2964 ;;Total ram usage:        9 bytes
  2965 ;; Hardware stack levels used: 1
  2966 ;; Hardware stack levels required when called: 9
  2967 ;; This function calls:
  2968 ;;		_INT2_ISR
  2969 ;; This function is called by:
  2970 ;;		Interrupt level 1
  2971 ;; This function uses a non-reentrant model
  2972 ;;
  2973                           
  2974                           	psect	intcodelo
  2975   000018                     __pintcodelo:
  2976                           	callstack 0
  2977   000018                     _Interrupt_Manager_Low:
  2978                           	callstack 16
  2979                           
  2980                           ; BSR set to: 0
  2981                           ;incstack = 0
  2982   000018  806F               	bsf	int$flags,0,c	;set compiler interrupt flag (level 1)
  2983   00001A  CFD8 F048          	movff	status,??_Interrupt_Manager_Low
  2984   00001E  CFE8 F049          	movff	wreg,??_Interrupt_Manager_Low+1
  2985   000022  CFE0 F04A          	movff	bsr,??_Interrupt_Manager_Low+2
  2986   000026  CFFA F04B          	movff	pclath,??_Interrupt_Manager_Low+3
  2987   00002A  CFFB F04C          	movff	pclatu,??_Interrupt_Manager_Low+4
  2988   00002E  CFD9 F04D          	movff	fsr2l,??_Interrupt_Manager_Low+5
  2989   000032  CFDA F04E          	movff	fsr2h,??_Interrupt_Manager_Low+6
  2990   000036  CFF3 F04F          	movff	prodl,??_Interrupt_Manager_Low+7
  2991   00003A  CFF4 F050          	movff	prodh,??_Interrupt_Manager_Low+8
  2992   00003E                     
  2993                           ;MCAL_LAYER/Interrupt/mcal_interrupt_manager.c: 28:     if ((INTCON3bits.INT2IE == 1) &&
      +                           (INTCON3bits.INT2IF == 1)) {
  2994   00003E  A8F0               	btfss	240,4,c	;volatile
  2995   000040  EF24  F000         	goto	i1u258_21
  2996   000044  EF26  F000         	goto	i1u258_20
  2997   000048                     i1u258_21:
  2998   000048  EF2F  F000         	goto	i1l694
  2999   00004C                     i1u258_20:
  3000   00004C  A2F0               	btfss	240,1,c	;volatile
  3001   00004E  EF2B  F000         	goto	i1u259_21
  3002   000052  EF2D  F000         	goto	i1u259_20
  3003   000056                     i1u259_21:
  3004   000056  EF2F  F000         	goto	i1l694
  3005   00005A                     i1u259_20:
  3006   00005A                     
  3007                           ;MCAL_LAYER/Interrupt/mcal_interrupt_manager.c: 29:         INT2_ISR();
  3008   00005A  EC68  F00D         	call	_INT2_ISR	;wreg free
  3009   00005E                     i1l694:
  3010   00005E  C050  FFF4         	movff	??_Interrupt_Manager_Low+8,prodh
  3011   000062  C04F  FFF3         	movff	??_Interrupt_Manager_Low+7,prodl
  3012   000066  C04E  FFDA         	movff	??_Interrupt_Manager_Low+6,fsr2h
  3013   00006A  C04D  FFD9         	movff	??_Interrupt_Manager_Low+5,fsr2l
  3014   00006E  C04C  FFFB         	movff	??_Interrupt_Manager_Low+4,pclatu
  3015   000072  C04B  FFFA         	movff	??_Interrupt_Manager_Low+3,pclath
  3016   000076  C04A  FFE0         	movff	??_Interrupt_Manager_Low+2,bsr
  3017   00007A  C049  FFE8         	movff	??_Interrupt_Manager_Low+1,wreg
  3018   00007E  C048  FFD8         	movff	??_Interrupt_Manager_Low,status
  3019   000082  906F               	bcf	int$flags,0,c	;clear compiler interrupt flag (level 1)
  3020   000084  0010               	retfie	
  3021   000086                     __end_of_Interrupt_Manager_Low:
  3022                           	callstack 0
  3023                           
  3024 ;; *************** function _INT2_ISR *****************
  3025 ;; Defined at:
  3026 ;;		line 466 in file "MCAL_LAYER/Interrupt/mcal_external_interrupt.c"
  3027 ;; Parameters:    Size  Location     Type
  3028 ;;		None
  3029 ;; Auto vars:     Size  Location     Type
  3030 ;;		None
  3031 ;; Return value:  Size  Location     Type
  3032 ;;                  1    wreg      void 
  3033 ;; Registers used:
  3034 ;;		wreg, fsr2l, fsr2h, status,2, status,0, pcl, pclath, pclatu, tosl, prodl, prodh, cstack
  3035 ;; Tracked objects:
  3036 ;;		On entry : 0/0
  3037 ;;		On exit  : 0/0
  3038 ;;		Unchanged: 0/0
  3039 ;; Data sizes:     COMRAM   BANK0   BANK1   BANK2   BANK3   BANK4   BANK5   BANK6   BANK7   BANK8   BANK9  BANK10  BANK1
      +1  BANK12  BANK13  BANK14  BANK15
  3040 ;;      Params:         0       0       0       0       0       0       0       0       0       0       0       0       
      +0       0       0       0       0
  3041 ;;      Locals:         0       0       0       0       0       0       0       0       0       0       0       0       
      +0       0       0       0       0
  3042 ;;      Temps:          0       0       0       0       0       0       0       0       0       0       0       0       
      +0       0       0       0       0
  3043 ;;      Totals:         0       0       0       0       0       0       0       0       0       0       0       0       
      +0       0       0       0       0
  3044 ;;Total ram usage:        0 bytes
  3045 ;; Hardware stack levels used: 1
  3046 ;; Hardware stack levels required when called: 8
  3047 ;; This function calls:
  3048 ;;		NULL
  3049 ;;		_timer_increment
  3050 ;; This function is called by:
  3051 ;;		_Interrupt_Manager_Low
  3052 ;; This function uses a non-reentrant model
  3053 ;;
  3054                           
  3055                           	psect	text20
  3056   001AD0                     __ptext20:
  3057                           	callstack 0
  3058   001AD0                     _INT2_ISR:
  3059                           	callstack 16
  3060   001AD0                     
  3061                           ;MCAL_LAYER/Interrupt/mcal_external_interrupt.c: 467:     (INTCON3bits.INT2IF = 0);
  3062   001AD0  92F0               	bcf	240,1,c	;volatile
  3063   001AD2                     
  3064                           ;MCAL_LAYER/Interrupt/mcal_external_interrupt.c: 468:     if (INT2_Interrupt_Handler)
  3065   001AD2  5061               	movf	_INT2_Interrupt_Handler^0,w,c
  3066   001AD4  1062               	iorwf	(_INT2_Interrupt_Handler+1)^0,w,c
  3067   001AD6  B4D8               	btfsc	status,2,c
  3068   001AD8  EF70  F00D         	goto	i1u213_21
  3069   001ADC  EF72  F00D         	goto	i1u213_20
  3070   001AE0                     i1u213_21:
  3071   001AE0  EF7E  F00D         	goto	i1l631
  3072   001AE4                     i1u213_20:
  3073   001AE4                     
  3074                           ;MCAL_LAYER/Interrupt/mcal_external_interrupt.c: 469:         INT2_Interrupt_Handler();
  3075   001AE4  D802               	call	i1u214_28
  3076   001AE6  EF7E  F00D         	goto	i1u214_29
  3077   001AEA                     i1u214_28:
  3078   001AEA  0005               	push	
  3079   001AEC  6EFA               	movwf	pclath,c
  3080   001AEE  5061               	movf	_INT2_Interrupt_Handler^0,w,c
  3081   001AF0  6EFD               	movwf	tosl,c
  3082   001AF2  5062               	movf	(_INT2_Interrupt_Handler+1)^0,w,c
  3083   001AF4  6EFE               	movwf	tosh,c
  3084   001AF6  6AFF               	clrf	tosu,c
  3085   001AF8  50FA               	movf	pclath,w,c
  3086   001AFA  0012               	return		;indir
  3087   001AFC                     i1u214_29:
  3088   001AFC                     i1l631:
  3089   001AFC  0012               	return		;funcret
  3090   001AFE                     __end_of_INT2_ISR:
  3091                           	callstack 0
  3092                           
  3093 ;; *************** function _timer_increment *****************
  3094 ;; Defined at:
  3095 ;;		line 41 in file "app.c"
  3096 ;; Parameters:    Size  Location     Type
  3097 ;;		None
  3098 ;; Auto vars:     Size  Location     Type
  3099 ;;		None
  3100 ;; Return value:  Size  Location     Type
  3101 ;;                  1    wreg      void 
  3102 ;; Registers used:
  3103 ;;		wreg, fsr2l, fsr2h, status,2, status,0, prodl, prodh, cstack
  3104 ;; Tracked objects:
  3105 ;;		On entry : 0/0
  3106 ;;		On exit  : 0/0
  3107 ;;		Unchanged: 0/0
  3108 ;; Data sizes:     COMRAM   BANK0   BANK1   BANK2   BANK3   BANK4   BANK5   BANK6   BANK7   BANK8   BANK9  BANK10  BANK1
      +1  BANK12  BANK13  BANK14  BANK15
  3109 ;;      Params:         0       0       0       0       0       0       0       0       0       0       0       0       
      +0       0       0       0       0
  3110 ;;      Locals:         0       0       0       0       0       0       0       0       0       0       0       0       
      +0       0       0       0       0
  3111 ;;      Temps:          0       0       0       0       0       0       0       0       0       0       0       0       
      +0       0       0       0       0
  3112 ;;      Totals:         0       0       0       0       0       0       0       0       0       0       0       0       
      +0       0       0       0       0
  3113 ;;Total ram usage:        0 bytes
  3114 ;; Hardware stack levels used: 1
  3115 ;; Hardware stack levels required when called: 7
  3116 ;; This function calls:
  3117 ;;		_led_toggle_status
  3118 ;; This function is called by:
  3119 ;;		_INT0_ISR
  3120 ;;		_INT1_ISR
  3121 ;;		_INT2_ISR
  3122 ;; This function uses a non-reentrant model
  3123 ;;
  3124                           
  3125                           	psect	text21
  3126   001C26                     __ptext21:
  3127                           	callstack 0
  3128   001C26                     _timer_increment:
  3129                           	callstack 0
  3130                           
  3131                           ;Skip over the trampoline to the duplicate function for level 2
  3132   001C26  A26F               	btfss	int$flags,1,c
  3133   001C28  EF18  F00E         	goto	_timer_increment$intlevel1
  3134   001C2C  EF33  F00E         	goto	i2_timer_increment
  3135   001C30                     _timer_increment$intlevel1:
  3136                           	callstack 16
  3137   001C30                     
  3138                           ;app.c: 42:     timer++;
  3139   001C30  2A67               	incf	_timer^0,f,c
  3140   001C32                     
  3141                           ;app.c: 43:     ret = led_toggle_status(&led);
  3142   001C32  0E2F               	movlw	low _led
  3143   001C34  6E44               	movwf	led_toggle_status@Led^0,c
  3144   001C36  ECF9  F00B         	call	_led_toggle_status	;wreg free
  3145   001C3A  6E1F               	movwf	_ret^0,c
  3146   001C3C  0012               	return		;funcret
  3147   001C3E                     __end_of_timer_increment:
  3148                           	callstack 0
  3149                           
  3150 ;; *************** function _led_toggle_status *****************
  3151 ;; Defined at:
  3152 ;;		line 87 in file "ECU_LAYER/Led/ecu_led.c"
  3153 ;; Parameters:    Size  Location     Type
  3154 ;;  Led             1   20[COMRAM] PTR const struct .
  3155 ;;		 -> led(1), 
  3156 ;; Auto vars:     Size  Location     Type
  3157 ;;  pin_obj         1   23[COMRAM] struct .
  3158 ;;  ret             1   22[COMRAM] unsigned char 
  3159 ;; Return value:  Size  Location     Type
  3160 ;;                  1    wreg      unsigned char 
  3161 ;; Registers used:
  3162 ;;		wreg, fsr2l, fsr2h, status,2, status,0, prodl, prodh, cstack
  3163 ;; Tracked objects:
  3164 ;;		On entry : 0/0
  3165 ;;		On exit  : 0/0
  3166 ;;		Unchanged: 0/0
  3167 ;; Data sizes:     COMRAM   BANK0   BANK1   BANK2   BANK3   BANK4   BANK5   BANK6   BANK7   BANK8   BANK9  BANK10  BANK1
      +1  BANK12  BANK13  BANK14  BANK15
  3168 ;;      Params:         1       0       0       0       0       0       0       0       0       0       0       0       
      +0       0       0       0       0
  3169 ;;      Locals:         2       0       0       0       0       0       0       0       0       0       0       0       
      +0       0       0       0       0
  3170 ;;      Temps:          1       0       0       0       0       0       0       0       0       0       0       0       
      +0       0       0       0       0
  3171 ;;      Totals:         4       0       0       0       0       0       0       0       0       0       0       0       
      +0       0       0       0       0
  3172 ;;Total ram usage:        4 bytes
  3173 ;; Hardware stack levels used: 1
  3174 ;; Hardware stack levels required when called: 6
  3175 ;; This function calls:
  3176 ;;		_gpio_pin_toggle_logic
  3177 ;; This function is called by:
  3178 ;;		_timer_increment
  3179 ;; This function uses a non-reentrant model
  3180 ;;
  3181                           
  3182                           	psect	text22
  3183   0017F2                     __ptext22:
  3184                           	callstack 0
  3185   0017F2                     _led_toggle_status:
  3186                           	callstack 16
  3187   0017F2                     
  3188                           ;ECU_LAYER/Led/ecu_led.c: 88:     Std_ReturnType ret = (Std_ReturnType)0X01;
  3189   0017F2  0E01               	movlw	1
  3190   0017F4  6E46               	movwf	led_toggle_status@ret^0,c
  3191                           
  3192                           ;ECU_LAYER/Led/ecu_led.c: 89:     if (((void*)0) == Led) {
  3193   0017F6  5044               	movf	led_toggle_status@Led^0,w,c
  3194   0017F8  A4D8               	btfss	status,2,c
  3195   0017FA  EF01  F00C         	goto	i1u169_21
  3196   0017FE  EF03  F00C         	goto	i1u169_20
  3197   001802                     i1u169_21:
  3198   001802  EF07  F00C         	goto	i1l272
  3199   001806                     i1u169_20:
  3200   001806                     
  3201                           ;ECU_LAYER/Led/ecu_led.c: 90:         ret = (Std_ReturnType)0X00;
  3202   001806  0E00               	movlw	0
  3203   001808  6E46               	movwf	led_toggle_status@ret^0,c
  3204                           
  3205                           ;ECU_LAYER/Led/ecu_led.c: 91:     } else {
  3206   00180A  EF31  F00C         	goto	i1l2912
  3207   00180E                     i1l272:
  3208                           
  3209                           ;ECU_LAYER/Led/ecu_led.c: 93:         pin_config_t pin_obj = {
  3210   00180E  C06B  F047         	movff	led_toggle_status@F3497,led_toggle_status@pin_obj
  3211   001812  5044               	movf	led_toggle_status@Led^0,w,c
  3212   001814  6ED9               	movwf	fsr2l,c
  3213   001816  6ADA               	clrf	fsr2h,c
  3214   001818  50DF               	movf	223,w,c
  3215   00181A  0B07               	andlw	7
  3216   00181C  6E45               	movwf	??_led_toggle_status^0,c
  3217   00181E  5047               	movf	led_toggle_status@pin_obj^0,w,c
  3218   001820  1845               	xorwf	??_led_toggle_status^0,w,c
  3219   001822  0BF8               	andlw	-8
  3220   001824  1845               	xorwf	??_led_toggle_status^0,w,c
  3221   001826  6E47               	movwf	led_toggle_status@pin_obj^0,c
  3222   001828  5044               	movf	led_toggle_status@Led^0,w,c
  3223   00182A  6ED9               	movwf	fsr2l,c
  3224   00182C  6ADA               	clrf	fsr2h,c
  3225   00182E  30DF               	rrcf	223,w,c
  3226   001830  32E8               	rrcf	wreg,f,c
  3227   001832  32E8               	rrcf	wreg,f,c
  3228   001834  0B07               	andlw	7
  3229   001836  6E45               	movwf	??_led_toggle_status^0,c
  3230   001838  4645               	rlncf	??_led_toggle_status^0,f,c
  3231   00183A  4645               	rlncf	??_led_toggle_status^0,f,c
  3232   00183C  4645               	rlncf	??_led_toggle_status^0,f,c
  3233   00183E  5047               	movf	led_toggle_status@pin_obj^0,w,c
  3234   001840  1845               	xorwf	??_led_toggle_status^0,w,c
  3235   001842  0BC7               	andlw	-57
  3236   001844  1845               	xorwf	??_led_toggle_status^0,w,c
  3237   001846  6E47               	movwf	led_toggle_status@pin_obj^0,c
  3238   001848  9C47               	bcf	led_toggle_status@pin_obj^0,6,c
  3239   00184A  5044               	movf	led_toggle_status@Led^0,w,c
  3240   00184C  6ED9               	movwf	fsr2l,c
  3241   00184E  6ADA               	clrf	fsr2h,c
  3242   001850  ACDF               	btfss	indf2,6,c
  3243   001852  D002               	bra	i1u170_25
  3244   001854  8E47               	bsf	led_toggle_status@pin_obj^0,7,c
  3245   001856  D001               	bra	i1u170_27
  3246   001858                     i1u170_25:
  3247   001858  9E47               	bcf	led_toggle_status@pin_obj^0,7,c
  3248   00185A                     i1u170_27:
  3249   00185A                     
  3250                           ;ECU_LAYER/Led/ecu_led.c: 99:         gpio_pin_toggle_logic(&pin_obj);
  3251   00185A  0E47               	movlw	low led_toggle_status@pin_obj
  3252   00185C  6E3F               	movwf	gpio_pin_toggle_logic@_pin_config^0,c
  3253   00185E  ECFF  F00A         	call	_gpio_pin_toggle_logic	;wreg free
  3254   001862                     i1l2912:
  3255                           
  3256                           ;ECU_LAYER/Led/ecu_led.c: 101:     return ret;
  3257   001862  5046               	movf	led_toggle_status@ret^0,w,c
  3258   001864  0012               	return		;funcret
  3259   001866                     __end_of_led_toggle_status:
  3260                           	callstack 0
  3261                           
  3262 ;; *************** function _gpio_pin_toggle_logic *****************
  3263 ;; Defined at:
  3264 ;;		line 91 in file "MCAL_Layer/GPIO/hal_gpio.c"
  3265 ;; Parameters:    Size  Location     Type
  3266 ;;  _pin_config     1   15[COMRAM] PTR const struct .
  3267 ;;		 -> led_toggle_status@pin_obj(1), 
  3268 ;; Auto vars:     Size  Location     Type
  3269 ;;  ret             1    0        unsigned char 
  3270 ;; Return value:  Size  Location     Type
  3271 ;;                  1    wreg      unsigned char 
  3272 ;; Registers used:
  3273 ;;		wreg, fsr2l, fsr2h, status,2, status,0, prodl, prodh
  3274 ;; Tracked objects:
  3275 ;;		On entry : 0/0
  3276 ;;		On exit  : 0/0
  3277 ;;		Unchanged: 0/0
  3278 ;; Data sizes:     COMRAM   BANK0   BANK1   BANK2   BANK3   BANK4   BANK5   BANK6   BANK7   BANK8   BANK9  BANK10  BANK1
      +1  BANK12  BANK13  BANK14  BANK15
  3279 ;;      Params:         1       0       0       0       0       0       0       0       0       0       0       0       
      +0       0       0       0       0
  3280 ;;      Locals:         0       0       0       0       0       0       0       0       0       0       0       0       
      +0       0       0       0       0
  3281 ;;      Temps:          4       0       0       0       0       0       0       0       0       0       0       0       
      +0       0       0       0       0
  3282 ;;      Totals:         5       0       0       0       0       0       0       0       0       0       0       0       
      +0       0       0       0       0
  3283 ;;Total ram usage:        5 bytes
  3284 ;; Hardware stack levels used: 1
  3285 ;; Hardware stack levels required when called: 5
  3286 ;; This function calls:
  3287 ;;		Nothing
  3288 ;; This function is called by:
  3289 ;;		_led_toggle_status
  3290 ;; This function uses a non-reentrant model
  3291 ;;
  3292                           
  3293                           	psect	text23
  3294   0015FE                     __ptext23:
  3295                           	callstack 0
  3296   0015FE                     _gpio_pin_toggle_logic:
  3297                           	callstack 16
  3298   0015FE                     
  3299                           ;MCAL_Layer/GPIO/hal_gpio.c: 93:     if (((void*)0) == _pin_config || _pin_config->pin >
      +                           8 - 1) {
  3300   0015FE  503F               	movf	gpio_pin_toggle_logic@_pin_config^0,w,c
  3301   001600  B4D8               	btfsc	status,2,c
  3302   001602  EF05  F00B         	goto	i1u158_21
  3303   001606  EF07  F00B         	goto	i1u158_20
  3304   00160A                     i1u158_21:
  3305   00160A  EF17  F00B         	goto	i1l2832
  3306   00160E                     i1u158_20:
  3307   00160E  503F               	movf	gpio_pin_toggle_logic@_pin_config^0,w,c
  3308   001610  6ED9               	movwf	fsr2l,c
  3309   001612  6ADA               	clrf	fsr2h,c
  3310   001614  30DF               	rrcf	223,w,c
  3311   001616  32E8               	rrcf	wreg,f,c
  3312   001618  32E8               	rrcf	wreg,f,c
  3313   00161A  0B07               	andlw	7
  3314   00161C  6E40               	movwf	??_gpio_pin_toggle_logic^0,c
  3315   00161E  0E07               	movlw	7
  3316   001620  6440               	cpfsgt	??_gpio_pin_toggle_logic^0,c
  3317   001622  EF15  F00B         	goto	i1u159_21
  3318   001626  EF17  F00B         	goto	i1u159_20
  3319   00162A                     i1u159_21:
  3320   00162A  EF19  F00B         	goto	i1l2834
  3321   00162E                     i1u159_20:
  3322   00162E                     i1l2832:
  3323                           
  3324                           ;MCAL_Layer/GPIO/hal_gpio.c: 95:     } else {
  3325   00162E  EF3F  F00B         	goto	i1l409
  3326   001632                     i1l2834:
  3327                           
  3328                           ;MCAL_Layer/GPIO/hal_gpio.c: 96:         (*lat_registers[_pin_config->port] ^= ((uint8)1
      +                           << _pin_config->pin));
  3329   001632  503F               	movf	gpio_pin_toggle_logic@_pin_config^0,w,c
  3330   001634  6ED9               	movwf	fsr2l,c
  3331   001636  6ADA               	clrf	fsr2h,c
  3332   001638  30DF               	rrcf	223,w,c
  3333   00163A  32E8               	rrcf	wreg,f,c
  3334   00163C  32E8               	rrcf	wreg,f,c
  3335   00163E  0B07               	andlw	7
  3336   001640  6E40               	movwf	??_gpio_pin_toggle_logic^0,c
  3337   001642  0E01               	movlw	1
  3338   001644  6E41               	movwf	(??_gpio_pin_toggle_logic+1)^0,c
  3339   001646  2A40               	incf	??_gpio_pin_toggle_logic^0,f,c
  3340   001648  EF28  F00B         	goto	i1u160_24
  3341   00164C                     i1u160_25:
  3342   00164C  90D8               	bcf	status,0,c
  3343   00164E  3641               	rlcf	(??_gpio_pin_toggle_logic+1)^0,f,c
  3344   001650                     i1u160_24:
  3345   001650  2E40               	decfsz	??_gpio_pin_toggle_logic^0,f,c
  3346   001652  EF26  F00B         	goto	i1u160_25
  3347   001656  503F               	movf	gpio_pin_toggle_logic@_pin_config^0,w,c
  3348   001658  6ED9               	movwf	fsr2l,c
  3349   00165A  6ADA               	clrf	fsr2h,c
  3350   00165C  50DF               	movf	223,w,c
  3351   00165E  0B07               	andlw	7
  3352   001660  0D02               	mullw	2
  3353   001662  50F3               	movf	243,w,c
  3354   001664  0F0B               	addlw	low _lat_registers
  3355   001666  6ED9               	movwf	fsr2l,c
  3356   001668  6ADA               	clrf	fsr2h,c
  3357   00166A  CFDE F042          	movff	postinc2,??_gpio_pin_toggle_logic+2
  3358   00166E  CFDD F043          	movff	postdec2,??_gpio_pin_toggle_logic+3
  3359   001672  C042  FFD9         	movff	??_gpio_pin_toggle_logic+2,fsr2l
  3360   001676  C043  FFDA         	movff	??_gpio_pin_toggle_logic+3,fsr2h
  3361   00167A  5041               	movf	(??_gpio_pin_toggle_logic+1)^0,w,c
  3362   00167C  1ADF               	xorwf	indf2,f,c
  3363   00167E                     i1l409:
  3364   00167E  0012               	return		;funcret
  3365   001680                     __end_of_gpio_pin_toggle_logic:
  3366                           	callstack 0
  3367                           
  3368 ;; *************** function _Interrupt_Manager_High *****************
  3369 ;; Defined at:
  3370 ;;		line 14 in file "MCAL_LAYER/Interrupt/mcal_interrupt_manager.c"
  3371 ;; Parameters:    Size  Location     Type
  3372 ;;		None
  3373 ;; Auto vars:     Size  Location     Type
  3374 ;;		None
  3375 ;; Return value:  Size  Location     Type
  3376 ;;                  1    wreg      void 
  3377 ;; Registers used:
  3378 ;;		wreg, fsr2l, fsr2h, status,2, status,0, pcl, pclath, pclatu, tosl, prodl, prodh, cstack
  3379 ;; Tracked objects:
  3380 ;;		On entry : 0/0
  3381 ;;		On exit  : 0/0
  3382 ;;		Unchanged: 0/0
  3383 ;; Data sizes:     COMRAM   BANK0   BANK1   BANK2   BANK3   BANK4   BANK5   BANK6   BANK7   BANK8   BANK9  BANK10  BANK1
      +1  BANK12  BANK13  BANK14  BANK15
  3384 ;;      Params:         0       0       0       0       0       0       0       0       0       0       0       0       
      +0       0       0       0       0
  3385 ;;      Locals:         0       0       0       0       0       0       0       0       0       0       0       0       
      +0       0       0       0       0
  3386 ;;      Temps:          6       0       0       0       0       0       0       0       0       0       0       0       
      +0       0       0       0       0
  3387 ;;      Totals:         6       0       0       0       0       0       0       0       0       0       0       0       
      +0       0       0       0       0
  3388 ;;Total ram usage:        6 bytes
  3389 ;; Hardware stack levels used: 1
  3390 ;; Hardware stack levels required when called: 4
  3391 ;; This function calls:
  3392 ;;		_INT0_ISR
  3393 ;;		_INT1_ISR
  3394 ;; This function is called by:
  3395 ;;		Interrupt level 2
  3396 ;; This function uses a non-reentrant model
  3397 ;;
  3398                           
  3399                           	psect	intcode
  3400   000008                     __pintcode:
  3401                           	callstack 0
  3402   000008                     _Interrupt_Manager_High:
  3403                           	callstack 16
  3404                           
  3405                           ;incstack = 0
  3406   000008  826F               	bsf	int$flags,1,c	;set compiler interrupt flag (level 2)
  3407   00000A  EDBE  F00B         	call	int_func,f	;refresh shadow registers
  3408                           
  3409                           	psect	intcode_body
  3410   00177C                     __pintcode_body:
  3411                           	callstack 16
  3412   00177C                     int_func:
  3413                           	callstack 16
  3414   00177C  0006               	pop		; remove dummy address from shadow register refresh
  3415   00177E  CFFA F039          	movff	pclath,??_Interrupt_Manager_High
  3416   001782  CFFB F03A          	movff	pclatu,??_Interrupt_Manager_High+1
  3417   001786  CFD9 F03B          	movff	fsr2l,??_Interrupt_Manager_High+2
  3418   00178A  CFDA F03C          	movff	fsr2h,??_Interrupt_Manager_High+3
  3419   00178E  CFF3 F03D          	movff	prodl,??_Interrupt_Manager_High+4
  3420   001792  CFF4 F03E          	movff	prodh,??_Interrupt_Manager_High+5
  3421   001796                     
  3422                           ;MCAL_LAYER/Interrupt/mcal_interrupt_manager.c: 16:     if ((INTCONbits.INT0IE == 1) && 
      +                          (INTCONbits.INT0IF == 1)) {
  3423   001796  A8F2               	btfss	242,4,c	;volatile
  3424   001798  EFD0  F00B         	goto	i2u254_41
  3425   00179C  EFD2  F00B         	goto	i2u254_40
  3426   0017A0                     i2u254_41:
  3427   0017A0  EFDB  F00B         	goto	i2l3796
  3428   0017A4                     i2u254_40:
  3429   0017A4  A2F2               	btfss	242,1,c	;volatile
  3430   0017A6  EFD7  F00B         	goto	i2u255_41
  3431   0017AA  EFD9  F00B         	goto	i2u255_40
  3432   0017AE                     i2u255_41:
  3433   0017AE  EFDB  F00B         	goto	i2l3796
  3434   0017B2                     i2u255_40:
  3435   0017B2                     
  3436                           ;MCAL_LAYER/Interrupt/mcal_interrupt_manager.c: 17:         INT0_ISR();
  3437   0017B2  EC96  F00D         	call	_INT0_ISR	;wreg free
  3438   0017B6                     i2l3796:
  3439                           
  3440                           ;MCAL_LAYER/Interrupt/mcal_interrupt_manager.c: 20:     if ((INTCON3bits.INT1IE == 1) &&
      +                           (INTCON3bits.INT1IF == 1)) {
  3441   0017B6  A6F0               	btfss	240,3,c	;volatile
  3442   0017B8  EFE0  F00B         	goto	i2u256_41
  3443   0017BC  EFE2  F00B         	goto	i2u256_40
  3444   0017C0                     i2u256_41:
  3445   0017C0  EFEB  F00B         	goto	i2l688
  3446   0017C4                     i2u256_40:
  3447   0017C4  A0F0               	btfss	240,0,c	;volatile
  3448   0017C6  EFE7  F00B         	goto	i2u257_41
  3449   0017CA  EFE9  F00B         	goto	i2u257_40
  3450   0017CE                     i2u257_41:
  3451   0017CE  EFEB  F00B         	goto	i2l688
  3452   0017D2                     i2u257_40:
  3453   0017D2                     
  3454                           ;MCAL_LAYER/Interrupt/mcal_interrupt_manager.c: 21:         INT1_ISR();
  3455   0017D2  EC7F  F00D         	call	_INT1_ISR	;wreg free
  3456   0017D6                     i2l688:
  3457   0017D6  C03E  FFF4         	movff	??_Interrupt_Manager_High+5,prodh
  3458   0017DA  C03D  FFF3         	movff	??_Interrupt_Manager_High+4,prodl
  3459   0017DE  C03C  FFDA         	movff	??_Interrupt_Manager_High+3,fsr2h
  3460   0017E2  C03B  FFD9         	movff	??_Interrupt_Manager_High+2,fsr2l
  3461   0017E6  C03A  FFFB         	movff	??_Interrupt_Manager_High+1,pclatu
  3462   0017EA  C039  FFFA         	movff	??_Interrupt_Manager_High,pclath
  3463   0017EE  926F               	bcf	int$flags,1,c	;clear compiler interrupt flag (level 2)
  3464   0017F0  0011               	retfie		f
  3465   0017F2                     __end_of_Interrupt_Manager_High:
  3466                           	callstack 0
  3467                           
  3468 ;; *************** function _INT1_ISR *****************
  3469 ;; Defined at:
  3470 ;;		line 460 in file "MCAL_LAYER/Interrupt/mcal_external_interrupt.c"
  3471 ;; Parameters:    Size  Location     Type
  3472 ;;		None
  3473 ;; Auto vars:     Size  Location     Type
  3474 ;;		None
  3475 ;; Return value:  Size  Location     Type
  3476 ;;                  1    wreg      void 
  3477 ;; Registers used:
  3478 ;;		wreg, fsr2l, fsr2h, status,2, status,0, pcl, pclath, pclatu, tosl, prodl, prodh, cstack
  3479 ;; Tracked objects:
  3480 ;;		On entry : 0/0
  3481 ;;		On exit  : 0/0
  3482 ;;		Unchanged: 0/0
  3483 ;; Data sizes:     COMRAM   BANK0   BANK1   BANK2   BANK3   BANK4   BANK5   BANK6   BANK7   BANK8   BANK9  BANK10  BANK1
      +1  BANK12  BANK13  BANK14  BANK15
  3484 ;;      Params:         0       0       0       0       0       0       0       0       0       0       0       0       
      +0       0       0       0       0
  3485 ;;      Locals:         0       0       0       0       0       0       0       0       0       0       0       0       
      +0       0       0       0       0
  3486 ;;      Temps:          0       0       0       0       0       0       0       0       0       0       0       0       
      +0       0       0       0       0
  3487 ;;      Totals:         0       0       0       0       0       0       0       0       0       0       0       0       
      +0       0       0       0       0
  3488 ;;Total ram usage:        0 bytes
  3489 ;; Hardware stack levels used: 1
  3490 ;; Hardware stack levels required when called: 3
  3491 ;; This function calls:
  3492 ;;		NULL
  3493 ;;		i2_timer_increment
  3494 ;; This function is called by:
  3495 ;;		_Interrupt_Manager_High
  3496 ;; This function uses a non-reentrant model
  3497 ;;
  3498                           
  3499                           	psect	text25
  3500   001AFE                     __ptext25:
  3501                           	callstack 0
  3502   001AFE                     _INT1_ISR:
  3503                           	callstack 16
  3504   001AFE                     
  3505                           ;MCAL_LAYER/Interrupt/mcal_external_interrupt.c: 461:     (INTCON3bits.INT1IF = 0);
  3506   001AFE  90F0               	bcf	240,0,c	;volatile
  3507   001B00                     
  3508                           ;MCAL_LAYER/Interrupt/mcal_external_interrupt.c: 462:     if (INT1_Interrupt_Handler)
  3509   001B00  5063               	movf	_INT1_Interrupt_Handler^0,w,c
  3510   001B02  1064               	iorwf	(_INT1_Interrupt_Handler+1)^0,w,c
  3511   001B04  B4D8               	btfsc	status,2,c
  3512   001B06  EF87  F00D         	goto	i2u211_41
  3513   001B0A  EF89  F00D         	goto	i2u211_40
  3514   001B0E                     i2u211_41:
  3515   001B0E  EF95  F00D         	goto	i2l627
  3516   001B12                     i2u211_40:
  3517   001B12                     
  3518                           ;MCAL_LAYER/Interrupt/mcal_external_interrupt.c: 463:         INT1_Interrupt_Handler();
  3519   001B12  D802               	call	i2u212_48
  3520   001B14  EF95  F00D         	goto	i2u212_49
  3521   001B18                     i2u212_48:
  3522   001B18  0005               	push	
  3523   001B1A  6EFA               	movwf	pclath,c
  3524   001B1C  5063               	movf	_INT1_Interrupt_Handler^0,w,c
  3525   001B1E  6EFD               	movwf	tosl,c
  3526   001B20  5064               	movf	(_INT1_Interrupt_Handler+1)^0,w,c
  3527   001B22  6EFE               	movwf	tosh,c
  3528   001B24  6AFF               	clrf	tosu,c
  3529   001B26  50FA               	movf	pclath,w,c
  3530   001B28  0012               	return		;indir
  3531   001B2A                     i2u212_49:
  3532   001B2A                     i2l627:
  3533   001B2A  0012               	return		;funcret
  3534   001B2C                     __end_of_INT1_ISR:
  3535                           	callstack 0
  3536                           
  3537 ;; *************** function _INT0_ISR *****************
  3538 ;; Defined at:
  3539 ;;		line 454 in file "MCAL_LAYER/Interrupt/mcal_external_interrupt.c"
  3540 ;; Parameters:    Size  Location     Type
  3541 ;;		None
  3542 ;; Auto vars:     Size  Location     Type
  3543 ;;		None
  3544 ;; Return value:  Size  Location     Type
  3545 ;;                  1    wreg      void 
  3546 ;; Registers used:
  3547 ;;		wreg, fsr2l, fsr2h, status,2, status,0, pcl, pclath, pclatu, tosl, prodl, prodh, cstack
  3548 ;; Tracked objects:
  3549 ;;		On entry : 0/0
  3550 ;;		On exit  : 0/0
  3551 ;;		Unchanged: 0/0
  3552 ;; Data sizes:     COMRAM   BANK0   BANK1   BANK2   BANK3   BANK4   BANK5   BANK6   BANK7   BANK8   BANK9  BANK10  BANK1
      +1  BANK12  BANK13  BANK14  BANK15
  3553 ;;      Params:         0       0       0       0       0       0       0       0       0       0       0       0       
      +0       0       0       0       0
  3554 ;;      Locals:         0       0       0       0       0       0       0       0       0       0       0       0       
      +0       0       0       0       0
  3555 ;;      Temps:          0       0       0       0       0       0       0       0       0       0       0       0       
      +0       0       0       0       0
  3556 ;;      Totals:         0       0       0       0       0       0       0       0       0       0       0       0       
      +0       0       0       0       0
  3557 ;;Total ram usage:        0 bytes
  3558 ;; Hardware stack levels used: 1
  3559 ;; Hardware stack levels required when called: 3
  3560 ;; This function calls:
  3561 ;;		NULL
  3562 ;;		i2_timer_increment
  3563 ;; This function is called by:
  3564 ;;		_Interrupt_Manager_High
  3565 ;; This function uses a non-reentrant model
  3566 ;;
  3567                           
  3568                           	psect	text26
  3569   001B2C                     __ptext26:
  3570                           	callstack 0
  3571   001B2C                     _INT0_ISR:
  3572                           	callstack 16
  3573   001B2C                     
  3574                           ;MCAL_LAYER/Interrupt/mcal_external_interrupt.c: 455:     (INTCONbits.INT0IF = 0);
  3575   001B2C  92F2               	bcf	242,1,c	;volatile
  3576   001B2E                     
  3577                           ;MCAL_LAYER/Interrupt/mcal_external_interrupt.c: 456:     if (INT0_Interrupt_Handler)
  3578   001B2E  5065               	movf	_INT0_Interrupt_Handler^0,w,c
  3579   001B30  1066               	iorwf	(_INT0_Interrupt_Handler+1)^0,w,c
  3580   001B32  B4D8               	btfsc	status,2,c
  3581   001B34  EF9E  F00D         	goto	i2u209_41
  3582   001B38  EFA0  F00D         	goto	i2u209_40
  3583   001B3C                     i2u209_41:
  3584   001B3C  EFAC  F00D         	goto	i2l623
  3585   001B40                     i2u209_40:
  3586   001B40                     
  3587                           ;MCAL_LAYER/Interrupt/mcal_external_interrupt.c: 457:         INT0_Interrupt_Handler();
  3588   001B40  D802               	call	i2u210_48
  3589   001B42  EFAC  F00D         	goto	i2u210_49
  3590   001B46                     i2u210_48:
  3591   001B46  0005               	push	
  3592   001B48  6EFA               	movwf	pclath,c
  3593   001B4A  5065               	movf	_INT0_Interrupt_Handler^0,w,c
  3594   001B4C  6EFD               	movwf	tosl,c
  3595   001B4E  5066               	movf	(_INT0_Interrupt_Handler+1)^0,w,c
  3596   001B50  6EFE               	movwf	tosh,c
  3597   001B52  6AFF               	clrf	tosu,c
  3598   001B54  50FA               	movf	pclath,w,c
  3599   001B56  0012               	return		;indir
  3600   001B58                     i2u210_49:
  3601   001B58                     i2l623:
  3602   001B58  0012               	return		;funcret
  3603   001B5A                     __end_of_INT0_ISR:
  3604                           	callstack 0
  3605                           
  3606 ;; *************** function i2_timer_increment *****************
  3607 ;; Defined at:
  3608 ;;		line 41 in file "app.c"
  3609 ;; Parameters:    Size  Location     Type
  3610 ;;		None
  3611 ;; Auto vars:     Size  Location     Type
  3612 ;;		None
  3613 ;; Return value:  Size  Location     Type
  3614 ;;                  1    wreg      void 
  3615 ;; Registers used:
  3616 ;;		wreg, fsr2l, fsr2h, status,2, status,0, prodl, prodh, cstack
  3617 ;; Tracked objects:
  3618 ;;		On entry : 0/0
  3619 ;;		On exit  : 0/0
  3620 ;;		Unchanged: 0/0
  3621 ;; Data sizes:     COMRAM   BANK0   BANK1   BANK2   BANK3   BANK4   BANK5   BANK6   BANK7   BANK8   BANK9  BANK10  BANK1
      +1  BANK12  BANK13  BANK14  BANK15
  3622 ;;      Params:         0       0       0       0       0       0       0       0       0       0       0       0       
      +0       0       0       0       0
  3623 ;;      Locals:         0       0       0       0       0       0       0       0       0       0       0       0       
      +0       0       0       0       0
  3624 ;;      Temps:          0       0       0       0       0       0       0       0       0       0       0       0       
      +0       0       0       0       0
  3625 ;;      Totals:         0       0       0       0       0       0       0       0       0       0       0       0       
      +0       0       0       0       0
  3626 ;;Total ram usage:        0 bytes
  3627 ;; Hardware stack levels used: 1
  3628 ;; Hardware stack levels required when called: 2
  3629 ;; This function calls:
  3630 ;;		i2_led_toggle_status
  3631 ;; This function is called by:
  3632 ;;		_INT0_ISR
  3633 ;;		_INT1_ISR
  3634 ;;		_INT2_ISR
  3635 ;; This function uses a non-reentrant model
  3636 ;;
  3637                           
  3638                           	psect	text27
  3639   001C66                     __ptext27:
  3640                           	callstack 0
  3641   001C66                     i2_timer_increment:
  3642                           	callstack 16
  3643   001C66                     
  3644                           ;app.c: 42:     timer++;
  3645   001C66  2A67               	incf	_timer^0,f,c
  3646   001C68                     
  3647                           ;app.c: 43:     ret = led_toggle_status(&led);
  3648   001C68  0E2F               	movlw	low _led
  3649   001C6A  6E35               	movwf	i2led_toggle_status@Led^0,c
  3650   001C6C  EC33  F00C         	call	i2_led_toggle_status	;wreg free
  3651   001C70  6E1F               	movwf	_ret^0,c
  3652   001C72  0012               	return		;funcret
  3653   001C74                     __end_ofi2_timer_increment:
  3654                           	callstack 0
  3655                           
  3656 ;; *************** function i2_led_toggle_status *****************
  3657 ;; Defined at:
  3658 ;;		line 87 in file "ECU_LAYER/Led/ecu_led.c"
  3659 ;; Parameters:    Size  Location     Type
  3660 ;;  Led             1    5[COMRAM] PTR const struct .
  3661 ;;		 -> led(1), 
  3662 ;; Auto vars:     Size  Location     Type
  3663 ;;  pin_obj         1    8[COMRAM] struct .
  3664 ;;  ret             1    7[COMRAM] unsigned char 
  3665 ;; Return value:  Size  Location     Type
  3666 ;;                  1    wreg      unsigned char 
  3667 ;; Registers used:
  3668 ;;		wreg, fsr2l, fsr2h, status,2, status,0, prodl, prodh, cstack
  3669 ;; Tracked objects:
  3670 ;;		On entry : 0/0
  3671 ;;		On exit  : 0/0
  3672 ;;		Unchanged: 0/0
  3673 ;; Data sizes:     COMRAM   BANK0   BANK1   BANK2   BANK3   BANK4   BANK5   BANK6   BANK7   BANK8   BANK9  BANK10  BANK1
      +1  BANK12  BANK13  BANK14  BANK15
  3674 ;;      Params:         1       0       0       0       0       0       0       0       0       0       0       0       
      +0       0       0       0       0
  3675 ;;      Locals:         2       0       0       0       0       0       0       0       0       0       0       0       
      +0       0       0       0       0
  3676 ;;      Temps:          1       0       0       0       0       0       0       0       0       0       0       0       
      +0       0       0       0       0
  3677 ;;      Totals:         4       0       0       0       0       0       0       0       0       0       0       0       
      +0       0       0       0       0
  3678 ;;Total ram usage:        4 bytes
  3679 ;; Hardware stack levels used: 1
  3680 ;; Hardware stack levels required when called: 1
  3681 ;; This function calls:
  3682 ;;		i2_gpio_pin_toggle_logic
  3683 ;; This function is called by:
  3684 ;;		i2_timer_increment
  3685 ;; This function uses a non-reentrant model
  3686 ;;
  3687                           
  3688                           	psect	text28
  3689   001866                     __ptext28:
  3690                           	callstack 0
  3691   001866                     i2_led_toggle_status:
  3692                           	callstack 16
  3693   001866                     
  3694                           ;ECU_LAYER/Led/ecu_led.c: 88:     Std_ReturnType ret = (Std_ReturnType)0X01;
  3695   001866  0E01               	movlw	1
  3696   001868  6E37               	movwf	i2led_toggle_status@ret^0,c
  3697                           
  3698                           ;ECU_LAYER/Led/ecu_led.c: 89:     if (((void*)0) == Led) {
  3699   00186A  5035               	movf	i2led_toggle_status@Led^0,w,c
  3700   00186C  A4D8               	btfss	status,2,c
  3701   00186E  EF3B  F00C         	goto	i2u188_41
  3702   001872  EF3D  F00C         	goto	i2u188_40
  3703   001876                     i2u188_41:
  3704   001876  EF41  F00C         	goto	i2l272
  3705   00187A                     i2u188_40:
  3706   00187A                     
  3707                           ;ECU_LAYER/Led/ecu_led.c: 90:         ret = (Std_ReturnType)0X00;
  3708   00187A  0E00               	movlw	0
  3709   00187C  6E37               	movwf	i2led_toggle_status@ret^0,c
  3710                           
  3711                           ;ECU_LAYER/Led/ecu_led.c: 91:     } else {
  3712   00187E  EF6B  F00C         	goto	i2l3082
  3713   001882                     i2l272:
  3714                           
  3715                           ;ECU_LAYER/Led/ecu_led.c: 93:         pin_config_t pin_obj = {
  3716   001882  C06B  F038         	movff	led_toggle_status@F3497,i2led_toggle_status@pin_obj
  3717   001886  5035               	movf	i2led_toggle_status@Led^0,w,c
  3718   001888  6ED9               	movwf	fsr2l,c
  3719   00188A  6ADA               	clrf	fsr2h,c
  3720   00188C  50DF               	movf	223,w,c
  3721   00188E  0B07               	andlw	7
  3722   001890  6E36               	movwf	??i2_led_toggle_status^0,c
  3723   001892  5038               	movf	i2led_toggle_status@pin_obj^0,w,c
  3724   001894  1836               	xorwf	??i2_led_toggle_status^0,w,c
  3725   001896  0BF8               	andlw	-8
  3726   001898  1836               	xorwf	??i2_led_toggle_status^0,w,c
  3727   00189A  6E38               	movwf	i2led_toggle_status@pin_obj^0,c
  3728   00189C  5035               	movf	i2led_toggle_status@Led^0,w,c
  3729   00189E  6ED9               	movwf	fsr2l,c
  3730   0018A0  6ADA               	clrf	fsr2h,c
  3731   0018A2  30DF               	rrcf	223,w,c
  3732   0018A4  32E8               	rrcf	wreg,f,c
  3733   0018A6  32E8               	rrcf	wreg,f,c
  3734   0018A8  0B07               	andlw	7
  3735   0018AA  6E36               	movwf	??i2_led_toggle_status^0,c
  3736   0018AC  4636               	rlncf	??i2_led_toggle_status^0,f,c
  3737   0018AE  4636               	rlncf	??i2_led_toggle_status^0,f,c
  3738   0018B0  4636               	rlncf	??i2_led_toggle_status^0,f,c
  3739   0018B2  5038               	movf	i2led_toggle_status@pin_obj^0,w,c
  3740   0018B4  1836               	xorwf	??i2_led_toggle_status^0,w,c
  3741   0018B6  0BC7               	andlw	-57
  3742   0018B8  1836               	xorwf	??i2_led_toggle_status^0,w,c
  3743   0018BA  6E38               	movwf	i2led_toggle_status@pin_obj^0,c
  3744   0018BC  9C38               	bcf	i2led_toggle_status@pin_obj^0,6,c
  3745   0018BE  5035               	movf	i2led_toggle_status@Led^0,w,c
  3746   0018C0  6ED9               	movwf	fsr2l,c
  3747   0018C2  6ADA               	clrf	fsr2h,c
  3748   0018C4  ACDF               	btfss	indf2,6,c
  3749   0018C6  D002               	bra	i2u189_45
  3750   0018C8  8E38               	bsf	i2led_toggle_status@pin_obj^0,7,c
  3751   0018CA  D001               	bra	i2u189_47
  3752   0018CC                     i2u189_45:
  3753   0018CC  9E38               	bcf	i2led_toggle_status@pin_obj^0,7,c
  3754   0018CE                     i2u189_47:
  3755   0018CE                     
  3756                           ;ECU_LAYER/Led/ecu_led.c: 99:         gpio_pin_toggle_logic(&pin_obj);
  3757   0018CE  0E38               	movlw	low i2led_toggle_status@pin_obj
  3758   0018D0  6E30               	movwf	i2gpio_pin_toggle_logic@_pin_config^0,c
  3759   0018D2  EC40  F00B         	call	i2_gpio_pin_toggle_logic	;wreg free
  3760   0018D6                     i2l3082:
  3761                           
  3762                           ;ECU_LAYER/Led/ecu_led.c: 101:     return ret;
  3763   0018D6  5037               	movf	i2led_toggle_status@ret^0,w,c
  3764   0018D8  0012               	return		;funcret
  3765   0018DA                     __end_ofi2_led_toggle_status:
  3766                           	callstack 0
  3767                           
  3768 ;; *************** function i2_gpio_pin_toggle_logic *****************
  3769 ;; Defined at:
  3770 ;;		line 91 in file "MCAL_Layer/GPIO/hal_gpio.c"
  3771 ;; Parameters:    Size  Location     Type
  3772 ;;  _pin_config     1    0[COMRAM] PTR const struct .
  3773 ;;		 -> i2led_toggle_status@pin_obj(1), led_toggle_status@pin_obj(1), 
  3774 ;; Auto vars:     Size  Location     Type
  3775 ;;  ret             1    0        unsigned char 
  3776 ;; Return value:  Size  Location     Type
  3777 ;;                  1    wreg      unsigned char 
  3778 ;; Registers used:
  3779 ;;		wreg, fsr2l, fsr2h, status,2, status,0, prodl, prodh
  3780 ;; Tracked objects:
  3781 ;;		On entry : 0/0
  3782 ;;		On exit  : 0/0
  3783 ;;		Unchanged: 0/0
  3784 ;; Data sizes:     COMRAM   BANK0   BANK1   BANK2   BANK3   BANK4   BANK5   BANK6   BANK7   BANK8   BANK9  BANK10  BANK1
      +1  BANK12  BANK13  BANK14  BANK15
  3785 ;;      Params:         1       0       0       0       0       0       0       0       0       0       0       0       
      +0       0       0       0       0
  3786 ;;      Locals:         0       0       0       0       0       0       0       0       0       0       0       0       
      +0       0       0       0       0
  3787 ;;      Temps:          4       0       0       0       0       0       0       0       0       0       0       0       
      +0       0       0       0       0
  3788 ;;      Totals:         5       0       0       0       0       0       0       0       0       0       0       0       
      +0       0       0       0       0
  3789 ;;Total ram usage:        5 bytes
  3790 ;; Hardware stack levels used: 1
  3791 ;; This function calls:
  3792 ;;		Nothing
  3793 ;; This function is called by:
  3794 ;;		i2_led_toggle_status
  3795 ;; This function uses a non-reentrant model
  3796 ;;
  3797                           
  3798                           	psect	text29
  3799   001680                     __ptext29:
  3800                           	callstack 0
  3801   001680                     i2_gpio_pin_toggle_logic:
  3802                           	callstack 16
  3803   001680                     
  3804                           ;MCAL_Layer/GPIO/hal_gpio.c: 93:     if (((void*)0) == _pin_config || _pin_config->pin >
      +                           8 - 1) {
  3805   001680  5030               	movf	i2gpio_pin_toggle_logic@_pin_config^0,w,c
  3806   001682  B4D8               	btfsc	status,2,c
  3807   001684  EF46  F00B         	goto	i2u164_41
  3808   001688  EF48  F00B         	goto	i2u164_40
  3809   00168C                     i2u164_41:
  3810   00168C  EF58  F00B         	goto	i2l2878
  3811   001690                     i2u164_40:
  3812   001690  5030               	movf	i2gpio_pin_toggle_logic@_pin_config^0,w,c
  3813   001692  6ED9               	movwf	fsr2l,c
  3814   001694  6ADA               	clrf	fsr2h,c
  3815   001696  30DF               	rrcf	223,w,c
  3816   001698  32E8               	rrcf	wreg,f,c
  3817   00169A  32E8               	rrcf	wreg,f,c
  3818   00169C  0B07               	andlw	7
  3819   00169E  6E31               	movwf	??i2_gpio_pin_toggle_logic^0,c
  3820   0016A0  0E07               	movlw	7
  3821   0016A2  6431               	cpfsgt	??i2_gpio_pin_toggle_logic^0,c
  3822   0016A4  EF56  F00B         	goto	i2u165_41
  3823   0016A8  EF58  F00B         	goto	i2u165_40
  3824   0016AC                     i2u165_41:
  3825   0016AC  EF5A  F00B         	goto	i2l2880
  3826   0016B0                     i2u165_40:
  3827   0016B0                     i2l2878:
  3828                           
  3829                           ;MCAL_Layer/GPIO/hal_gpio.c: 95:     } else {
  3830   0016B0  EF80  F00B         	goto	i2l409
  3831   0016B4                     i2l2880:
  3832                           
  3833                           ;MCAL_Layer/GPIO/hal_gpio.c: 96:         (*lat_registers[_pin_config->port] ^= ((uint8)1
      +                           << _pin_config->pin));
  3834   0016B4  5030               	movf	i2gpio_pin_toggle_logic@_pin_config^0,w,c
  3835   0016B6  6ED9               	movwf	fsr2l,c
  3836   0016B8  6ADA               	clrf	fsr2h,c
  3837   0016BA  30DF               	rrcf	223,w,c
  3838   0016BC  32E8               	rrcf	wreg,f,c
  3839   0016BE  32E8               	rrcf	wreg,f,c
  3840   0016C0  0B07               	andlw	7
  3841   0016C2  6E31               	movwf	??i2_gpio_pin_toggle_logic^0,c
  3842   0016C4  0E01               	movlw	1
  3843   0016C6  6E32               	movwf	(??i2_gpio_pin_toggle_logic+1)^0,c
  3844   0016C8  2A31               	incf	??i2_gpio_pin_toggle_logic^0,f,c
  3845   0016CA  EF69  F00B         	goto	i2u166_44
  3846   0016CE                     i2u166_45:
  3847   0016CE  90D8               	bcf	status,0,c
  3848   0016D0  3632               	rlcf	(??i2_gpio_pin_toggle_logic+1)^0,f,c
  3849   0016D2                     i2u166_44:
  3850   0016D2  2E31               	decfsz	??i2_gpio_pin_toggle_logic^0,f,c
  3851   0016D4  EF67  F00B         	goto	i2u166_45
  3852   0016D8  5030               	movf	i2gpio_pin_toggle_logic@_pin_config^0,w,c
  3853   0016DA  6ED9               	movwf	fsr2l,c
  3854   0016DC  6ADA               	clrf	fsr2h,c
  3855   0016DE  50DF               	movf	223,w,c
  3856   0016E0  0B07               	andlw	7
  3857   0016E2  0D02               	mullw	2
  3858   0016E4  50F3               	movf	243,w,c
  3859   0016E6  0F0B               	addlw	low _lat_registers
  3860   0016E8  6ED9               	movwf	fsr2l,c
  3861   0016EA  6ADA               	clrf	fsr2h,c
  3862   0016EC  CFDE F033          	movff	postinc2,??i2_gpio_pin_toggle_logic+2
  3863   0016F0  CFDD F034          	movff	postdec2,??i2_gpio_pin_toggle_logic+3
  3864   0016F4  C033  FFD9         	movff	??i2_gpio_pin_toggle_logic+2,fsr2l
  3865   0016F8  C034  FFDA         	movff	??i2_gpio_pin_toggle_logic+3,fsr2h
  3866   0016FC  5032               	movf	(??i2_gpio_pin_toggle_logic+1)^0,w,c
  3867   0016FE  1ADF               	xorwf	indf2,f,c
  3868   001700                     i2l409:
  3869   001700  0012               	return		;funcret
  3870   001702                     __end_ofi2_gpio_pin_toggle_logic:
  3871                           	callstack 0
  3872                           
  3873                           	psect	text30
  3874   000000                     __ptext30:
  3875                           	callstack 0
  3876   000000                     
  3877                           	psect	rparam
  3878   000000                     
  3879                           	psect	temp
  3880   00006F                     btemp:
  3881                           	callstack 0
  3882   00006F                     	ds	1
  3883   000000                     int$flags	set	btemp
  3884   000000                     wtemp8	set	btemp+1
  3885   000000                     ttemp5	set	btemp+1
  3886   000000                     ttemp6	set	btemp+4
  3887   000000                     ttemp7	set	btemp+8
  3888                           
  3889                           	psect	config
  3890                           
  3891                           ; Padding undefined space
  3892   300000                     	org	3145728
  3893   300000  FF                 	db	255
  3894                           
  3895                           ;Config register CONFIG1H @ 0x300001
  3896                           ;	Oscillator Selection bits
  3897                           ;	OSC = HS, HS oscillator
  3898                           ;	Fail-Safe Clock Monitor Enable bit
  3899                           ;	FCMEN = OFF, Fail-Safe Clock Monitor disabled
  3900                           ;	Internal/External Oscillator Switchover bit
  3901                           ;	IESO = OFF, Oscillator Switchover mode disabled
  3902   300001                     	org	3145729
  3903   300001  02                 	db	2
  3904                           
  3905                           ;Config register CONFIG2L @ 0x300002
  3906                           ;	Power-up Timer Enable bit
  3907                           ;	PWRT = OFF, PWRT disabled
  3908                           ;	Brown-out Reset Enable bits
  3909                           ;	BOREN = OFF, Brown-out Reset disabled in hardware and software
  3910                           ;	Brown Out Reset Voltage bits
  3911                           ;	BORV = 1, 
  3912   300002                     	org	3145730
  3913   300002  09                 	db	9
  3914                           
  3915                           ;Config register CONFIG2H @ 0x300003
  3916                           ;	Watchdog Timer Enable bit
  3917                           ;	WDT = OFF, WDT disabled (control is placed on the SWDTEN bit)
  3918                           ;	Watchdog Timer Postscale Select bits
  3919                           ;	WDTPS = 32768, 1:32768
  3920   300003                     	org	3145731
  3921   300003  1E                 	db	30
  3922                           
  3923                           ; Padding undefined space
  3924   300004                     	org	3145732
  3925   300004  FF                 	db	255
  3926                           
  3927                           ;Config register CONFIG3H @ 0x300005
  3928                           ;	CCP2 MUX bit
  3929                           ;	CCP2MX = PORTC, CCP2 input/output is multiplexed with RC1
  3930                           ;	PORTB A/D Enable bit
  3931                           ;	PBADEN = OFF, PORTB<4:0> pins are configured as digital I/O on Reset
  3932                           ;	Low-Power Timer1 Oscillator Enable bit
  3933                           ;	LPT1OSC = OFF, Timer1 configured for higher power operation
  3934                           ;	MCLR Pin Enable bit
  3935                           ;	MCLRE = ON, MCLR pin enabled; RE3 input pin disabled
  3936   300005                     	org	3145733
  3937   300005  81                 	db	129
  3938                           
  3939                           ;Config register CONFIG4L @ 0x300006
  3940                           ;	Stack Full/Underflow Reset Enable bit
  3941                           ;	STVREN = ON, Stack full/underflow will cause Reset
  3942                           ;	Single-Supply ICSP Enable bit
  3943                           ;	LVP = OFF, Single-Supply ICSP disabled
  3944                           ;	Extended Instruction Set Enable bit
  3945                           ;	XINST = OFF, Instruction set extension and Indexed Addressing mode disabled (Legacy mo
      +                          de)
  3946                           ;	Background Debugger Enable bit
  3947                           ;	DEBUG = 0x1, unprogrammed default
  3948   300006                     	org	3145734
  3949   300006  81                 	db	129
  3950                           
  3951                           ; Padding undefined space
  3952   300007                     	org	3145735
  3953   300007  FF                 	db	255
  3954                           
  3955                           ;Config register CONFIG5L @ 0x300008
  3956                           ;	Code Protection bit
  3957                           ;	CP0 = OFF, Block 0 (000800-003FFFh) not code-protected
  3958                           ;	Code Protection bit
  3959                           ;	CP1 = OFF, Block 1 (004000-007FFFh) not code-protected
  3960                           ;	Code Protection bit
  3961                           ;	CP2 = OFF, Block 2 (008000-00BFFFh) not code-protected
  3962                           ;	Code Protection bit
  3963                           ;	CP3 = OFF, Block 3 (00C000-00FFFFh) not code-protected
  3964   300008                     	org	3145736
  3965   300008  0F                 	db	15
  3966                           
  3967                           ;Config register CONFIG5H @ 0x300009
  3968                           ;	Boot Block Code Protection bit
  3969                           ;	CPB = OFF, Boot block (000000-0007FFh) not code-protected
  3970                           ;	Data EEPROM Code Protection bit
  3971                           ;	CPD = OFF, Data EEPROM not code-protected
  3972   300009                     	org	3145737
  3973   300009  C0                 	db	192
  3974                           
  3975                           ;Config register CONFIG6L @ 0x30000A
  3976                           ;	Write Protection bit
  3977                           ;	WRT0 = OFF, Block 0 (000800-003FFFh) not write-protected
  3978                           ;	Write Protection bit
  3979                           ;	WRT1 = OFF, Block 1 (004000-007FFFh) not write-protected
  3980                           ;	Write Protection bit
  3981                           ;	WRT2 = OFF, Block 2 (008000-00BFFFh) not write-protected
  3982                           ;	Write Protection bit
  3983                           ;	WRT3 = OFF, Block 3 (00C000-00FFFFh) not write-protected
  3984   30000A                     	org	3145738
  3985   30000A  0F                 	db	15
  3986                           
  3987                           ;Config register CONFIG6H @ 0x30000B
  3988                           ;	Configuration Register Write Protection bit
  3989                           ;	WRTC = OFF, Configuration registers (300000-3000FFh) not write-protected
  3990                           ;	Boot Block Write Protection bit
  3991                           ;	WRTB = OFF, Boot Block (000000-0007FFh) not write-protected
  3992                           ;	Data EEPROM Write Protection bit
  3993                           ;	WRTD = OFF, Data EEPROM not write-protected
  3994   30000B                     	org	3145739
  3995   30000B  E0                 	db	224
  3996                           
  3997                           ;Config register CONFIG7L @ 0x30000C
  3998                           ;	Table Read Protection bit
  3999                           ;	EBTR0 = OFF, Block 0 (000800-003FFFh) not protected from table reads executed in other
      +                           blocks
  4000                           ;	Table Read Protection bit
  4001                           ;	EBTR1 = OFF, Block 1 (004000-007FFFh) not protected from table reads executed in other
      +                           blocks
  4002                           ;	Table Read Protection bit
  4003                           ;	EBTR2 = OFF, Block 2 (008000-00BFFFh) not protected from table reads executed in other
      +                           blocks
  4004                           ;	Table Read Protection bit
  4005                           ;	EBTR3 = OFF, Block 3 (00C000-00FFFFh) not protected from table reads executed in other
      +                           blocks
  4006   30000C                     	org	3145740
  4007   30000C  0F                 	db	15
  4008                           
  4009                           ;Config register CONFIG7H @ 0x30000D
  4010                           ;	Boot Block Table Read Protection bit
  4011                           ;	EBTRB = OFF, Boot Block (000000-0007FFh) not protected from table reads executed in ot
      +                          her blocks
  4012   30000D                     	org	3145741
  4013   30000D  40                 	db	64
  4014                           tosu	equ	0xFFF
  4015                           tosh	equ	0xFFE
  4016                           tosl	equ	0xFFD
  4017                           stkptr	equ	0xFFC
  4018                           pclatu	equ	0xFFB
  4019                           pclath	equ	0xFFA
  4020                           pcl	equ	0xFF9
  4021                           tblptru	equ	0xFF8
  4022                           tblptrh	equ	0xFF7
  4023                           tblptrl	equ	0xFF6
  4024                           tablat	equ	0xFF5
  4025                           prodh	equ	0xFF4
  4026                           prodl	equ	0xFF3
  4027                           indf0	equ	0xFEF
  4028                           postinc0	equ	0xFEE
  4029                           postdec0	equ	0xFED
  4030                           preinc0	equ	0xFEC
  4031                           plusw0	equ	0xFEB
  4032                           fsr0h	equ	0xFEA
  4033                           fsr0l	equ	0xFE9
  4034                           wreg	equ	0xFE8
  4035                           indf1	equ	0xFE7
  4036                           postinc1	equ	0xFE6
  4037                           postdec1	equ	0xFE5
  4038                           preinc1	equ	0xFE4
  4039                           plusw1	equ	0xFE3
  4040                           fsr1h	equ	0xFE2
  4041                           fsr1l	equ	0xFE1
  4042                           bsr	equ	0xFE0
  4043                           indf2	equ	0xFDF
  4044                           postinc2	equ	0xFDE
  4045                           postdec2	equ	0xFDD
  4046                           preinc2	equ	0xFDC
  4047                           plusw2	equ	0xFDB
  4048                           fsr2h	equ	0xFDA
  4049                           fsr2l	equ	0xFD9
  4050                           status	equ	0xFD8

Data Sizes:
    Strings     3
    Constant    16
    Data        47
    BSS         30
    Persistent  0
    Stack       0

Auto Spaces:
    Space          Size  Autos    Used
    COMRAM          126     33     110
    BANK0           128     15      15
    BANK1           256      0       0
    BANK2           256      0       0
    BANK3           256      0       0
    BANK4           256      0       0
    BANK5           256      0       0
    BANK6           256      0       0
    BANK7           256      0       0
    BANK8           256      0       0
    BANK9           256      0       0
    BANK10          256      0       0
    BANK11          256      0       0
    BANK12          256      0       0
    BANK13          256      0       0
    BANK14          256      0       0
    BANK15          128      0       0

Pointer List with Targets:

    clock$External_CallBack	PTR FTN()void  size(2) Largest target is 1
		 -> i2_timer_increment(), timer_increment(), 

    f$.$buffer	PTR unsigned char  size(2) Largest target is 0

    f$.$source	PTR const unsigned char  size(2) Largest target is 0

    gpio_pin_direction_intialize@_pin_config	PTR const struct . size(1) Largest target is 6
		 -> clock(COMRAM[6]), led_intialize@pin_obj(BANK0[1]), Relay_initialize@pin_obj(COMRAM[1]), segment(COMRAM[5]), 
		 -> segment$segment_pins(COMRAM[4]), 

    gpio_pin_initialize@_pin_config	PTR const struct . size(1) Largest target is 6
		 -> clock(COMRAM[6]), led_intialize@pin_obj(BANK0[1]), Relay_initialize@pin_obj(COMRAM[1]), segment(COMRAM[5]), 
		 -> segment$segment_pins(COMRAM[4]), 

    gpio_pin_toggle_logic@_pin_config	PTR const struct . size(1) Largest target is 1
		 -> led_toggle_status@pin_obj(COMRAM[1]), 

    gpio_pin_write_logic@_pin_config	PTR const struct . size(1) Largest target is 6
		 -> clock(COMRAM[6]), led_intialize@pin_obj(BANK0[1]), led_turn_off@pin_obj(COMRAM[1]), led_turn_on@pin_obj(COMRAM[1]), 
		 -> Relay_initialize@pin_obj(COMRAM[1]), Relay_off@pin_obj(COMRAM[1]), Relay_on@pin_obj(COMRAM[1]), segment(COMRAM[5]), 
		 -> segment$segment_pins(COMRAM[4]), 

    INT0_Interrupt_Handler	PTR FTN()void  size(2) Largest target is 1
		 -> i2_timer_increment(), timer_increment(), NULL(), 

    INT0_Set_Interrupt_Handler@Interrupt_Handler	PTR FTN()void  size(2) Largest target is 1
		 -> i2_timer_increment(), timer_increment(), 

    INT1_Interrupt_Handler	PTR FTN()void  size(2) Largest target is 1
		 -> i2_timer_increment(), timer_increment(), NULL(), 

    INT1_Set_Interrupt_Handler@Interrupt_Handler	PTR FTN()void  size(2) Largest target is 1
		 -> i2_timer_increment(), timer_increment(), 

    INT2_Interrupt_Handler	PTR FTN()void  size(2) Largest target is 1
		 -> i2_timer_increment(), timer_increment(), NULL(), 

    INT2_Set_Interrupt_Handler@Interrupt_Handler	PTR FTN()void  size(2) Largest target is 1
		 -> i2_timer_increment(), timer_increment(), 

    Interrupt_INTx_Clear_Flag@obj$External_CallBack	PTR FTN()void  size(2) Largest target is 1
		 -> timer_increment(), 

    Interrupt_INTx_Disable@obj	PTR const struct . size(1) Largest target is 6
		 -> clock(COMRAM[6]), 

    Interrupt_INTx_Disable@obj$External_CallBack	PTR FTN()void  size(2) Largest target is 1
		 -> timer_increment(), 

    Interrupt_INTx_Edge_Init@obj	PTR const struct . size(1) Largest target is 6
		 -> clock(COMRAM[6]), 

    Interrupt_INTx_Edge_Init@obj$External_CallBack	PTR FTN()void  size(2) Largest target is 1
		 -> timer_increment(), 

    Interrupt_INTx_Enable@obj	PTR const struct . size(1) Largest target is 6
		 -> clock(COMRAM[6]), 

    Interrupt_INTx_Enable@obj$External_CallBack	PTR FTN()void  size(2) Largest target is 1
		 -> timer_increment(), 

    Interrupt_INTx_Init@obj	PTR const struct . size(1) Largest target is 6
		 -> clock(COMRAM[6]), 

    Interrupt_INTx_Pin_Init@obj	PTR const struct . size(1) Largest target is 6
		 -> clock(COMRAM[6]), 

    Interrupt_INTx_Pin_Init@obj$External_CallBack	PTR FTN()void  size(2) Largest target is 1
		 -> timer_increment(), 

    Interrupt_INTx_Priority_Init@obj	PTR const struct . size(1) Largest target is 6
		 -> clock(COMRAM[6]), 

    Interrupt_INTx_Priority_Init@obj$External_CallBack	PTR FTN()void  size(2) Largest target is 1
		 -> timer_increment(), 

    Interrupt_RBx_Init@obj$External_CallBack_High	PTR FTN()void  size(2) Largest target is 0

    Interrupt_RBx_Init@obj$External_CallBack_Low	PTR FTN()void  size(2) Largest target is 0

    Interrupt_Set_Interrupt_Handler@obj	PTR const struct . size(1) Largest target is 6
		 -> clock(COMRAM[6]), 

    Interrupt_Set_Interrupt_Handler@obj$External_CallBack	PTR FTN()void  size(2) Largest target is 1
		 -> timer_increment(), 

    lat_registers	PTR volatile unsigned char [5] size(2) Largest target is 1
		 -> LATA(BITBIGSFRll[1]), LATB(BITBIGSFRlh[1]), LATC(BITBIGSFRlh[1]), LATD(BITBIGSFRlh[1]), 
		 -> LATE(BITBIGSFRlh[1]), 

    led_intialize@Led	PTR const struct . size(1) Largest target is 1
		 -> led(COMRAM[1]), 

    led_toggle_status@Led	PTR const struct . size(1) Largest target is 1
		 -> led(COMRAM[1]), 

    port_registers	PTR volatile unsigned char [5] size(2) Largest target is 1
		 -> PORTA(BITBIGSFRll[1]), PORTB(BITBIGSFRll[1]), PORTC(BITBIGSFRll[1]), PORTD(BITBIGSFRll[1]), 
		 -> PORTE(BITBIGSFRll[1]), 

    RB4_Interrupt_Handler_High	PTR FTN()void  size(2) Largest target is 1
		 -> NULL(), 

    RB4_Interrupt_Handler_Low	PTR FTN()void  size(2) Largest target is 1
		 -> NULL(), 

    RB5_Interrupt_Handler_High	PTR FTN()void  size(2) Largest target is 1
		 -> NULL(), 

    RB5_Interrupt_Handler_Low	PTR FTN()void  size(2) Largest target is 1
		 -> NULL(), 

    RB6_Interrupt_Handler_High	PTR FTN()void  size(2) Largest target is 1
		 -> NULL(), 

    RB6_Interrupt_Handler_Low	PTR FTN()void  size(2) Largest target is 1
		 -> NULL(), 

    RB7_Interrupt_Handler_High	PTR FTN()void  size(2) Largest target is 1
		 -> NULL(), 

    RB7_Interrupt_Handler_Low	PTR FTN()void  size(2) Largest target is 1
		 -> NULL(), 

    S1960$buffer	PTR unsigned char  size(2) Largest target is 0

    S1960$source	PTR const unsigned char  size(2) Largest target is 0

    S813$External_CallBack	PTR FTN()void  size(2) Largest target is 1
		 -> timer_increment(), 

    S851$External_CallBack_High	PTR FTN()void  size(2) Largest target is 0

    S851$External_CallBack_Low	PTR FTN()void  size(2) Largest target is 0

    Seven_Segm_Display_Number@_Seven_Seg	PTR struct . size(1) Largest target is 5
		 -> segment(COMRAM[5]), 

    Seven_Segm_initailize@_Seven_Seg	PTR struct . size(1) Largest target is 5
		 -> segment(COMRAM[5]), 

    sp__memset	PTR void  size(2) Largest target is 0

    tris_registers	PTR volatile unsigned char [5] size(2) Largest target is 1
		 -> TRISA(BITBIGSFRll[1]), TRISB(BITBIGSFRhllll[1]), TRISC(BITBIGSFRhllll[1]), TRISD(BITBIGSFRhllll[1]), 
		 -> TRISE(BITBIGSFRhllll[1]), 

    vfprintf$0	PTR struct _IO_FILE size(1) Largest target is 12
		 -> sprintf@f(COMRAM[12]), 

    vfprintf$1	PTR const unsigned char  size(1) Largest target is 3
		 -> STR_1(CODE[3]), STR_2(CODE[3]), STR_3(CODE[3]), 

    vfprintf$2	PTR PTR void  size(1) Largest target is 1
		 -> sprintf@ap(COMRAM[1]), 


Critical Paths under _main in COMRAM

    None.

Critical Paths under _Interrupt_Manager_Low in COMRAM

    _timer_increment->_led_toggle_status
    _led_toggle_status->_gpio_pin_toggle_logic

Critical Paths under _Interrupt_Manager_High in COMRAM

    i2_timer_increment->i2_led_toggle_status
    i2_led_toggle_status->i2_gpio_pin_toggle_logic

Critical Paths under _main in BANK0

    _Seven_Segm_Display_Number->_gpio_pin_write_logic
    _Application_initialize->_Interrupt_INTx_Init
    _ecu_layer_initailize->_led_intialize
    _led_intialize->_gpio_pin_initialize
    _Seven_Segm_initailize->_gpio_pin_initialize
    _Interrupt_INTx_Init->_Interrupt_INTx_Pin_Init
    _Interrupt_Set_Interrupt_Handler->_INT0_Set_Interrupt_Handler
    _Interrupt_Set_Interrupt_Handler->_INT1_Set_Interrupt_Handler
    _Interrupt_Set_Interrupt_Handler->_INT2_Set_Interrupt_Handler
    _Interrupt_INTx_Pin_Init->_gpio_pin_initialize
    _gpio_pin_initialize->_gpio_pin_write_logic

Critical Paths under _Interrupt_Manager_Low in BANK0

    None.

Critical Paths under _Interrupt_Manager_High in BANK0

    None.

Critical Paths under _main in BANK1

    None.

Critical Paths under _Interrupt_Manager_Low in BANK1

    None.

Critical Paths under _Interrupt_Manager_High in BANK1

    None.

Critical Paths under _main in BANK2

    None.

Critical Paths under _Interrupt_Manager_Low in BANK2

    None.

Critical Paths under _Interrupt_Manager_High in BANK2

    None.

Critical Paths under _main in BANK3

    None.

Critical Paths under _Interrupt_Manager_Low in BANK3

    None.

Critical Paths under _Interrupt_Manager_High in BANK3

    None.

Critical Paths under _main in BANK4

    None.

Critical Paths under _Interrupt_Manager_Low in BANK4

    None.

Critical Paths under _Interrupt_Manager_High in BANK4

    None.

Critical Paths under _main in BANK5

    None.

Critical Paths under _Interrupt_Manager_Low in BANK5

    None.

Critical Paths under _Interrupt_Manager_High in BANK5

    None.

Critical Paths under _main in BANK6

    None.

Critical Paths under _Interrupt_Manager_Low in BANK6

    None.

Critical Paths under _Interrupt_Manager_High in BANK6

    None.

Critical Paths under _main in BANK7

    None.

Critical Paths under _Interrupt_Manager_Low in BANK7

    None.

Critical Paths under _Interrupt_Manager_High in BANK7

    None.

Critical Paths under _main in BANK8

    None.

Critical Paths under _Interrupt_Manager_Low in BANK8

    None.

Critical Paths under _Interrupt_Manager_High in BANK8

    None.

Critical Paths under _main in BANK9

    None.

Critical Paths under _Interrupt_Manager_Low in BANK9

    None.

Critical Paths under _Interrupt_Manager_High in BANK9

    None.

Critical Paths under _main in BANK10

    None.

Critical Paths under _Interrupt_Manager_Low in BANK10

    None.

Critical Paths under _Interrupt_Manager_High in BANK10

    None.

Critical Paths under _main in BANK11

    None.

Critical Paths under _Interrupt_Manager_Low in BANK11

    None.

Critical Paths under _Interrupt_Manager_High in BANK11

    None.

Critical Paths under _main in BANK12

    None.

Critical Paths under _Interrupt_Manager_Low in BANK12

    None.

Critical Paths under _Interrupt_Manager_High in BANK12

    None.

Critical Paths under _main in BANK13

    None.

Critical Paths under _Interrupt_Manager_Low in BANK13

    None.

Critical Paths under _Interrupt_Manager_High in BANK13

    None.

Critical Paths under _main in BANK14

    None.

Critical Paths under _Interrupt_Manager_Low in BANK14

    None.

Critical Paths under _Interrupt_Manager_High in BANK14

    None.

Critical Paths under _main in BANK15

    None.

Critical Paths under _Interrupt_Manager_Low in BANK15

    None.

Critical Paths under _Interrupt_Manager_High in BANK15

    None.

Call Graph Tables:

 ---------------------------------------------------------------------------------
 (Depth) Function   	        Calls       Base Space   Used Autos Params    Refs
 ---------------------------------------------------------------------------------
 (0) _main                                                 0     0      0   33856
             _Application_initialize
          _Seven_Segm_Display_Number
 ---------------------------------------------------------------------------------
 (1) _Seven_Segm_Display_Number                            3     1      2    6376
                                              8 BANK0      3     1      2
               _gpio_pin_write_logic
 ---------------------------------------------------------------------------------
 (1) _Application_initialize                               0     0      0   27480
                _Interrupt_INTx_Init
               _ecu_layer_initailize
 ---------------------------------------------------------------------------------
 (2) _ecu_layer_initailize                                 1     1      0   16811
              _Seven_Segm_initailize
                      _led_intialize
 ---------------------------------------------------------------------------------
 (3) _led_intialize                                        4     3      1    8422
                                             11 BANK0      4     3      1
                _gpio_pin_initialize
 ---------------------------------------------------------------------------------
 (3) _Seven_Segm_initailize                                2     1      1    8380
                                             11 BANK0      2     1      1
                _gpio_pin_initialize
 ---------------------------------------------------------------------------------
 (2) _Interrupt_INTx_Init                                  2     1      1   10669
                                             13 BANK0      2     1      1
             _Interrupt_INTx_Disable
           _Interrupt_INTx_Edge_Init
              _Interrupt_INTx_Enable
            _Interrupt_INTx_Pin_Init
       _Interrupt_INTx_Priority_Init
    _Interrupt_Set_Interrupt_Handler
 ---------------------------------------------------------------------------------
 (3) _Interrupt_Set_Interrupt_Handler                      4     3      1     861
                                              3 BANK0      4     3      1
         _INT0_Set_Interrupt_Handler
         _INT1_Set_Interrupt_Handler
         _INT2_Set_Interrupt_Handler
 ---------------------------------------------------------------------------------
 (4) _INT2_Set_Interrupt_Handler                           3     1      2     189
                                              0 BANK0      3     1      2
 ---------------------------------------------------------------------------------
 (4) _INT1_Set_Interrupt_Handler                           3     1      2     189
                                              0 BANK0      3     1      2
 ---------------------------------------------------------------------------------
 (4) _INT0_Set_Interrupt_Handler                           3     1      2     189
                                              0 BANK0      3     1      2
 ---------------------------------------------------------------------------------
 (3) _Interrupt_INTx_Priority_Init                         4     3      1     254
                                              0 BANK0      4     3      1
 ---------------------------------------------------------------------------------
 (3) _Interrupt_INTx_Pin_Init                              2     1      1    8278
                                             11 BANK0      2     1      1
                _gpio_pin_initialize
 ---------------------------------------------------------------------------------
 (4) _gpio_pin_initialize                                  3     2      1    8086
                                              8 BANK0      3     2      1
       _gpio_pin_direction_intialize
               _gpio_pin_write_logic
 ---------------------------------------------------------------------------------
 (2) _gpio_pin_write_logic                                 8     6      2    5837
                                              0 BANK0      8     6      2
 ---------------------------------------------------------------------------------
 (5) _gpio_pin_direction_intialize                         7     6      1     437
                                              0 BANK0      7     6      1
 ---------------------------------------------------------------------------------
 (3) _Interrupt_INTx_Enable                                4     3      1     254
                                              0 BANK0      4     3      1
 ---------------------------------------------------------------------------------
 (3) _Interrupt_INTx_Edge_Init                             4     3      1     378
                                              0 BANK0      4     3      1
 ---------------------------------------------------------------------------------
 (3) _Interrupt_INTx_Disable                               4     3      1     282
                                              0 BANK0      4     3      1
 ---------------------------------------------------------------------------------
 Estimated maximum stack depth 5
 ---------------------------------------------------------------------------------
 (Depth) Function   	        Calls       Base Space   Used Autos Params    Refs
 ---------------------------------------------------------------------------------
 (6) _Interrupt_Manager_Low                                9     9      0     393
                                             24 COMRAM     9     9      0
                           _INT2_ISR
 ---------------------------------------------------------------------------------
 (7) _INT2_ISR                                             0     0      0     393
                                NULL *
                    _timer_increment *
 ---------------------------------------------------------------------------------
 (8) _timer_increment                                      0     0      0     393
                  _led_toggle_status
 ---------------------------------------------------------------------------------
 (9) _led_toggle_status                                    4     3      1     393
                                             20 COMRAM     4     3      1
              _gpio_pin_toggle_logic
 ---------------------------------------------------------------------------------
 (10) _gpio_pin_toggle_logic                               6     5      1     172
                                             15 COMRAM     5     4      1
 ---------------------------------------------------------------------------------
 (13) NULL(Fake)                                           0     0      0       0
 ---------------------------------------------------------------------------------
 Estimated maximum stack depth 13
 ---------------------------------------------------------------------------------
 (Depth) Function   	        Calls       Base Space   Used Autos Params    Refs
 ---------------------------------------------------------------------------------
 (11) _Interrupt_Manager_High                              6     6      0     580
                                              9 COMRAM     6     6      0
                           _INT0_ISR
                           _INT1_ISR
 ---------------------------------------------------------------------------------
 (12) _INT1_ISR                                            0     0      0     290
                                NULL *
                  i2_timer_increment *
 ---------------------------------------------------------------------------------
 (12) _INT0_ISR                                            0     0      0     290
                                NULL *
                  i2_timer_increment *
 ---------------------------------------------------------------------------------
 (13) i2_timer_increment                                   0     0      0     290
                i2_led_toggle_status
 ---------------------------------------------------------------------------------
 (14) i2_led_toggle_status                                 4     3      1     290
                                              5 COMRAM     4     3      1
            i2_gpio_pin_toggle_logic
 ---------------------------------------------------------------------------------
 (15) i2_gpio_pin_toggle_logic                             6     5      1     122
                                              0 COMRAM     5     4      1
 ---------------------------------------------------------------------------------
 (13) NULL(Fake)                                           0     0      0       0
 ---------------------------------------------------------------------------------
 Estimated maximum stack depth 15
 ---------------------------------------------------------------------------------

 Call Graph Graphs:

 _main (ROOT)
   _Application_initialize
     _Interrupt_INTx_Init
       _Interrupt_INTx_Disable
       _Interrupt_INTx_Edge_Init
       _Interrupt_INTx_Enable
       _Interrupt_INTx_Pin_Init
         _gpio_pin_initialize
           _gpio_pin_direction_intialize
           _gpio_pin_write_logic
       _Interrupt_INTx_Priority_Init
       _Interrupt_Set_Interrupt_Handler
         _INT0_Set_Interrupt_Handler
         _INT1_Set_Interrupt_Handler
         _INT2_Set_Interrupt_Handler
     _ecu_layer_initailize
       _Seven_Segm_initailize
         _gpio_pin_initialize
       _led_intialize
         _gpio_pin_initialize
   _Seven_Segm_Display_Number
     _gpio_pin_write_logic

 _Interrupt_Manager_Low (ROOT)
   _INT2_ISR
     NULL(Fake) *
     _timer_increment *
       _led_toggle_status
         _gpio_pin_toggle_logic

 _Interrupt_Manager_High (ROOT)
   _INT0_ISR
     NULL(Fake) *
     i2_timer_increment *
       i2_led_toggle_status
         i2_gpio_pin_toggle_logic
   _INT1_ISR
     NULL(Fake) *
     i2_timer_increment *

 Address spaces:
Name               Size   Autos  Total    Cost      Usage
BIGRAM             F7F      0       0      43        0.0%
EEDATA             400      0       0       0        0.0%
BITBANK14          100      0       0      32        0.0%
BANK14             100      0       0      33        0.0%
BITBANK13          100      0       0      30        0.0%
BANK13             100      0       0      31        0.0%
BITBANK12          100      0       0      28        0.0%
BANK12             100      0       0      29        0.0%
BITBANK11          100      0       0      26        0.0%
BANK11             100      0       0      27        0.0%
BITBANK10          100      0       0      24        0.0%
BANK10             100      0       0      25        0.0%
BITBANK9           100      0       0      22        0.0%
BANK9              100      0       0      23        0.0%
BITBANK8           100      0       0      20        0.0%
BANK8              100      0       0      21        0.0%
BITBANK7           100      0       0      18        0.0%
BANK7              100      0       0      19        0.0%
BITBANK6           100      0       0      16        0.0%
BANK6              100      0       0      17        0.0%
BITBANK5           100      0       0      14        0.0%
BANK5              100      0       0      15        0.0%
BITBANK4           100      0       0      12        0.0%
BANK4              100      0       0      13        0.0%
BITBANK3           100      0       0      10        0.0%
BANK3              100      0       0      11        0.0%
BITBANK2           100      0       0       8        0.0%
BANK2              100      0       0       9        0.0%
BITBANK1           100      0       0       6        0.0%
BANK1              100      0       0       7        0.0%
BITBANK15           80      0       0      34        0.0%
BANK15              80      0       0      35        0.0%
BITBANK0            80      0       0       4        0.0%
BANK0               80      F       F       5       11.7%
BITCOMRAM           7E      0       0       0        0.0%
COMRAM              7E     21      6E       1       87.3%
BITBIGSFRhllh       25      0       0      38        0.0%
BITBIGSFRhlh        1F      0       0      37        0.0%
BITBIGSFRhllll       F      0       0      39        0.0%
BITBIGSFRhh          D      0       0      36        0.0%
BITBIGSFRlh          4      0       0      40        0.0%
BITBIGSFRll          4      0       0      41        0.0%
BIGSFR               0      0       0     200        0.0%
BITSFR               0      0       0     200        0.0%
SFR                  0      0       0     200        0.0%
STACK                0      0       0       2        0.0%
NULL                 0      0       0       0        0.0%
ABS                  0      0      7D      42        0.0%
DATA                 0      0      7D       3        0.0%
CODE                 0      0       0       0        0.0%


Microchip Technology PIC18 Macro Assembler V2.45 build 20230818022343 
Symbol Table                                                                                   Sun Feb 11 20:41:06 2024

                              _led_intialize 1702                       ?_Interrupt_Manager_Low 0030  
                    ?_Interrupt_Manager_High 0030                                           bsr 0FE0  
         __end_of_INT0_Set_Interrupt_Handler 1BDE                   _INT0_Set_Interrupt_Handler 1BB2  
                                        l310 1A68                                          l251 1720  
                                        l317 15FC                                          l255 177A  
                                        l416 1A16                                          l328 1C52  
                                        l530 13EA                                          l523 1394  
                                        l603 1BB0                                          l540 18FE  
                                        l532 142E                                          l541 1904  
                                        l525 139C                                          l526 13BE  
                                        l550 1516                                          l543 1948  
                                        l527 13C0                                          l528 13C6  
                                        l376 1140                                          l608 1B84  
                                        l529 13E8                                          l721 1C0E  
                                        l538 18F8                                          l554 153C  
                                        l395 1374                                          l619 14D6  
                                        l557 1578                                          l582 1C08  
                                        l567 125C                                          l727 1C64  
                                        l496 19B2                                          l577 125E  
                                        l598 1BDC                                          _led 002F  
                                        _ret 001F                INT0_Set_Interrupt_Handler@ret 0082  
                                        tosl 0FFD                                          wreg 0FE8  
                 ?_Seven_Segm_Display_Number 0088                                         l4000 11FA  
                                       l4002 1200                                         l4010 1220  
                                       l4004 121A                                         l4012 125C  
                                       l4020 14D8                                         l4030 1536  
                                       l4022 14EE                                         l4024 14F6  
                                       l4200 198C                                         l4050 1C06  
                                       l4026 1510                                         l4034 1542  
                                       l4202 1998                                         l4044 1BDE  
                                       l4028 151C                                         l4036 1576  
                                       l4060 1464                                         l4204 19A4  
                                       l4046 1BF0                                         l4062 147E  
                                       l4070 14D4                                         l4054 1430  
                                       l4206 19B0                                         l4310 15A4  
                                       l4080 138C                                         l4048 1BF8  
                                       l4056 1442                                         l4312 15FA  
                                       l4304 157A                                         l4082 139E  
                                       l4058 144A                                         l4306 158C  
                                       l4084 13B8                                         l4068 1498  
                                       l4316 1C54                                         l4308 159C  
                                       l4086 13C8                                         l4094 13F0  
                                       l4078 1376                                         l4190 1C3E  
                                       l4088 13E2                                         l4096 142C  
                                       l4192 1C48                                         l4194 194A  
                                       l3900 1BCA                                         l4196 1960  
                                       l4188 1C3E                                         l3902 1BD2  
                                       l3910 1B8C                                         l4198 1968  
                                       l3840 1276                                         l3904 1BDA  
                                       l3912 1B9E                                         l3920 1B5A  
                                       l3842 1296                                         l3914 1BA6  
                                       l3922 1B60                                         l3844 129E  
                                       l3852 1348                                         l3916 1BAE  
                                       l3908 1B86                                         l3924 1B72  
                                       l3940 175C                                         l3932 1702  
                                       l3870 10AC                                         l3862 1016  
                                       l3846 12F0                                         l3854 1372  
                                       l3838 1260                                         l3926 1B7A  
                                       l3950 1A2A                                         l3942 176E  
                                       l3934 1718                                         l3960 18F0  
                                       l3864 102C                                         l3928 1B82  
                                       l3952 1A32                                         l3936 1724  
                                       l3944 1776                                         l3874 10FE  
                                       l3866 104C                                         l3890 19F2  
                                       l3954 1A66                                         l3938 175A  
                                       l3980 1158                                         l3868 1054  
                                       l3876 113E                                         l3892 1A12  
                                       l3884 19B4                                         l3948 1A18  
                                       l3966 190A                                         l3958 18DA  
                                       l3990 11A0                                         l3982 1160  
                                       l4950 135C                                         l3886 19CA  
                                       l3968 1946                                         l3992 11BA  
                                       l3984 117A                                         l4952 1128  
                                       l3888 19EA                                         l3896 1BB2  
                                       l4784 1C0A                                         l3994 11C0  
                                       l3986 1180                                         l3978 1142  
                                       l4954 140E                                         l3898 1BB8  
                                       l4946 14B6                                         l4956 123E  
                                       l3996 11DA                                         l3988 119A  
                                       l4948 1560                                         l4958 1928  
                                       l3998 11E0                                         STR_1 1011  
                                       u3000 1960                                         u3001 195C  
                                       _LATA 0F89                                         u3110 158C  
                                       _LATB 0F8A                                         u3111 1588  
                                       _LATC 0F8B                                         u3120 159C  
                                       _LATD 0F8C                                         u3121 1598  
                                       _LATE 0F8D                                         u2600 1276  
                                       u2601 1272                                         u2610 1296  
                                       u2611 1292                                         u2700 19CA  
                                       u2701 19C6                                         u2710 19EA  
                                       u2711 19E6                                         u2800 117A  
                                       u2640 102C                                         u2624 12BC  
                                       u2720 1BCA                                         u2801 1176  
                                       u2641 1028                                         u2625 12B8  
                                       u2721 1BC6                                         u2810 119A  
                                       u2650 104C                                         u2634 130E  
                                       u2730 1B9E                                         u2811 1196  
                                       u2651 1048                                         u2635 130A  
                                       u2731 1B9A                                         u2820 11BA  
                                       u2740 1B72                                         u2900 1442  
                                       u2821 11B6                                         u2741 1B6E  
                                       u2901 143E                                         u2830 11DA  
                                       u2910 138C                                         u2750 1718  
                                       u2831 11D6                                         u2911 1388  
                                       u2751 1714                                         u2840 11FA  
                                       u2920 13B8                                         u2680 1114  
                                       u2664 1072                                         u2841 11F6  
                                       u2921 13B4                                         u2681 110E  
                                       u2665 106E                                         u2850 121A  
                                       u2930 13E2                                         u2690 1116  
                                       u2674 10CA                                         u2770 1A2A  
                                       u2851 1216                                         u2931 13DE  
                                       u2675 10C6                                         u2771 1A26  
                                       u2780 18F0                                         u2860 14EE  
                                       u2781 18EC                                         u2861 14EA  
                                       u2765 176A                                         u2790 1158  
                                       u2870 1510                                         u2791 1154  
                                       u2871 150C                                         u2767 176E  
                                       u2880 1536                                         u2881 1532  
                                       u2890 1BF0                                         u2891 1BEC  
                                       _main 1C0A                                         fsr2h 0FDA  
                                       indf2 0FDF                                         fsr1l 0FE1  
                                       fsr2l 0FD9                                         btemp 006F  
                                       prodh 0FF4                                         prodl 0FF3  
                                       start 0086                               ?_led_intialize 008B  
             __end_of_Interrupt_Manager_High 17F2                                 ___param_bank 0000  
                     ?_gpio_pin_toggle_logic 003F                         _gpio_pin_write_logic 1260  
                           __end_of_INT0_ISR 1B5A                             __end_of_INT1_ISR 1B2C  
                           __end_of_INT2_ISR 1AFE                       i2led_toggle_status@Led 0035  
                  ?_Interrupt_INTx_Edge_Init 0080                       i2led_toggle_status@ret 0037  
                              Relay_on@F3485 0069                                        ?_main 0030  
                                      _EEADR 0FA9  INT2_Set_Interrupt_Handler@Interrupt_Handler 0080  
INT1_Set_Interrupt_Handler@Interrupt_Handler 0080  INT0_Set_Interrupt_Handler@Interrupt_Handler 0080  
                                      i1l272 180E                                        i1l409 167E  
                                      i1l276 1864                                        i1l631 1AFC  
                                      i1l730 1C3C                                        _RB4_f 0023  
                                      i2l272 1882                                        _RB5_f 0022  
                                      i2l409 1700                                        i2l276 18D8  
                                      _RB6_f 0021                                        i1l694 005E  
                                      i2l623 1B58                                        _RB7_f 0020  
                                      i2l730 1C72                                        i2l627 1B2A  
                                      i2l688 17D6                                        _PORTA 0F80  
                                      _PORTB 0F81                                        _PORTC 0F82  
                                      _PORTD 0F83                                        _PORTE 0F84  
                                      _TRISA 0F92                                        _TRISB 0F93  
                                      _TRISC 0F94                                        _TRISD 0F95  
                                      _TRISE 0F96                                        _clock 0024  
                   Interrupt_INTx_Enable@obj 0080                     Interrupt_INTx_Enable@ret 0083  
          __end_of_Seven_Segm_Display_Number 15FE                                        _timer 0067  
                                      pclath 0FFA                                        pclatu 0FFB  
                                      tablat 0FF5                                        ttemp5 0070  
                                      ttemp6 0073                                        ttemp7 0077  
                                      status 0FD8                                        wtemp8 0070  
                  _timer_increment$intlevel1 1C30                       _Interrupt_INTx_Disable 18DA  
                         fp__timer_increment 0000                              __initialization 1A6A  
                    i2_gpio_pin_toggle_logic 1680                                 __end_of_main 1C26  
                      ?_gpio_pin_write_logic 0080                                _lat_registers 000B  
                                     ??_main 008F                                __activetblptr 0003  
               ??_INT1_Set_Interrupt_Handler 0082                             led_turn_on@F3487 006D  
            Seven_Segm_initailize@_Seven_Seg 008B                                       _EEADRH 0FAA  
                                     _EEDATA 0FA8                                       _EECON2 0FA7  
                                     i1l3320 1AE4                                       i1l3316 1AD0  
                                     i1l3190 1C30                                       i1l3318 1AD2  
                                     i1l3192 1C32                                       i1l2900 17F2  
                                     i1l2830 160E                                       i1l2910 185A  
                                     i1l2902 1806                                       i1l2832 162E  
                                     i1l2904 1812                                       i1l2912 1862  
                                     i1l2834 1632                                       i1l2906 1848  
                                     i1l3802 003E                                       i1l2828 15FE  
                                     i1l2908 184A                                       i1l3804 004C  
                                     i1l3806 005A                                       i2l3070 1866  
                                     i2l3310 1AFE                                       i2l3080 18CE  
                                     i2l3072 187A                                       i2l3304 1B2C  
                                     i2l3312 1B00                                       i2l3074 1886  
                                     i2l3082 18D6                                       i2l3306 1B2E  
                                     i2l3314 1B12                                       i2l3076 18BC  
                                     i2l3308 1B40                                       i2l3078 18BE  
                                     i2l3194 1C66                                       i2l3196 1C68  
                                     i2l3800 17D2                                       i2l2880 16B4  
                                     i2l2874 1680                                       i2l2876 1690  
                                     i2l2878 16B0                                       i2l3790 1796  
                                     i2l3792 17A4                                       i2l3794 17B2  
                                     i2l3796 17B6                                       i2l3798 17C4  
           gpio_pin_toggle_logic@_pin_config 003F           i2gpio_pin_toggle_logic@_pin_config 0030  
                            ??_led_intialize 008C                               Relay_off@F3490 0068  
                          i2_timer_increment 1C66                      ?_Application_initialize 0030  
              __end_of_Seven_Segm_initailize 1A6A                             led_intialize@Led 008B  
                         ?i2_timer_increment 0030                             led_intialize@ret 008D  
                                     clear_0 1A90                                       isa$std 0001  
              __end_of_Interrupt_INTx_Enable 1430      gpio_pin_direction_intialize@_pin_config 0080  
                        ??i2_timer_increment 0039                                 __pdataCOMRAM 0001  
                               __mediumconst 0000                                       tblptrh 0FF7  
                                     tblptrl 0FF6                                       tblptru 0FF8  
                                 __accesstop 0080                      __end_of__initialization 1A96  
                                  ?_INT0_ISR 0030                                    ?_INT1_ISR 0030  
                                  ?_INT2_ISR 0030                                ___rparam_used 0001  
                  ??i2_gpio_pin_toggle_logic 0031                      ??_Interrupt_Manager_Low 0048  
                  __end_ofi2_timer_increment 1C74      __end_of_Interrupt_Set_Interrupt_Handler 14D8  
          ??_Interrupt_Set_Interrupt_Handler 0084             ?_Interrupt_Set_Interrupt_Handler 0083  
            _Interrupt_Set_Interrupt_Handler 1430                      _Interrupt_INTx_Pin_Init 1BDE  
                     ??_gpio_pin_write_logic 0082                               __pcstackCOMRAM 0030  
             __end_of_Application_initialize 1C66                            ??_timer_increment 0048  
                ?_INT0_Set_Interrupt_Handler 0080                   _RB6_Interrupt_Handler_High 0057  
                ??_Seven_Segm_Display_Number 008A                  __end_of_Interrupt_INTx_Init 19B4  
                  _RB5_Interrupt_Handler_Low 0059              Seven_Segm_Display_Number@number 0089  
                                 ??_INT0_ISR 0039                                   ??_INT1_ISR 0039  
                                 ??_INT2_ISR 0048                          i2_led_toggle_status 1866  
                     _INT2_Interrupt_Handler 0061           Interrupt_Set_Interrupt_Handler@obj 0083  
         Interrupt_Set_Interrupt_Handler@ret 0086             __end_of_Interrupt_INTx_Edge_Init 1260  
                    ??_gpio_pin_toggle_logic 0040                            led_turn_off@F3492 006C  
                       ?i2_led_toggle_status 0035           __end_of_INT1_Set_Interrupt_Handler 1BB2  
                 _INT1_Set_Interrupt_Handler 1B86                                   _btn_values 1001  
                    ?_Interrupt_INTx_Disable 0080                               _tris_registers 0015  
                  ??_Interrupt_INTx_Pin_Init 008C                INT1_Set_Interrupt_Handler@ret 0082  
                                    __Hparam 0000                                      __Lparam 0000  
                       led_intialize@pin_obj 008E                    _Seven_Segm_Display_Number 157A  
                        _gpio_pin_initialize 19B4                                 __psmallconst 1000  
                                    __pcinit 1A6A                        ??i2_led_toggle_status 0036  
                                    __ramtop 1000                                      __ptext0 1C0A  
                                    __ptext1 157A                                      __ptext2 1C54  
                                    __ptext3 1C3E                                      __ptext4 1702  
                                    __ptext5 1A18                                      __ptext6 194A  
                                    __ptext7 1430                                      __ptext8 1B5A  
                                    __ptext9 1B86                                      _segment 002A  
                       ?_gpio_pin_initialize 0088               __end_of_Interrupt_INTx_Disable 194A  
                             __pintcode_body 177C                         end_of_initialization 1A96  
                                    int_func 177C                 Seven_Segm_Display_Number@ret 008A  
                                    postdec1 0FE5                                      postdec2 0FDD  
                   _Interrupt_INTx_Edge_Init 1142                                      postinc0 0FEE  
                                    postinc2 0FDE                         led_toggle_status@Led 0044  
                       led_toggle_status@ret 0046                 ??_INT2_Set_Interrupt_Handler 0082  
       __end_of_gpio_pin_direction_intialize 1142                 _gpio_pin_direction_intialize 1016  
                      ??_gpio_pin_initialize 0089                  Interrupt_INTx_Edge_Init@obj 0080  
                Interrupt_INTx_Edge_Init@ret 0083                     ??_Interrupt_Manager_High 0039  
                            _timer_increment 1C26                        __end_of_led_intialize 177C  
              __end_of_Interrupt_Manager_Low 0086                       Interrupt_INTx_Init@obj 008D  
                     Interrupt_INTx_Init@ret 008E         __end_of_Interrupt_INTx_Priority_Init 157A  
               _Interrupt_INTx_Priority_Init 14D8                                __pidataCOMRAM 1AA0  
                 i2led_toggle_status@pin_obj 0038                        _Seven_Segm_initailize 1A18  
                      _Interrupt_INTx_Enable 1376                          start_initialization 1A6A  
              ?_gpio_pin_direction_intialize 0080                __end_of_gpio_pin_toggle_logic 1680  
               __end_of_ecu_layer_initailize 1C54                   _RB5_Interrupt_Handler_High 005B  
                          _led_toggle_status 17F2                ?_Interrupt_INTx_Priority_Init 0080  
                ?_INT1_Set_Interrupt_Handler 0080                         fp_i2_timer_increment 0000  
                         ?_led_toggle_status 0044                                  __pbssCOMRAM 0051  
                              __pcstackBANK0 0080              Interrupt_INTx_Priority_Init@obj 0080  
            Interrupt_INTx_Priority_Init@ret 0083                    _RB6_Interrupt_Handler_Low 0055  
                        ??_led_toggle_status 0045                      __end_of_timer_increment 1C3E  
                   ?i2_gpio_pin_toggle_logic 0030                       _INT0_Interrupt_Handler 0065  
            gpio_pin_direction_intialize@ret 0086                        Relay_initialize@F3480 006A  
                                  __pintcode 0008              gpio_pin_write_logic@_pin_config 0080  
                  __end_of_led_toggle_status 1866                       ?_Seven_Segm_initailize 008B  
                                __pintcodelo 0018           __end_of_INT2_Set_Interrupt_Handler 1B86  
                 _INT2_Set_Interrupt_Handler 1B5A                       ?_Interrupt_INTx_Enable 0080  
                                __smallconst 1000               ??_gpio_pin_direction_intialize 0081  
                 ??_Interrupt_INTx_Edge_Init 0081                                     _INT0_ISR 1B2C  
                                   _INT1_ISR 1AFE                                     _INT2_ISR 1AD0  
                   ??_Application_initialize 008F                                     i1u213_20 1AE4  
                                   i1u213_21 1AE0                                     i1u214_28 1AEA  
                                   i1u214_29 1AFC                                     i1u160_24 1650  
                                   i1u160_25 164C                                     i1u170_25 1858  
                                   i1u170_27 185A                                     i1u158_20 160E  
                                   i1u158_21 160A                                     i1u159_20 162E  
                                   i1u159_21 162A                                     i1u169_20 1806  
                                   i1u169_21 1802                                     i1u258_20 004C  
                                   i1u258_21 0048                                     i1u259_20 005A  
                                   i1u259_21 0056                                     i2u210_48 1B46  
                                   i2u211_40 1B12                                     i2u210_49 1B58  
                                   i2u211_41 1B0E                                     i2u212_48 1B18  
                                   i2u212_49 1B2A                                     i2u209_40 1B40  
                                   i2u209_41 1B3C                                     i2u164_40 1690  
                                   i2u164_41 168C                                     i2u165_40 16B0  
                                   i2u165_41 16AC                                     i2u254_40 17A4  
                                   i2u254_41 17A0                                     i2u166_44 16D2  
                                   i2u166_45 16CE                                     i2u255_40 17B2  
                                   i2u255_41 17AE                                     i2u256_40 17C4  
                                   i2u256_41 17C0                                     i2u257_40 17D2  
                                   i2u257_41 17CE                                     i2u188_40 187A  
                                   i2u188_41 1876                                     i2u189_45 18CC  
                                   i2u189_47 18CE                  __end_ofi2_led_toggle_status 18DA  
                                   _RCONbits 0FD0                       _Interrupt_Manager_High 0008  
              INT2_Set_Interrupt_Handler@ret 0082                       gpio_pin_initialize@ret 008A  
            __end_ofi2_gpio_pin_toggle_logic 1702               ??_Interrupt_INTx_Priority_Init 0081  
                    gpio_pin_write_logic@ret 0087                                  _INTCON2bits 0FF1  
                                _INTCON3bits 0FF0                                    copy_data0 1A7E  
                   ?_Interrupt_INTx_Pin_Init 008B                             ?_timer_increment 0030  
                       _ecu_layer_initailize 1C3E                                   _EECON1bits 0FA6  
                                   __Hrparam 0000                                     __Lrparam 0000  
                  Interrupt_INTx_Disable@obj 0080                    Interrupt_INTx_Disable@ret 0083  
                   led_toggle_status@pin_obj 0047                  __end_of_gpio_pin_initialize 1A18  
                         __end_of_btn_values 1011               gpio_pin_initialize@_pin_config 0088  
               ??_INT0_Set_Interrupt_Handler 0082                           led_intialize@F3482 006E  
                                   __ptext10 1BB2                                     __ptext11 14D8  
                                   __ptext20 1AD0                                     __ptext12 1BDE  
                                   __ptext21 1C26                                     __ptext13 19B4  
                                   __ptext30 0000                                     __ptext22 17F2  
                                   __ptext14 1260                                     __ptext23 15FE  
                                   __ptext15 1016                                     __ptext16 1376  
                                   __ptext25 1AFE                                     __ptext17 1142  
                                   __ptext26 1B2C                                     __ptext18 18DA  
                                   __ptext27 1C66                                     __ptext28 1866  
                                   __ptext29 1680                        ?_ecu_layer_initailize 0030  
        Seven_Segm_Display_Number@_Seven_Seg 0088                                     isa$xinst 0000  
                                   int$flags 006F                        _Interrupt_Manager_Low 0018  
                   ??_Interrupt_INTx_Disable 0081                          _Interrupt_INTx_Init 194A  
                                 _INTCONbits 0FF2              __end_of_Interrupt_INTx_Pin_Init 1C0A  
               __end_of_gpio_pin_write_logic 1376                                     intlevel1 0000  
                                   intlevel2 0000                         ?_Interrupt_INTx_Init 008D  
                     led_toggle_status@F3497 006B                      ??_Seven_Segm_initailize 008C  
                 Interrupt_INTx_Pin_Init@obj 008B                   Interrupt_INTx_Pin_Init@ret 008C  
                      _gpio_pin_toggle_logic 15FE                   _RB4_Interrupt_Handler_High 005F  
                    ??_Interrupt_INTx_Enable 0081                     Seven_Segm_initailize@ret 008C  
                     _Application_initialize 1C54                   gpio_pin_write_logic@logic_ 0081  
                ?_INT2_Set_Interrupt_Handler 0080                   _RB7_Interrupt_Handler_High 0053  
                             _port_registers 0001                    _RB4_Interrupt_Handler_Low 005D  
                     ??_ecu_layer_initailize 008F                    _RB7_Interrupt_Handler_Low 0051  
                      ??_Interrupt_INTx_Init 008E                       _INT1_Interrupt_Handler 0063  
