

Microchip MPLAB XC8 Assembler V2.45 build 20230818022343 
                                                                                               Thu Feb 15 10:00:25 2024

Microchip MPLAB XC8 C Compiler v2.45 (Free license) build 20230818022343 Og1 
     1                           	processor	18F4620
     2                           	fnconf	rparam,??,?,0
     3                           	pagewidth 120
     4                           	opt	flic
     5                           	psect	idataCOMRAM,global,class=CODE,delta=1,noexec
     6                           	psect	smallconst,global,reloc=2,class=SMALLCONST,delta=1,noexec
     7                           	psect	cinit,global,reloc=2,class=CODE,delta=1
     8                           	psect	bssCOMRAM,global,class=COMRAM,space=1,delta=1,lowdata,noexec
     9                           	psect	dataCOMRAM,global,class=COMRAM,space=1,delta=1,lowdata,noexec
    10                           	psect	cstackCOMRAM,global,class=COMRAM,space=1,delta=1,lowdata,noexec
    11                           	psect	text0,global,reloc=2,class=CODE,delta=1
    12                           	psect	text1,global,reloc=2,class=CODE,delta=1
    13                           	psect	text2,global,reloc=2,class=CODE,delta=1
    14                           	psect	text3,global,reloc=2,class=CODE,delta=1
    15                           	psect	text4,global,reloc=2,class=CODE,delta=1
    16                           	psect	text5,global,reloc=2,class=CODE,delta=1
    17                           	psect	text6,global,reloc=2,class=CODE,delta=1
    18                           	psect	text7,global,reloc=2,class=CODE,delta=1
    19                           	psect	text8,global,reloc=2,class=CODE,delta=1
    20                           	psect	text9,global,reloc=2,class=CODE,delta=1
    21                           	psect	text10,global,reloc=2,class=CODE,delta=1
    22                           	psect	intcode,global,reloc=2,class=CODE,delta=1
    23                           	psect	intcode_body,global,reloc=2,class=CODE,delta=1
    24                           	psect	text12,global,reloc=2,class=CODE,delta=1
    25                           	psect	text13,global,reloc=2,class=CODE,delta=1
    26                           	psect	text14,global,reloc=2,class=CODE,delta=1
    27                           	psect	text15,global,reloc=2,class=CODE,delta=1
    28                           	psect	text16,global,reloc=2,class=CODE,delta=1
    29                           	psect	text17,global,reloc=2,class=CODE,delta=1
    30                           	psect	text18,global,reloc=2,class=CODE,delta=1
    31                           	psect	text19,global,reloc=2,class=CODE,delta=1
    32                           	psect	text20,global,reloc=2,class=CODE,delta=1
    33                           	psect	text21,global,reloc=2,class=CODE,delta=1
    34                           	psect	intsave_regs,global,class=BIGRAM,space=1,delta=1,noexec
    35                           	psect	text22,global,reloc=2,class=CODE,delta=1
    36                           	psect	rparam,global,class=COMRAM,space=1,delta=1,noexec
    37                           	psect	temp,global,ovrld,common,class=COMRAM,space=1,delta=1
    38                           	psect	config,global,abs,ovrld,class=CONFIG,space=4,delta=1,noexec
    39   000000                     
    40                           ; Generated 23/03/2023 GMT
    41                           ; 
    42                           ; Copyright © 2023, Microchip Technology Inc. and its subsidiaries ("Microchip")
    43                           ; All rights reserved.
    44                           ; 
    45                           ; This software is developed by Microchip Technology Inc. and its subsidiaries ("Microch
      +                          ip").
    46                           ; 
    47                           ; Redistribution and use in source and binary forms, with or without modification, are
    48                           ; permitted provided that the following conditions are met:
    49                           ; 
    50                           ;     1. Redistributions of source code must retain the above copyright notice, this lis
      +                          t of
    51                           ;        conditions and the following disclaimer.
    52                           ; 
    53                           ;     2. Redistributions in binary form must reproduce the above copyright notice, this 
      +                          list
    54                           ;        of conditions and the following disclaimer in the documentation and/or other
    55                           ;        materials provided with the distribution. Publication is not required when
    56                           ;        this file is used in an embedded application.
    57                           ; 
    58                           ;     3. Microchip's name may not be used to endorse or promote products derived from th
      +                          is
    59                           ;        software without specific prior written permission.
    60                           ; 
    61                           ; THIS SOFTWARE IS PROVIDED BY MICROCHIP "AS IS" AND ANY EXPRESS OR IMPLIED WARRANTIES,
    62                           ; INCLUDING, BUT NOT LIMITED TO, THE IMPLIED WARRANTIES OF MERCHANTABILITY AND FITNESS F
      +                          OR
    63                           ; PURPOSE ARE DISCLAIMED.  IN NO EVENT SHALL MICROCHIP BE LIABLE FOR ANY DIRECT, INDIREC
      +                          T,
    64                           ; INCIDENTAL, SPECIAL, EXEMPLARY, OR CONSEQUENTIAL DAMAGES (INCLUDING BUT NOT LIMITED TO
    65                           ; PROCUREMENT OF SUBSTITUTE GOODS OR SERVICES; LOSS OF USE, DATA OR PROFITS; OR BUSINESS
    66                           ; INTERRUPTION) HOWSOEVER CAUSED AND ON ANY THEORY OF LIABILITY, WHETHER IN CONTRACT, ST
      +                          RICT
    67                           ; LIABILITY, OR TORT (INCLUDING NEGLIGENCE OR OTHERWISE) ARISING IN ANY WAY OUT OF THE U
      +                          SE OF
    68                           ; THIS SOFTWARE, EVEN IF ADVISED OF THE POSSIBILITY OF SUCH DAMAGE.
    69                           ; 
    70                           ; 
    71                           ; Code-generator required, PIC18F4620 Definitions
    72                           ; 
    73                           ; SFR Addresses
    74   000000                     
    75                           	psect	idataCOMRAM
    76   0019BA                     __pidataCOMRAM:
    77                           	callstack 0
    78                           
    79                           ;initializer for _port_registers
    80   0019BA  80                 	db	128
    81   0019BB  0F                 	db	15
    82   0019BC  81                 	db	129
    83   0019BD  0F                 	db	15
    84   0019BE  82                 	db	130
    85   0019BF  0F                 	db	15
    86   0019C0  83                 	db	131
    87   0019C1  0F                 	db	15
    88   0019C2  84                 	db	132
    89   0019C3  0F                 	db	15
    90                           
    91                           ;initializer for _lat_registers
    92   0019C4  89                 	db	137
    93   0019C5  0F                 	db	15
    94   0019C6  8A                 	db	138
    95   0019C7  0F                 	db	15
    96   0019C8  8B                 	db	139
    97   0019C9  0F                 	db	15
    98   0019CA  8C                 	db	140
    99   0019CB  0F                 	db	15
   100   0019CC  8D                 	db	141
   101   0019CD  0F                 	db	15
   102                           
   103                           ;initializer for _tris_registers
   104   0019CE  92                 	db	146
   105   0019CF  0F                 	db	15
   106   0019D0  93                 	db	147
   107   0019D1  0F                 	db	15
   108   0019D2  94                 	db	148
   109   0019D3  0F                 	db	15
   110   0019D4  95                 	db	149
   111   0019D5  0F                 	db	15
   112   0019D6  96                 	db	150
   113   0019D7  0F                 	db	15
   114                           
   115                           ;initializer for _ret
   116   0019D8  01                 	db	1
   117                           
   118                           ;initializer for _RB7_f
   119   0019D9  01                 	db	1
   120                           
   121                           ;initializer for _RB6_f
   122   0019DA  01                 	db	1
   123                           
   124                           ;initializer for _RB5_f
   125   0019DB  01                 	db	1
   126                           
   127                           ;initializer for _RB4_f
   128   0019DC  01                 	db	1
   129                           
   130                           ;initializer for _r
   131   0019DD  4C                 	db	low _f
   132   0019DE  1A                 	db	high _f
   133   0019DF  00                 	db	0
   134   0019E0  00                 	db	0
   135   0019E1  01                 	db	1
   136   0019E2  79                 	db	121
   137                           
   138                           ;initializer for _b
   139   0019E3  42                 	db	66
   140   0019E4  00                 	db	0
   141   0019E5  01                 	db	1
   142                           
   143                           ;initializer for _s
   144   0019E6  01                 	db	1
   145                           
   146                           ;initializer for _led
   147   0019E7  0A                 	db	10
   148                           
   149                           	psect	smallconst
   150   001000                     __psmallconst:
   151                           	callstack 0
   152   001000  00                 	db	0
   153   001001                     _btn_values:
   154                           	callstack 0
   155   001001  37                 	db	55
   156   001002  38                 	db	56
   157   001003  39                 	db	57
   158   001004  2F                 	db	47
   159   001005  34                 	db	52
   160   001006  35                 	db	53
   161   001007  36                 	db	54
   162   001008  2A                 	db	42
   163   001009  31                 	db	49
   164   00100A  32                 	db	50
   165   00100B  33                 	db	51
   166   00100C  2D                 	db	45
   167   00100D  23                 	db	35
   168   00100E  30                 	db	48
   169   00100F  3D                 	db	61
   170   001010  2B                 	db	43
   171   001011                     __end_of_btn_values:
   172                           	callstack 0
   173   000000                     _EECON2	set	4007
   174   000000                     _INTCON2bits	set	4081
   175   000000                     _PORTBbits	set	3969
   176   000000                     _PORTE	set	3972
   177   000000                     _PORTD	set	3971
   178   000000                     _PORTC	set	3970
   179   000000                     _PORTB	set	3969
   180   000000                     _PORTA	set	3968
   181   000000                     _LATA	set	3977
   182   000000                     _TRISA	set	3986
   183   000000                     _EECON1bits	set	4006
   184   000000                     _EEDATA	set	4008
   185   000000                     _EEADR	set	4009
   186   000000                     _EEADRH	set	4010
   187   000000                     _INTCON3bits	set	4080
   188   000000                     _INTCONbits	set	4082
   189   000000                     _TRISE	set	3990
   190   000000                     _TRISD	set	3989
   191   000000                     _TRISC	set	3988
   192   000000                     _TRISB	set	3987
   193   000000                     _LATE	set	3981
   194   000000                     _LATD	set	3980
   195   000000                     _LATC	set	3979
   196   000000                     _LATB	set	3978
   197   001011                     STR_1:
   198   001011  25                 	db	37
   199   001012  69                 	db	105	;'i'
   200   001013  00                 	db	0
   201   001014  00                 	db	0	; dummy byte at the end
   202   000000                     
   203                           ; #config settings
   204                           
   205                           	psect	cinit
   206   001984                     __pcinit:
   207                           	callstack 0
   208   001984                     start_initialization:
   209                           	callstack 0
   210   001984                     __initialization:
   211                           	callstack 0
   212                           
   213                           ; Initialize objects allocated to COMRAM (46 bytes)
   214                           ; load TBLPTR registers with __pidataCOMRAM
   215   001984  0EBA               	movlw	low __pidataCOMRAM
   216   001986  6EF6               	movwf	tblptrl,c
   217   001988  0E19               	movlw	high __pidataCOMRAM
   218   00198A  6EF7               	movwf	tblptrh,c
   219   00198C  0E00               	movlw	low (__pidataCOMRAM shr (0+16))
   220   00198E  6EF8               	movwf	tblptru,c
   221   001990  EE00  F001         	lfsr	0,__pdataCOMRAM
   222   001994  EE10 F02E          	lfsr	1,46
   223   001998                     copy_data0:
   224   001998  0009               	tblrd		*+
   225   00199A  CFF5 FFEE          	movff	tablat,postinc0
   226   00199E  50E5               	movf	postdec1,w,c
   227   0019A0  50E1               	movf	fsr1l,w,c
   228   0019A2  E1FA               	bnz	copy_data0
   229                           
   230                           ; Clear objects allocated to COMRAM (29 bytes)
   231   0019A4  EE00  F04E         	lfsr	0,__pbssCOMRAM
   232   0019A8  0E1D               	movlw	29
   233   0019AA                     clear_0:
   234   0019AA  6AEE               	clrf	postinc0,c
   235   0019AC  06E8               	decf	wreg,f,c
   236   0019AE  E1FD               	bnz	clear_0
   237   0019B0                     end_of_initialization:
   238                           	callstack 0
   239   0019B0                     __end_of__initialization:
   240                           	callstack 0
   241   0019B0  906B               	bcf	int$flags,0,c	;clear compiler interrupt flag (level 1)
   242   0019B2  926B               	bcf	int$flags,1,c	;clear compiler interrupt flag (level 2)
   243   0019B4  0100               	movlb	0
   244   0019B6  EF19  F00D         	goto	_main	;jump to C main() function
   245                           
   246                           	psect	bssCOMRAM
   247   00004E                     __pbssCOMRAM:
   248                           	callstack 0
   249   00004E                     _RB7_Interrupt_Handler_Low:
   250                           	callstack 0
   251   00004E                     	ds	2
   252   000050                     _RB7_Interrupt_Handler_High:
   253                           	callstack 0
   254   000050                     	ds	2
   255   000052                     _RB6_Interrupt_Handler_Low:
   256                           	callstack 0
   257   000052                     	ds	2
   258   000054                     _RB6_Interrupt_Handler_High:
   259                           	callstack 0
   260   000054                     	ds	2
   261   000056                     _RB5_Interrupt_Handler_Low:
   262                           	callstack 0
   263   000056                     	ds	2
   264   000058                     _RB5_Interrupt_Handler_High:
   265                           	callstack 0
   266   000058                     	ds	2
   267   00005A                     _RB4_Interrupt_Handler_Low:
   268                           	callstack 0
   269   00005A                     	ds	2
   270   00005C                     _RB4_Interrupt_Handler_High:
   271                           	callstack 0
   272   00005C                     	ds	2
   273   00005E                     _INT2_Interrupt_Handler:
   274                           	callstack 0
   275   00005E                     	ds	2
   276   000060                     _INT1_Interrupt_Handler:
   277                           	callstack 0
   278   000060                     	ds	2
   279   000062                     _INT0_Interrupt_Handler:
   280                           	callstack 0
   281   000062                     	ds	2
   282   000064                     Relay_off@F3490:
   283                           	callstack 0
   284   000064                     	ds	1
   285   000065                     Relay_on@F3485:
   286                           	callstack 0
   287   000065                     	ds	1
   288   000066                     Relay_initialize@F3480:
   289                           	callstack 0
   290   000066                     	ds	1
   291   000067                     led_toggle_status@F3497:
   292                           	callstack 0
   293   000067                     	ds	1
   294   000068                     led_turn_off@F3492:
   295                           	callstack 0
   296   000068                     	ds	1
   297   000069                     led_turn_on@F3487:
   298                           	callstack 0
   299   000069                     	ds	1
   300   00006A                     led_intialize@F3482:
   301                           	callstack 0
   302   00006A                     	ds	1
   303                           
   304                           	psect	dataCOMRAM
   305   000001                     __pdataCOMRAM:
   306                           	callstack 0
   307   000001                     _port_registers:
   308                           	callstack 0
   309   000001                     	ds	10
   310   00000B                     _lat_registers:
   311                           	callstack 0
   312   00000B                     	ds	10
   313   000015                     _tris_registers:
   314                           	callstack 0
   315   000015                     	ds	10
   316   00001F                     _ret:
   317                           	callstack 0
   318   00001F                     	ds	1
   319   000020                     _RB7_f:
   320                           	callstack 0
   321   000020                     	ds	1
   322   000021                     _RB6_f:
   323                           	callstack 0
   324   000021                     	ds	1
   325   000022                     _RB5_f:
   326                           	callstack 0
   327   000022                     	ds	1
   328   000023                     _RB4_f:
   329                           	callstack 0
   330   000023                     	ds	1
   331   000024                     _r:
   332                           	callstack 0
   333   000024                     	ds	6
   334   00002A                     _b:
   335                           	callstack 0
   336   00002A                     	ds	3
   337   00002D                     _s:
   338                           	callstack 0
   339   00002D                     	ds	1
   340   00002E                     _led:
   341                           	callstack 0
   342   00002E                     	ds	1
   343                           
   344                           	psect	cstackCOMRAM
   345   00002F                     __pcstackCOMRAM:
   346                           	callstack 0
   347   00002F                     gpio_pin_toggle_logic@_pin_config:
   348                           	callstack 0
   349                           
   350                           ; 1 bytes @ 0x0
   351   00002F                     	ds	1
   352   000030                     ??_gpio_pin_toggle_logic:
   353                           
   354                           ; 1 bytes @ 0x1
   355   000030                     	ds	4
   356   000034                     led_toggle_status@Led:
   357                           	callstack 0
   358                           
   359                           ; 1 bytes @ 0x5
   360   000034                     	ds	1
   361   000035                     ??_led_toggle_status:
   362                           
   363                           ; 1 bytes @ 0x6
   364   000035                     	ds	1
   365   000036                     led_toggle_status@ret:
   366                           	callstack 0
   367                           
   368                           ; 1 bytes @ 0x7
   369   000036                     	ds	1
   370   000037                     led_toggle_status@pin_obj:
   371                           	callstack 0
   372                           
   373                           ; 1 bytes @ 0x8
   374   000037                     	ds	1
   375   000038                     RB4_ISR@source:
   376                           	callstack 0
   377   000038                     RB5_ISR@source:
   378                           	callstack 0
   379   000038                     RB6_ISR@source:
   380                           	callstack 0
   381   000038                     RB7_ISR@source:
   382                           	callstack 0
   383                           
   384                           ; 1 bytes @ 0x9
   385   000038                     	ds	1
   386   000039                     ??_Interrupt_Manager_High:
   387                           
   388                           ; 1 bytes @ 0xA
   389   000039                     	ds	6
   390   00003F                     gpio_pin_direction_intialize@_pin_config:
   391                           	callstack 0
   392   00003F                     gpio_pin_write_logic@_pin_config:
   393                           	callstack 0
   394   00003F                     gpio_pin_read_logic@_pin_config:
   395                           	callstack 0
   396                           
   397                           ; 1 bytes @ 0x10
   398   00003F                     	ds	1
   399   000040                     ??_gpio_pin_direction_intialize:
   400   000040                     gpio_pin_write_logic@logic_:
   401                           	callstack 0
   402   000040                     gpio_pin_read_logic@logic_:
   403                           	callstack 0
   404                           
   405                           ; 1 bytes @ 0x11
   406   000040                     	ds	1
   407   000041                     ??_gpio_pin_read_logic:
   408   000041                     ??_gpio_pin_write_logic:
   409                           
   410                           ; 1 bytes @ 0x12
   411   000041                     	ds	4
   412   000045                     gpio_pin_direction_intialize@ret:
   413                           	callstack 0
   414   000045                     gpio_pin_read_logic@ret:
   415                           	callstack 0
   416                           
   417                           ; 1 bytes @ 0x16
   418   000045                     	ds	1
   419   000046                     button_read_state@button:
   420                           	callstack 0
   421   000046                     gpio_pin_write_logic@ret:
   422                           	callstack 0
   423   000046                     Interrupt_RBx_Init@obj:
   424                           	callstack 0
   425                           
   426                           ; 1 bytes @ 0x17
   427   000046                     	ds	1
   428   000047                     ??_Interrupt_RBx_Init:
   429   000047                     button_read_state@button_state:
   430                           	callstack 0
   431   000047                     gpio_pin_initialize@_pin_config:
   432                           	callstack 0
   433                           
   434                           ; 1 bytes @ 0x18
   435   000047                     	ds	1
   436   000048                     ??_gpio_pin_initialize:
   437   000048                     
   438                           ; 1 bytes @ 0x19
   439   000048                     	ds	1
   440   000049                     button_read_state@ret:
   441                           	callstack 0
   442   000049                     gpio_pin_initialize@ret:
   443                           	callstack 0
   444   000049                     Interrupt_RBx_Init@ret:
   445                           	callstack 0
   446                           
   447                           ; 1 bytes @ 0x1A
   448   000049                     	ds	1
   449   00004A                     button_intialize@button:
   450                           	callstack 0
   451   00004A                     button_read_state@Button_Logic:
   452                           	callstack 0
   453   00004A                     led_intialize@Led:
   454                           	callstack 0
   455                           
   456                           ; 1 bytes @ 0x1B
   457   00004A                     	ds	1
   458   00004B                     ??_led_intialize:
   459   00004B                     button_intialize@ret:
   460                           	callstack 0
   461                           
   462                           ; 1 bytes @ 0x1C
   463   00004B                     	ds	1
   464   00004C                     led_intialize@ret:
   465                           	callstack 0
   466                           
   467                           ; 1 bytes @ 0x1D
   468   00004C                     	ds	1
   469   00004D                     led_intialize@pin_obj:
   470                           	callstack 0
   471                           
   472                           ; 1 bytes @ 0x1E
   473   00004D                     	ds	1
   474   00004E                     
   475                           ; 1 bytes @ 0x1F
   476 ;;
   477 ;;Main: autosize = 0, tempsize = 0, incstack = 0, save=0
   478 ;;
   479 ;; *************** function _main *****************
   480 ;; Defined at:
   481 ;;		line 37 in file "app.c"
   482 ;; Parameters:    Size  Location     Type
   483 ;;		None
   484 ;; Auto vars:     Size  Location     Type
   485 ;;		None
   486 ;; Return value:  Size  Location     Type
   487 ;;                  2  705[None  ] int 
   488 ;; Registers used:
   489 ;;		wreg, fsr1l, fsr1h, fsr2l, fsr2h, status,2, status,0, prodl, prodh, cstack
   490 ;; Tracked objects:
   491 ;;		On entry : 0/0
   492 ;;		On exit  : 0/0
   493 ;;		Unchanged: 0/0
   494 ;; Data sizes:     COMRAM   BANK0   BANK1   BANK2   BANK3   BANK4   BANK5   BANK6   BANK7   BANK8   BANK9  BANK10  BANK1
      +1  BANK12  BANK13  BANK14  BANK15
   495 ;;      Params:         0       0       0       0       0       0       0       0       0       0       0       0       
      +0       0       0       0       0
   496 ;;      Locals:         0       0       0       0       0       0       0       0       0       0       0       0       
      +0       0       0       0       0
   497 ;;      Temps:          0       0       0       0       0       0       0       0       0       0       0       0       
      +0       0       0       0       0
   498 ;;      Totals:         0       0       0       0       0       0       0       0       0       0       0       0       
      +0       0       0       0       0
   499 ;;Total ram usage:        0 bytes
   500 ;; Hardware stack levels required when called: 9
   501 ;; This function calls:
   502 ;;		_Application_initialize
   503 ;;		_button_read_state
   504 ;; This function is called by:
   505 ;;		Startup code after reset
   506 ;; This function uses a non-reentrant model
   507 ;;
   508                           
   509                           	psect	text0
   510   001A32                     __ptext0:
   511                           	callstack 0
   512   001A32                     _main:
   513                           	callstack 22
   514   001A32                     
   515                           ;app.c: 39:     Application_initialize();
   516   001A32  EC07  F00D         	call	_Application_initialize	;wreg free
   517   001A36                     l3698:
   518                           
   519                           ;app.c: 42:         ret = button_read_state(&b, &s);
   520   001A36  0E2A               	movlw	low _b
   521   001A38  6E46               	movwf	button_read_state@button^0,c
   522   001A3A  0E2D               	movlw	low _s
   523   001A3C  6E47               	movwf	button_read_state@button_state^0,c
   524   001A3E  ECAB  F00A         	call	_button_read_state	;wreg free
   525   001A42  6E1F               	movwf	_ret^0,c	;volatile
   526   001A44  EF1B  F00D         	goto	l3698
   527   001A48  EF07  F000         	goto	start
   528   001A4C                     __end_of_main:
   529                           	callstack 0
   530                           
   531 ;; *************** function _button_read_state *****************
   532 ;; Defined at:
   533 ;;		line 42 in file "ECU_LAYER/button/ecu_button.c"
   534 ;; Parameters:    Size  Location     Type
   535 ;;  button          1   23[COMRAM] PTR const struct .
   536 ;;		 -> b(3), 
   537 ;;  button_state    1   24[COMRAM] PTR enum E3462
   538 ;;		 -> s(1), 
   539 ;; Auto vars:     Size  Location     Type
   540 ;;  Button_Logic    1   27[COMRAM] enum E3402
   541 ;;  ret             1   26[COMRAM] unsigned char 
   542 ;; Return value:  Size  Location     Type
   543 ;;                  1    wreg      unsigned char 
   544 ;; Registers used:
   545 ;;		wreg, fsr1l, fsr1h, fsr2l, fsr2h, status,2, status,0, prodl, prodh, cstack
   546 ;; Tracked objects:
   547 ;;		On entry : 0/0
   548 ;;		On exit  : 0/0
   549 ;;		Unchanged: 0/0
   550 ;; Data sizes:     COMRAM   BANK0   BANK1   BANK2   BANK3   BANK4   BANK5   BANK6   BANK7   BANK8   BANK9  BANK10  BANK1
      +1  BANK12  BANK13  BANK14  BANK15
   551 ;;      Params:         2       0       0       0       0       0       0       0       0       0       0       0       
      +0       0       0       0       0
   552 ;;      Locals:         2       0       0       0       0       0       0       0       0       0       0       0       
      +0       0       0       0       0
   553 ;;      Temps:          1       0       0       0       0       0       0       0       0       0       0       0       
      +0       0       0       0       0
   554 ;;      Totals:         5       0       0       0       0       0       0       0       0       0       0       0       
      +0       0       0       0       0
   555 ;;Total ram usage:        5 bytes
   556 ;; Hardware stack levels used: 1
   557 ;; Hardware stack levels required when called: 6
   558 ;; This function calls:
   559 ;;		_gpio_pin_read_logic
   560 ;; This function is called by:
   561 ;;		_main
   562 ;; This function uses a non-reentrant model
   563 ;;
   564                           
   565                           	psect	text1
   566   001556                     __ptext1:
   567                           	callstack 0
   568   001556                     _button_read_state:
   569                           	callstack 24
   570   001556                     
   571                           ;ECU_LAYER/button/ecu_button.c: 43:     Std_ReturnType ret = (Std_ReturnType)0X01;
   572   001556  0E01               	movlw	1
   573   001558  6E49               	movwf	button_read_state@ret^0,c
   574                           
   575                           ;ECU_LAYER/button/ecu_button.c: 44:     logic_t Button_Logic = GPIO_LOW;
   576   00155A  0E00               	movlw	0
   577   00155C  6E4A               	movwf	button_read_state@Button_Logic^0,c
   578                           
   579                           ;ECU_LAYER/button/ecu_button.c: 47:     if ((((void*)0) == button) || (((void*)0) == but
      +                          ton_state)) {
   580   00155E  5046               	movf	button_read_state@button^0,w,c
   581   001560  B4D8               	btfsc	status,2,c
   582   001562  EFB5  F00A         	goto	u1851
   583   001566  EFB7  F00A         	goto	u1850
   584   00156A                     u1851:
   585   00156A  EFBF  F00A         	goto	l2982
   586   00156E                     u1850:
   587   00156E  5047               	movf	button_read_state@button_state^0,w,c
   588   001570  A4D8               	btfss	status,2,c
   589   001572  EFBD  F00A         	goto	u1861
   590   001576  EFBF  F00A         	goto	u1860
   591   00157A                     u1861:
   592   00157A  EFC3  F00A         	goto	l2984
   593   00157E                     u1860:
   594   00157E                     l2982:
   595                           
   596                           ;ECU_LAYER/button/ecu_button.c: 48:         ret = (Std_ReturnType)0X00;
   597   00157E  0E00               	movlw	0
   598   001580  6E49               	movwf	button_read_state@ret^0,c
   599                           
   600                           ;ECU_LAYER/button/ecu_button.c: 49:     } else {
   601   001582  EF02  F00B         	goto	l3002
   602   001586                     l2984:
   603                           
   604                           ;ECU_LAYER/button/ecu_button.c: 51:         gpio_pin_read_logic(&(button->pin_config), &
      +                          Button_Logic);
   605   001586  C046  F03F         	movff	button_read_state@button,gpio_pin_read_logic@_pin_config
   606   00158A  0E4A               	movlw	low button_read_state@Button_Logic
   607   00158C  6E40               	movwf	gpio_pin_read_logic@logic_^0,c
   608   00158E  EC04  F00B         	call	_gpio_pin_read_logic	;wreg free
   609   001592                     
   610                           ;ECU_LAYER/button/ecu_button.c: 54:         if (BUTTON_ACTVE_HIGH == button->button_acti
      +                          ve) {
   611   001592  5046               	movf	button_read_state@button^0,w,c
   612   001594  6ED9               	movwf	fsr2l,c
   613   001596  6ADA               	clrf	fsr2h,c
   614   001598  0E01               	movlw	1
   615   00159A  26D9               	addwf	fsr2l,f,c
   616   00159C  50DF               	movf	indf2,w,c
   617   00159E  A4D8               	btfss	status,2,c
   618   0015A0  EFD4  F00A         	goto	u1871
   619   0015A4  EFD6  F00A         	goto	u1870
   620   0015A8                     u1871:
   621   0015A8  EFEB  F00A         	goto	l2994
   622   0015AC                     u1870:
   623   0015AC                     
   624                           ;ECU_LAYER/button/ecu_button.c: 55:             if (GPIO_LOW == Button_Logic) {
   625   0015AC  504A               	movf	button_read_state@Button_Logic^0,w,c
   626   0015AE  A4D8               	btfss	status,2,c
   627   0015B0  EFDC  F00A         	goto	u1881
   628   0015B4  EFDE  F00A         	goto	u1880
   629   0015B8                     u1881:
   630   0015B8  EFE5  F00A         	goto	l2992
   631   0015BC                     u1880:
   632   0015BC                     l2990:
   633                           
   634                           ;ECU_LAYER/button/ecu_button.c: 56:                 *button_state = BUTTON_RELEASED;
   635   0015BC  5047               	movf	button_read_state@button_state^0,w,c
   636   0015BE  6ED9               	movwf	fsr2l,c
   637   0015C0  6ADA               	clrf	fsr2h,c
   638   0015C2  0E01               	movlw	1
   639   0015C4  6EDF               	movwf	indf2,c
   640                           
   641                           ;ECU_LAYER/button/ecu_button.c: 57:             } else {
   642   0015C6  EF02  F00B         	goto	l3002
   643   0015CA                     l2992:
   644                           
   645                           ;ECU_LAYER/button/ecu_button.c: 58:                 *button_state = BUTTON_PRESSED;
   646   0015CA  5047               	movf	button_read_state@button_state^0,w,c
   647   0015CC  6ED9               	movwf	fsr2l,c
   648   0015CE  6ADA               	clrf	fsr2h,c
   649   0015D0  6ADF               	clrf	indf2,c
   650   0015D2  EF02  F00B         	goto	l3002
   651   0015D6                     l2994:
   652   0015D6  5046               	movf	button_read_state@button^0,w,c
   653   0015D8  6ED9               	movwf	fsr2l,c
   654   0015DA  6ADA               	clrf	fsr2h,c
   655   0015DC  0E01               	movlw	1
   656   0015DE  26D9               	addwf	fsr2l,f,c
   657   0015E0  04DE               	decf	postinc2,w,c
   658   0015E2  A4D8               	btfss	status,2,c
   659   0015E4  EFF6  F00A         	goto	u1891
   660   0015E8  EFF8  F00A         	goto	u1890
   661   0015EC                     u1891:
   662   0015EC  EF02  F00B         	goto	l3002
   663   0015F0                     u1890:
   664   0015F0                     
   665                           ;ECU_LAYER/button/ecu_button.c: 61:             if (GPIO_HIGH == Button_Logic) {
   666   0015F0  044A               	decf	button_read_state@Button_Logic^0,w,c
   667   0015F2  A4D8               	btfss	status,2,c
   668   0015F4  EFFE  F00A         	goto	u1901
   669   0015F8  EF00  F00B         	goto	u1900
   670   0015FC                     u1901:
   671   0015FC  EFE5  F00A         	goto	l2992
   672   001600                     u1900:
   673   001600  EFDE  F00A         	goto	l2990
   674   001604                     l3002:
   675                           
   676                           ;ECU_LAYER/button/ecu_button.c: 69:     return ret;
   677   001604  5049               	movf	button_read_state@ret^0,w,c
   678   001606  0012               	return		;funcret
   679   001608                     __end_of_button_read_state:
   680                           	callstack 0
   681                           
   682 ;; *************** function _gpio_pin_read_logic *****************
   683 ;; Defined at:
   684 ;;		line 80 in file "MCAL_Layer/GPIO/hal_gpio.c"
   685 ;; Parameters:    Size  Location     Type
   686 ;;  _pin_config     1   16[COMRAM] PTR const struct .
   687 ;;		 -> b(3), 
   688 ;;  logic_          1   17[COMRAM] PTR enum E3402
   689 ;;		 -> keypad_get_value@value_pin(1), button_read_state@Button_Logic(1), 
   690 ;; Auto vars:     Size  Location     Type
   691 ;;  ret             1   22[COMRAM] unsigned char 
   692 ;; Return value:  Size  Location     Type
   693 ;;                  1    wreg      unsigned char 
   694 ;; Registers used:
   695 ;;		wreg, fsr1l, fsr1h, fsr2l, fsr2h, status,2, status,0, prodl, prodh
   696 ;; Tracked objects:
   697 ;;		On entry : 0/0
   698 ;;		On exit  : 0/0
   699 ;;		Unchanged: 0/0
   700 ;; Data sizes:     COMRAM   BANK0   BANK1   BANK2   BANK3   BANK4   BANK5   BANK6   BANK7   BANK8   BANK9  BANK10  BANK1
      +1  BANK12  BANK13  BANK14  BANK15
   701 ;;      Params:         2       0       0       0       0       0       0       0       0       0       0       0       
      +0       0       0       0       0
   702 ;;      Locals:         1       0       0       0       0       0       0       0       0       0       0       0       
      +0       0       0       0       0
   703 ;;      Temps:          4       0       0       0       0       0       0       0       0       0       0       0       
      +0       0       0       0       0
   704 ;;      Totals:         7       0       0       0       0       0       0       0       0       0       0       0       
      +0       0       0       0       0
   705 ;;Total ram usage:        7 bytes
   706 ;; Hardware stack levels used: 1
   707 ;; Hardware stack levels required when called: 5
   708 ;; This function calls:
   709 ;;		Nothing
   710 ;; This function is called by:
   711 ;;		_button_read_state
   712 ;;		_keypad_get_value
   713 ;; This function uses a non-reentrant model
   714 ;;
   715                           
   716                           	psect	text2
   717   001608                     __ptext2:
   718                           	callstack 0
   719   001608                     _gpio_pin_read_logic:
   720                           	callstack 24
   721   001608                     
   722                           ;MCAL_Layer/GPIO/hal_gpio.c: 81:     Std_ReturnType ret = (Std_ReturnType)0X01;
   723   001608  0E01               	movlw	1
   724   00160A  6E45               	movwf	gpio_pin_read_logic@ret^0,c
   725                           
   726                           ;MCAL_Layer/GPIO/hal_gpio.c: 82:     if (((void*)0) == _pin_config || ((void*)0) == logi
      +                          c_ || _pin_config->pin > 8 - 1) {
   727   00160C  503F               	movf	gpio_pin_read_logic@_pin_config^0,w,c
   728   00160E  B4D8               	btfsc	status,2,c
   729   001610  EF0C  F00B         	goto	u1721
   730   001614  EF0E  F00B         	goto	u1720
   731   001618                     u1721:
   732   001618  EF26  F00B         	goto	l2834
   733   00161C                     u1720:
   734   00161C  5040               	movf	gpio_pin_read_logic@logic_^0,w,c
   735   00161E  B4D8               	btfsc	status,2,c
   736   001620  EF14  F00B         	goto	u1731
   737   001624  EF16  F00B         	goto	u1730
   738   001628                     u1731:
   739   001628  EF26  F00B         	goto	l2834
   740   00162C                     u1730:
   741   00162C  503F               	movf	gpio_pin_read_logic@_pin_config^0,w,c
   742   00162E  6ED9               	movwf	fsr2l,c
   743   001630  6ADA               	clrf	fsr2h,c
   744   001632  30DF               	rrcf	223,w,c
   745   001634  32E8               	rrcf	wreg,f,c
   746   001636  32E8               	rrcf	wreg,f,c
   747   001638  0B07               	andlw	7
   748   00163A  6E41               	movwf	??_gpio_pin_read_logic^0,c
   749   00163C  0E07               	movlw	7
   750   00163E  6441               	cpfsgt	??_gpio_pin_read_logic^0,c
   751   001640  EF24  F00B         	goto	u1741
   752   001644  EF26  F00B         	goto	u1740
   753   001648                     u1741:
   754   001648  EF2A  F00B         	goto	l2836
   755   00164C                     u1740:
   756   00164C                     l2834:
   757                           
   758                           ;MCAL_Layer/GPIO/hal_gpio.c: 83:         ret = (Std_ReturnType)0X00;
   759   00164C  0E00               	movlw	0
   760   00164E  6E45               	movwf	gpio_pin_read_logic@ret^0,c
   761                           
   762                           ;MCAL_Layer/GPIO/hal_gpio.c: 84:     } else {
   763   001650  EF54  F00B         	goto	l2838
   764   001654                     l2836:
   765                           
   766                           ;MCAL_Layer/GPIO/hal_gpio.c: 85:         *(logic_) = ((*port_registers[_pin_config->port
      +                          ] >> _pin_config->pin) & (uint8)1);
   767   001654  5040               	movf	gpio_pin_read_logic@logic_^0,w,c
   768   001656  6ED9               	movwf	fsr2l,c
   769   001658  6ADA               	clrf	fsr2h,c
   770   00165A  503F               	movf	gpio_pin_read_logic@_pin_config^0,w,c
   771   00165C  6EE1               	movwf	fsr1l,c
   772   00165E  6AE2               	clrf	fsr1h,c
   773   001660  30E7               	rrcf	231,w,c
   774   001662  32E8               	rrcf	wreg,f,c
   775   001664  32E8               	rrcf	wreg,f,c
   776   001666  0B07               	andlw	7
   777   001668  6E41               	movwf	??_gpio_pin_read_logic^0,c
   778   00166A  503F               	movf	gpio_pin_read_logic@_pin_config^0,w,c
   779   00166C  6EE1               	movwf	fsr1l,c
   780   00166E  6AE2               	clrf	fsr1h,c
   781   001670  50E7               	movf	231,w,c
   782   001672  0B07               	andlw	7
   783   001674  0D02               	mullw	2
   784   001676  50F3               	movf	243,w,c
   785   001678  0F01               	addlw	low _port_registers
   786   00167A  6EE1               	movwf	fsr1l,c
   787   00167C  6AE2               	clrf	fsr1h,c
   788   00167E  CFE6 F042          	movff	postinc1,??_gpio_pin_read_logic+1
   789   001682  CFE5 F043          	movff	postdec1,??_gpio_pin_read_logic+2
   790   001686  C042  FFE1         	movff	??_gpio_pin_read_logic+1,fsr1l
   791   00168A  C043  FFE2         	movff	??_gpio_pin_read_logic+2,fsr1h
   792   00168E  50E7               	movf	indf1,w,c
   793   001690  6E44               	movwf	(??_gpio_pin_read_logic+3)^0,c
   794   001692  2A41               	incf	??_gpio_pin_read_logic^0,f,c
   795   001694  EF4E  F00B         	goto	u1754
   796   001698                     u1755:
   797   001698  90D8               	bcf	status,0,c
   798   00169A  3244               	rrcf	(??_gpio_pin_read_logic+3)^0,f,c
   799   00169C                     u1754:
   800   00169C  2E41               	decfsz	??_gpio_pin_read_logic^0,f,c
   801   00169E  EF4C  F00B         	goto	u1755
   802   0016A2  5044               	movf	(??_gpio_pin_read_logic+3)^0,w,c
   803   0016A4  0B01               	andlw	1
   804   0016A6  6EDF               	movwf	indf2,c
   805   0016A8                     l2838:
   806                           
   807                           ;MCAL_Layer/GPIO/hal_gpio.c: 88:     return ret;
   808   0016A8  5045               	movf	gpio_pin_read_logic@ret^0,w,c
   809   0016AA  0012               	return		;funcret
   810   0016AC                     __end_of_gpio_pin_read_logic:
   811                           	callstack 0
   812                           
   813 ;; *************** function _Application_initialize *****************
   814 ;; Defined at:
   815 ;;		line 48 in file "app.c"
   816 ;; Parameters:    Size  Location     Type
   817 ;;		None
   818 ;; Auto vars:     Size  Location     Type
   819 ;;		None
   820 ;; Return value:  Size  Location     Type
   821 ;;                  1    wreg      void 
   822 ;; Registers used:
   823 ;;		wreg, fsr2l, fsr2h, status,2, status,0, prodl, prodh, cstack
   824 ;; Tracked objects:
   825 ;;		On entry : 0/0
   826 ;;		On exit  : 0/0
   827 ;;		Unchanged: 0/0
   828 ;; Data sizes:     COMRAM   BANK0   BANK1   BANK2   BANK3   BANK4   BANK5   BANK6   BANK7   BANK8   BANK9  BANK10  BANK1
      +1  BANK12  BANK13  BANK14  BANK15
   829 ;;      Params:         0       0       0       0       0       0       0       0       0       0       0       0       
      +0       0       0       0       0
   830 ;;      Locals:         0       0       0       0       0       0       0       0       0       0       0       0       
      +0       0       0       0       0
   831 ;;      Temps:          0       0       0       0       0       0       0       0       0       0       0       0       
      +0       0       0       0       0
   832 ;;      Totals:         0       0       0       0       0       0       0       0       0       0       0       0       
      +0       0       0       0       0
   833 ;;Total ram usage:        0 bytes
   834 ;; Hardware stack levels used: 1
   835 ;; Hardware stack levels required when called: 8
   836 ;; This function calls:
   837 ;;		_Interrupt_RBx_Init
   838 ;;		_button_intialize
   839 ;;		_ecu_layer_initialize
   840 ;;		_led_intialize
   841 ;; This function is called by:
   842 ;;		_main
   843 ;; This function uses a non-reentrant model
   844 ;;
   845                           
   846                           	psect	text3
   847   001A0E                     __ptext3:
   848                           	callstack 0
   849   001A0E                     _Application_initialize:
   850                           	callstack 22
   851   001A0E                     
   852                           ;app.c: 49:     ecu_layer_initialize();
   853   001A0E  EC32  F00D         	call	_ecu_layer_initialize	;wreg free
   854   001A12                     
   855                           ;app.c: 50:     ret = led_intialize(&led);
   856   001A12  0E2E               	movlw	low _led
   857   001A14  6E4A               	movwf	led_intialize@Led^0,c
   858   001A16  EC97  F00B         	call	_led_intialize	;wreg free
   859   001A1A  6E1F               	movwf	_ret^0,c	;volatile
   860   001A1C                     
   861                           ;app.c: 51:     ret = Interrupt_RBx_Init(&r);
   862   001A1C  0E24               	movlw	low _r
   863   001A1E  6E46               	movwf	Interrupt_RBx_Init@obj^0,c
   864   001A20  EC97  F009         	call	_Interrupt_RBx_Init	;wreg free
   865   001A24  6E1F               	movwf	_ret^0,c	;volatile
   866   001A26                     
   867                           ;app.c: 52:     ret = button_intialize(&b);
   868   001A26  0E2A               	movlw	low _b
   869   001A28  6E4A               	movwf	button_intialize@button^0,c
   870   001A2A  ECF4  F00C         	call	_button_intialize	;wreg free
   871   001A2E  6E1F               	movwf	_ret^0,c	;volatile
   872   001A30  0012               	return		;funcret
   873   001A32                     __end_of_Application_initialize:
   874                           	callstack 0
   875                           
   876 ;; *************** function _led_intialize *****************
   877 ;; Defined at:
   878 ;;		line 12 in file "ECU_LAYER/Led/ecu_led.c"
   879 ;; Parameters:    Size  Location     Type
   880 ;;  Led             1   27[COMRAM] PTR const struct .
   881 ;;		 -> led(1), 
   882 ;; Auto vars:     Size  Location     Type
   883 ;;  pin_obj         1   30[COMRAM] struct .
   884 ;;  ret             1   29[COMRAM] unsigned char 
   885 ;; Return value:  Size  Location     Type
   886 ;;                  1    wreg      unsigned char 
   887 ;; Registers used:
   888 ;;		wreg, fsr2l, fsr2h, status,2, status,0, prodl, prodh, cstack
   889 ;; Tracked objects:
   890 ;;		On entry : 0/0
   891 ;;		On exit  : 0/0
   892 ;;		Unchanged: 0/0
   893 ;; Data sizes:     COMRAM   BANK0   BANK1   BANK2   BANK3   BANK4   BANK5   BANK6   BANK7   BANK8   BANK9  BANK10  BANK1
      +1  BANK12  BANK13  BANK14  BANK15
   894 ;;      Params:         1       0       0       0       0       0       0       0       0       0       0       0       
      +0       0       0       0       0
   895 ;;      Locals:         2       0       0       0       0       0       0       0       0       0       0       0       
      +0       0       0       0       0
   896 ;;      Temps:          1       0       0       0       0       0       0       0       0       0       0       0       
      +0       0       0       0       0
   897 ;;      Totals:         4       0       0       0       0       0       0       0       0       0       0       0       
      +0       0       0       0       0
   898 ;;Total ram usage:        4 bytes
   899 ;; Hardware stack levels used: 1
   900 ;; Hardware stack levels required when called: 7
   901 ;; This function calls:
   902 ;;		_gpio_pin_initialize
   903 ;; This function is called by:
   904 ;;		_Application_initialize
   905 ;; This function uses a non-reentrant model
   906 ;;
   907                           
   908                           	psect	text4
   909   00172E                     __ptext4:
   910                           	callstack 0
   911   00172E                     _led_intialize:
   912                           	callstack 22
   913   00172E                     
   914                           ;ECU_LAYER/Led/ecu_led.c: 13:     Std_ReturnType ret = (Std_ReturnType)0X01;
   915   00172E  0E01               	movlw	1
   916   001730  6E4C               	movwf	led_intialize@ret^0,c
   917                           
   918                           ;ECU_LAYER/Led/ecu_led.c: 14:     if (((void*)0) == Led) {
   919   001732  504A               	movf	led_intialize@Led^0,w,c
   920   001734  A4D8               	btfss	status,2,c
   921   001736  EF9F  F00B         	goto	u1821
   922   00173A  EFA1  F00B         	goto	u1820
   923   00173E                     u1821:
   924   00173E  EFA5  F00B         	goto	l251
   925   001742                     u1820:
   926   001742                     
   927                           ;ECU_LAYER/Led/ecu_led.c: 15:         ret = (Std_ReturnType)0X00;
   928   001742  0E00               	movlw	0
   929   001744  6E4C               	movwf	led_intialize@ret^0,c
   930                           
   931                           ;ECU_LAYER/Led/ecu_led.c: 16:     } else {
   932   001746  EFCF  F00B         	goto	l2936
   933   00174A                     l251:
   934                           
   935                           ;ECU_LAYER/Led/ecu_led.c: 18:         pin_config_t pin_obj = {
   936   00174A  C06A  F04D         	movff	led_intialize@F3482,led_intialize@pin_obj
   937   00174E  504A               	movf	led_intialize@Led^0,w,c
   938   001750  6ED9               	movwf	fsr2l,c
   939   001752  6ADA               	clrf	fsr2h,c
   940   001754  50DF               	movf	223,w,c
   941   001756  0B07               	andlw	7
   942   001758  6E4B               	movwf	??_led_intialize^0,c
   943   00175A  504D               	movf	led_intialize@pin_obj^0,w,c
   944   00175C  184B               	xorwf	??_led_intialize^0,w,c
   945   00175E  0BF8               	andlw	-8
   946   001760  184B               	xorwf	??_led_intialize^0,w,c
   947   001762  6E4D               	movwf	led_intialize@pin_obj^0,c
   948   001764  504A               	movf	led_intialize@Led^0,w,c
   949   001766  6ED9               	movwf	fsr2l,c
   950   001768  6ADA               	clrf	fsr2h,c
   951   00176A  30DF               	rrcf	223,w,c
   952   00176C  32E8               	rrcf	wreg,f,c
   953   00176E  32E8               	rrcf	wreg,f,c
   954   001770  0B07               	andlw	7
   955   001772  6E4B               	movwf	??_led_intialize^0,c
   956   001774  464B               	rlncf	??_led_intialize^0,f,c
   957   001776  464B               	rlncf	??_led_intialize^0,f,c
   958   001778  464B               	rlncf	??_led_intialize^0,f,c
   959   00177A  504D               	movf	led_intialize@pin_obj^0,w,c
   960   00177C  184B               	xorwf	??_led_intialize^0,w,c
   961   00177E  0BC7               	andlw	-57
   962   001780  184B               	xorwf	??_led_intialize^0,w,c
   963   001782  6E4D               	movwf	led_intialize@pin_obj^0,c
   964   001784  9C4D               	bcf	led_intialize@pin_obj^0,6,c
   965   001786  504A               	movf	led_intialize@Led^0,w,c
   966   001788  6ED9               	movwf	fsr2l,c
   967   00178A  6ADA               	clrf	fsr2h,c
   968   00178C  ACDF               	btfss	indf2,6,c
   969   00178E  D002               	bra	u1835
   970   001790  8E4D               	bsf	led_intialize@pin_obj^0,7,c
   971   001792  D001               	bra	u1837
   972   001794                     u1835:
   973   001794  9E4D               	bcf	led_intialize@pin_obj^0,7,c
   974   001796                     u1837:
   975   001796                     
   976                           ;ECU_LAYER/Led/ecu_led.c: 24:         gpio_pin_initialize(&pin_obj);
   977   001796  0E4D               	movlw	low led_intialize@pin_obj
   978   001798  6E47               	movwf	gpio_pin_initialize@_pin_config^0,c
   979   00179A  EC0B  F00C         	call	_gpio_pin_initialize	;wreg free
   980   00179E                     l2936:
   981                           
   982                           ;ECU_LAYER/Led/ecu_led.c: 26:     return ret;
   983   00179E  504C               	movf	led_intialize@ret^0,w,c
   984   0017A0  0012               	return		;funcret
   985   0017A2                     __end_of_led_intialize:
   986                           	callstack 0
   987                           
   988 ;; *************** function _ecu_layer_initialize *****************
   989 ;; Defined at:
   990 ;;		line 11 in file "ECU_LAYER/ecu_layer_init.c"
   991 ;; Parameters:    Size  Location     Type
   992 ;;		None
   993 ;; Auto vars:     Size  Location     Type
   994 ;;  ret             1    0        unsigned char 
   995 ;; Return value:  Size  Location     Type
   996 ;;                  1    wreg      void 
   997 ;; Registers used:
   998 ;;		wreg, status,2
   999 ;; Tracked objects:
  1000 ;;		On entry : 0/0
  1001 ;;		On exit  : 0/0
  1002 ;;		Unchanged: 0/0
  1003 ;; Data sizes:     COMRAM   BANK0   BANK1   BANK2   BANK3   BANK4   BANK5   BANK6   BANK7   BANK8   BANK9  BANK10  BANK1
      +1  BANK12  BANK13  BANK14  BANK15
  1004 ;;      Params:         0       0       0       0       0       0       0       0       0       0       0       0       
      +0       0       0       0       0
  1005 ;;      Locals:         0       0       0       0       0       0       0       0       0       0       0       0       
      +0       0       0       0       0
  1006 ;;      Temps:          0       0       0       0       0       0       0       0       0       0       0       0       
      +0       0       0       0       0
  1007 ;;      Totals:         0       0       0       0       0       0       0       0       0       0       0       0       
      +0       0       0       0       0
  1008 ;;Total ram usage:        0 bytes
  1009 ;; Hardware stack levels used: 1
  1010 ;; Hardware stack levels required when called: 5
  1011 ;; This function calls:
  1012 ;;		Nothing
  1013 ;; This function is called by:
  1014 ;;		_Application_initialize
  1015 ;; This function uses a non-reentrant model
  1016 ;;
  1017                           
  1018                           	psect	text5
  1019   001A64                     __ptext5:
  1020                           	callstack 0
  1021   001A64                     _ecu_layer_initialize:
  1022                           	callstack 24
  1023   001A64  0012               	return		;funcret
  1024   001A66                     __end_of_ecu_layer_initialize:
  1025                           	callstack 0
  1026                           
  1027 ;; *************** function _button_intialize *****************
  1028 ;; Defined at:
  1029 ;;		line 19 in file "ECU_LAYER/button/ecu_button.c"
  1030 ;; Parameters:    Size  Location     Type
  1031 ;;  button          1   27[COMRAM] PTR const struct .
  1032 ;;		 -> b(3), 
  1033 ;; Auto vars:     Size  Location     Type
  1034 ;;  ret             1   28[COMRAM] unsigned char 
  1035 ;; Return value:  Size  Location     Type
  1036 ;;                  1    wreg      unsigned char 
  1037 ;; Registers used:
  1038 ;;		wreg, fsr2l, fsr2h, status,2, status,0, prodl, prodh, cstack
  1039 ;; Tracked objects:
  1040 ;;		On entry : 0/0
  1041 ;;		On exit  : 0/0
  1042 ;;		Unchanged: 0/0
  1043 ;; Data sizes:     COMRAM   BANK0   BANK1   BANK2   BANK3   BANK4   BANK5   BANK6   BANK7   BANK8   BANK9  BANK10  BANK1
      +1  BANK12  BANK13  BANK14  BANK15
  1044 ;;      Params:         1       0       0       0       0       0       0       0       0       0       0       0       
      +0       0       0       0       0
  1045 ;;      Locals:         1       0       0       0       0       0       0       0       0       0       0       0       
      +0       0       0       0       0
  1046 ;;      Temps:          0       0       0       0       0       0       0       0       0       0       0       0       
      +0       0       0       0       0
  1047 ;;      Totals:         2       0       0       0       0       0       0       0       0       0       0       0       
      +0       0       0       0       0
  1048 ;;Total ram usage:        2 bytes
  1049 ;; Hardware stack levels used: 1
  1050 ;; Hardware stack levels required when called: 7
  1051 ;; This function calls:
  1052 ;;		_gpio_pin_initialize
  1053 ;; This function is called by:
  1054 ;;		_Application_initialize
  1055 ;; This function uses a non-reentrant model
  1056 ;;
  1057                           
  1058                           	psect	text6
  1059   0019E8                     __ptext6:
  1060                           	callstack 0
  1061   0019E8                     _button_intialize:
  1062                           	callstack 22
  1063   0019E8                     
  1064                           ;ECU_LAYER/button/ecu_button.c: 23:     if (((void*)0) == button) {
  1065   0019E8  504A               	movf	button_intialize@button^0,w,c
  1066   0019EA  A4D8               	btfss	status,2,c
  1067   0019EC  EFFA  F00C         	goto	u1711
  1068   0019F0  EFFC  F00C         	goto	u1710
  1069   0019F4                     u1711:
  1070   0019F4  EF00  F00D         	goto	l2822
  1071   0019F8                     u1710:
  1072   0019F8                     
  1073                           ;ECU_LAYER/button/ecu_button.c: 24:         ret = (Std_ReturnType)0X00;
  1074   0019F8  0E00               	movlw	0
  1075   0019FA  6E4B               	movwf	button_intialize@ret^0,c
  1076                           
  1077                           ;ECU_LAYER/button/ecu_button.c: 25:     } else {
  1078   0019FC  EF05  F00D         	goto	l2824
  1079   001A00                     l2822:
  1080                           
  1081                           ;ECU_LAYER/button/ecu_button.c: 27:         ret = gpio_pin_initialize(&(button->pin_conf
      +                          ig));
  1082   001A00  C04A  F047         	movff	button_intialize@button,gpio_pin_initialize@_pin_config
  1083   001A04  EC0B  F00C         	call	_gpio_pin_initialize	;wreg free
  1084   001A08  6E4B               	movwf	button_intialize@ret^0,c
  1085   001A0A                     l2824:
  1086                           
  1087                           ;ECU_LAYER/button/ecu_button.c: 30:     return ret;
  1088   001A0A  504B               	movf	button_intialize@ret^0,w,c
  1089   001A0C  0012               	return		;funcret
  1090   001A0E                     __end_of_button_intialize:
  1091                           	callstack 0
  1092                           
  1093 ;; *************** function _gpio_pin_initialize *****************
  1094 ;; Defined at:
  1095 ;;		line 101 in file "MCAL_Layer/GPIO/hal_gpio.c"
  1096 ;; Parameters:    Size  Location     Type
  1097 ;;  _pin_config     1   24[COMRAM] PTR const struct .
  1098 ;;		 -> b(3), Relay_initialize@pin_obj(1), led_intialize@pin_obj(1), 
  1099 ;; Auto vars:     Size  Location     Type
  1100 ;;  ret             1   26[COMRAM] unsigned char 
  1101 ;; Return value:  Size  Location     Type
  1102 ;;                  1    wreg      unsigned char 
  1103 ;; Registers used:
  1104 ;;		wreg, fsr2l, fsr2h, status,2, status,0, prodl, prodh, cstack
  1105 ;; Tracked objects:
  1106 ;;		On entry : 0/0
  1107 ;;		On exit  : 0/0
  1108 ;;		Unchanged: 0/0
  1109 ;; Data sizes:     COMRAM   BANK0   BANK1   BANK2   BANK3   BANK4   BANK5   BANK6   BANK7   BANK8   BANK9  BANK10  BANK1
      +1  BANK12  BANK13  BANK14  BANK15
  1110 ;;      Params:         1       0       0       0       0       0       0       0       0       0       0       0       
      +0       0       0       0       0
  1111 ;;      Locals:         1       0       0       0       0       0       0       0       0       0       0       0       
      +0       0       0       0       0
  1112 ;;      Temps:          1       0       0       0       0       0       0       0       0       0       0       0       
      +0       0       0       0       0
  1113 ;;      Totals:         3       0       0       0       0       0       0       0       0       0       0       0       
      +0       0       0       0       0
  1114 ;;Total ram usage:        3 bytes
  1115 ;; Hardware stack levels used: 1
  1116 ;; Hardware stack levels required when called: 6
  1117 ;; This function calls:
  1118 ;;		_gpio_pin_direction_intialize
  1119 ;;		_gpio_pin_write_logic
  1120 ;; This function is called by:
  1121 ;;		_button_intialize
  1122 ;;		_led_intialize
  1123 ;;		_lcd_4bit_initailize
  1124 ;;		_lcd_8bit_initailize
  1125 ;;		_Dc_motor_initialize
  1126 ;;		_keypad_initialize
  1127 ;;		_Relay_initialize
  1128 ;;		_Seven_Segm_initailize
  1129 ;;		_Interrupt_INTx_Pin_Init
  1130 ;; This function uses a non-reentrant model
  1131 ;;
  1132                           
  1133                           	psect	text7
  1134   001816                     __ptext7:
  1135                           	callstack 0
  1136   001816                     _gpio_pin_initialize:
  1137                           	callstack 22
  1138   001816                     
  1139                           ;MCAL_Layer/GPIO/hal_gpio.c: 102:     Std_ReturnType ret = (Std_ReturnType)0X01;
  1140   001816  0E01               	movlw	1
  1141   001818  6E49               	movwf	gpio_pin_initialize@ret^0,c
  1142                           
  1143                           ;MCAL_Layer/GPIO/hal_gpio.c: 103:     if (((void*)0) == _pin_config || _pin_config->pin 
      +                          > 8 - 1) {
  1144   00181A  5047               	movf	gpio_pin_initialize@_pin_config^0,w,c
  1145   00181C  B4D8               	btfsc	status,2,c
  1146   00181E  EF13  F00C         	goto	u1671
  1147   001822  EF15  F00C         	goto	u1670
  1148   001826                     u1671:
  1149   001826  EF25  F00C         	goto	l2794
  1150   00182A                     u1670:
  1151   00182A  5047               	movf	gpio_pin_initialize@_pin_config^0,w,c
  1152   00182C  6ED9               	movwf	fsr2l,c
  1153   00182E  6ADA               	clrf	fsr2h,c
  1154   001830  30DF               	rrcf	223,w,c
  1155   001832  32E8               	rrcf	wreg,f,c
  1156   001834  32E8               	rrcf	wreg,f,c
  1157   001836  0B07               	andlw	7
  1158   001838  6E48               	movwf	??_gpio_pin_initialize^0,c
  1159   00183A  0E07               	movlw	7
  1160   00183C  6448               	cpfsgt	??_gpio_pin_initialize^0,c
  1161   00183E  EF23  F00C         	goto	u1681
  1162   001842  EF25  F00C         	goto	u1680
  1163   001846                     u1681:
  1164   001846  EF29  F00C         	goto	l2796
  1165   00184A                     u1680:
  1166   00184A                     l2794:
  1167                           
  1168                           ;MCAL_Layer/GPIO/hal_gpio.c: 104:         ret = (Std_ReturnType)0X00;
  1169   00184A  0E00               	movlw	0
  1170   00184C  6E49               	movwf	gpio_pin_initialize@ret^0,c
  1171                           
  1172                           ;MCAL_Layer/GPIO/hal_gpio.c: 105:     } else {
  1173   00184E  EF38  F00C         	goto	l2798
  1174   001852                     l2796:
  1175                           
  1176                           ;MCAL_Layer/GPIO/hal_gpio.c: 106:         gpio_pin_direction_intialize(_pin_config);
  1177   001852  C047  F03F         	movff	gpio_pin_initialize@_pin_config,gpio_pin_direction_intialize@_pin_config
  1178   001856  EC04  F009         	call	_gpio_pin_direction_intialize	;wreg free
  1179                           
  1180                           ;MCAL_Layer/GPIO/hal_gpio.c: 107:         gpio_pin_write_logic(_pin_config, _pin_config-
      +                          >logic);
  1181   00185A  C047  F03F         	movff	gpio_pin_initialize@_pin_config,gpio_pin_write_logic@_pin_config
  1182   00185E  5047               	movf	gpio_pin_initialize@_pin_config^0,w,c
  1183   001860  6ED9               	movwf	fsr2l,c
  1184   001862  6ADA               	clrf	fsr2h,c
  1185   001864  0E00               	movlw	0
  1186   001866  BEDF               	btfsc	indf2,7,c
  1187   001868  0E01               	movlw	1
  1188   00186A  6E40               	movwf	gpio_pin_write_logic@logic_^0,c
  1189   00186C  EC23  F00A         	call	_gpio_pin_write_logic	;wreg free
  1190   001870                     l2798:
  1191                           
  1192                           ;MCAL_Layer/GPIO/hal_gpio.c: 110:     return ret;
  1193   001870  5049               	movf	gpio_pin_initialize@ret^0,w,c
  1194   001872  0012               	return		;funcret
  1195   001874                     __end_of_gpio_pin_initialize:
  1196                           	callstack 0
  1197                           
  1198 ;; *************** function _gpio_pin_write_logic *****************
  1199 ;; Defined at:
  1200 ;;		line 55 in file "MCAL_Layer/GPIO/hal_gpio.c"
  1201 ;; Parameters:    Size  Location     Type
  1202 ;;  _pin_config     1   16[COMRAM] PTR const struct .
  1203 ;;		 -> b(3), Relay_off@pin_obj(1), Relay_on@pin_obj(1), Relay_initialize@pin_obj(1), 
  1204 ;;		 -> led_turn_off@pin_obj(1), led_turn_on@pin_obj(1), led_intialize@pin_obj(1), 
  1205 ;;  logic_          1   17[COMRAM] enum E3402
  1206 ;; Auto vars:     Size  Location     Type
  1207 ;;  ret             1   23[COMRAM] unsigned char 
  1208 ;; Return value:  Size  Location     Type
  1209 ;;                  1    wreg      unsigned char 
  1210 ;; Registers used:
  1211 ;;		wreg, fsr2l, fsr2h, status,2, status,0, prodl, prodh
  1212 ;; Tracked objects:
  1213 ;;		On entry : 0/0
  1214 ;;		On exit  : 0/0
  1215 ;;		Unchanged: 0/0
  1216 ;; Data sizes:     COMRAM   BANK0   BANK1   BANK2   BANK3   BANK4   BANK5   BANK6   BANK7   BANK8   BANK9  BANK10  BANK1
      +1  BANK12  BANK13  BANK14  BANK15
  1217 ;;      Params:         2       0       0       0       0       0       0       0       0       0       0       0       
      +0       0       0       0       0
  1218 ;;      Locals:         1       0       0       0       0       0       0       0       0       0       0       0       
      +0       0       0       0       0
  1219 ;;      Temps:          5       0       0       0       0       0       0       0       0       0       0       0       
      +0       0       0       0       0
  1220 ;;      Totals:         8       0       0       0       0       0       0       0       0       0       0       0       
      +0       0       0       0       0
  1221 ;;Total ram usage:        8 bytes
  1222 ;; Hardware stack levels used: 1
  1223 ;; Hardware stack levels required when called: 5
  1224 ;; This function calls:
  1225 ;;		Nothing
  1226 ;; This function is called by:
  1227 ;;		_gpio_pin_initialize
  1228 ;;		_lcd_4bit_send_command
  1229 ;;		_lcd_4bit_send_char_data
  1230 ;;		_lcd_8bit_send_command
  1231 ;;		_lcd_8bit_send_char_data
  1232 ;;		_lcd_8bits_send_enable
  1233 ;;		_lcd_4bits_send_enable
  1234 ;;		_lcd_4bits_command
  1235 ;;		_Dc_motor_rotate_right
  1236 ;;		_Dc_motor_rotate_left
  1237 ;;		_Dc_motor_stop
  1238 ;;		_keypad_get_value
  1239 ;;		_led_turn_on
  1240 ;;		_led_turn_off
  1241 ;;		_Relay_on
  1242 ;;		_Relay_off
  1243 ;;		_Seven_Segm_Display_Number
  1244 ;; This function uses a non-reentrant model
  1245 ;;
  1246                           
  1247                           	psect	text8
  1248   001446                     __ptext8:
  1249                           	callstack 0
  1250   001446                     _gpio_pin_write_logic:
  1251                           	callstack 22
  1252   001446                     
  1253                           ;MCAL_Layer/GPIO/hal_gpio.c: 56:     Std_ReturnType ret = (Std_ReturnType)0X01;
  1254   001446  0E01               	movlw	1
  1255   001448  6E46               	movwf	gpio_pin_write_logic@ret^0,c
  1256                           
  1257                           ;MCAL_Layer/GPIO/hal_gpio.c: 57:     if (((void*)0) == _pin_config || _pin_config->pin >
      +                           8 - 1) {
  1258   00144A  503F               	movf	gpio_pin_write_logic@_pin_config^0,w,c
  1259   00144C  B4D8               	btfsc	status,2,c
  1260   00144E  EF2B  F00A         	goto	u1541
  1261   001452  EF2D  F00A         	goto	u1540
  1262   001456                     u1541:
  1263   001456  EF3D  F00A         	goto	l2738
  1264   00145A                     u1540:
  1265   00145A  503F               	movf	gpio_pin_write_logic@_pin_config^0,w,c
  1266   00145C  6ED9               	movwf	fsr2l,c
  1267   00145E  6ADA               	clrf	fsr2h,c
  1268   001460  30DF               	rrcf	223,w,c
  1269   001462  32E8               	rrcf	wreg,f,c
  1270   001464  32E8               	rrcf	wreg,f,c
  1271   001466  0B07               	andlw	7
  1272   001468  6E41               	movwf	??_gpio_pin_write_logic^0,c
  1273   00146A  0E07               	movlw	7
  1274   00146C  6441               	cpfsgt	??_gpio_pin_write_logic^0,c
  1275   00146E  EF3B  F00A         	goto	u1551
  1276   001472  EF3D  F00A         	goto	u1550
  1277   001476                     u1551:
  1278   001476  EF94  F00A         	goto	l2748
  1279   00147A                     u1550:
  1280   00147A                     l2738:
  1281                           
  1282                           ;MCAL_Layer/GPIO/hal_gpio.c: 58:         ret = (Std_ReturnType)0X00;
  1283   00147A  0E00               	movlw	0
  1284   00147C  6E46               	movwf	gpio_pin_write_logic@ret^0,c
  1285                           
  1286                           ;MCAL_Layer/GPIO/hal_gpio.c: 59:     } else {
  1287   00147E  EFA9  F00A         	goto	l2750
  1288   001482                     l2740:
  1289                           
  1290                           ;MCAL_Layer/GPIO/hal_gpio.c: 63:                 (*lat_registers[_pin_config->port] |= (
      +                          (uint8)1 << _pin_config->pin));
  1291   001482  503F               	movf	gpio_pin_write_logic@_pin_config^0,w,c
  1292   001484  6ED9               	movwf	fsr2l,c
  1293   001486  6ADA               	clrf	fsr2h,c
  1294   001488  30DF               	rrcf	223,w,c
  1295   00148A  32E8               	rrcf	wreg,f,c
  1296   00148C  32E8               	rrcf	wreg,f,c
  1297   00148E  0B07               	andlw	7
  1298   001490  6E41               	movwf	??_gpio_pin_write_logic^0,c
  1299   001492  0E01               	movlw	1
  1300   001494  6E42               	movwf	(??_gpio_pin_write_logic+1)^0,c
  1301   001496  2A41               	incf	??_gpio_pin_write_logic^0,f,c
  1302   001498  EF50  F00A         	goto	u1564
  1303   00149C                     u1565:
  1304   00149C  90D8               	bcf	status,0,c
  1305   00149E  3642               	rlcf	(??_gpio_pin_write_logic+1)^0,f,c
  1306   0014A0                     u1564:
  1307   0014A0  2E41               	decfsz	??_gpio_pin_write_logic^0,f,c
  1308   0014A2  EF4E  F00A         	goto	u1565
  1309   0014A6  503F               	movf	gpio_pin_write_logic@_pin_config^0,w,c
  1310   0014A8  6ED9               	movwf	fsr2l,c
  1311   0014AA  6ADA               	clrf	fsr2h,c
  1312   0014AC  50DF               	movf	223,w,c
  1313   0014AE  0B07               	andlw	7
  1314   0014B0  0D02               	mullw	2
  1315   0014B2  50F3               	movf	243,w,c
  1316   0014B4  0F0B               	addlw	low _lat_registers
  1317   0014B6  6ED9               	movwf	fsr2l,c
  1318   0014B8  6ADA               	clrf	fsr2h,c
  1319   0014BA  CFDE F043          	movff	postinc2,??_gpio_pin_write_logic+2
  1320   0014BE  CFDD F044          	movff	postdec2,??_gpio_pin_write_logic+3
  1321   0014C2  C043  FFD9         	movff	??_gpio_pin_write_logic+2,fsr2l
  1322   0014C6  C044  FFDA         	movff	??_gpio_pin_write_logic+3,fsr2h
  1323   0014CA  5042               	movf	(??_gpio_pin_write_logic+1)^0,w,c
  1324   0014CC  12DF               	iorwf	indf2,f,c
  1325                           
  1326                           ;MCAL_Layer/GPIO/hal_gpio.c: 64:                 break;
  1327   0014CE  EFA9  F00A         	goto	l2750
  1328   0014D2                     l2742:
  1329                           
  1330                           ;MCAL_Layer/GPIO/hal_gpio.c: 67:                 (*lat_registers[_pin_config->port] &= ~
      +                          ((uint8)1 << _pin_config->pin));
  1331   0014D2  503F               	movf	gpio_pin_write_logic@_pin_config^0,w,c
  1332   0014D4  6ED9               	movwf	fsr2l,c
  1333   0014D6  6ADA               	clrf	fsr2h,c
  1334   0014D8  30DF               	rrcf	223,w,c
  1335   0014DA  32E8               	rrcf	wreg,f,c
  1336   0014DC  32E8               	rrcf	wreg,f,c
  1337   0014DE  0B07               	andlw	7
  1338   0014E0  6E41               	movwf	??_gpio_pin_write_logic^0,c
  1339   0014E2  0E01               	movlw	1
  1340   0014E4  6E42               	movwf	(??_gpio_pin_write_logic+1)^0,c
  1341   0014E6  2A41               	incf	??_gpio_pin_write_logic^0,f,c
  1342   0014E8  EF78  F00A         	goto	u1574
  1343   0014EC                     u1575:
  1344   0014EC  90D8               	bcf	status,0,c
  1345   0014EE  3642               	rlcf	(??_gpio_pin_write_logic+1)^0,f,c
  1346   0014F0                     u1574:
  1347   0014F0  2E41               	decfsz	??_gpio_pin_write_logic^0,f,c
  1348   0014F2  EF76  F00A         	goto	u1575
  1349   0014F6  5042               	movf	(??_gpio_pin_write_logic+1)^0,w,c
  1350   0014F8  0AFF               	xorlw	255
  1351   0014FA  6E43               	movwf	(??_gpio_pin_write_logic+2)^0,c
  1352   0014FC  503F               	movf	gpio_pin_write_logic@_pin_config^0,w,c
  1353   0014FE  6ED9               	movwf	fsr2l,c
  1354   001500  6ADA               	clrf	fsr2h,c
  1355   001502  50DF               	movf	223,w,c
  1356   001504  0B07               	andlw	7
  1357   001506  0D02               	mullw	2
  1358   001508  50F3               	movf	243,w,c
  1359   00150A  0F0B               	addlw	low _lat_registers
  1360   00150C  6ED9               	movwf	fsr2l,c
  1361   00150E  6ADA               	clrf	fsr2h,c
  1362   001510  CFDE F044          	movff	postinc2,??_gpio_pin_write_logic+3
  1363   001514  CFDD F045          	movff	postdec2,??_gpio_pin_write_logic+4
  1364   001518  C044  FFD9         	movff	??_gpio_pin_write_logic+3,fsr2l
  1365   00151C  C045  FFDA         	movff	??_gpio_pin_write_logic+4,fsr2h
  1366   001520  5043               	movf	(??_gpio_pin_write_logic+2)^0,w,c
  1367   001522  16DF               	andwf	indf2,f,c
  1368                           
  1369                           ;MCAL_Layer/GPIO/hal_gpio.c: 68:                 break;
  1370   001524  EFA9  F00A         	goto	l2750
  1371   001528                     l2748:
  1372   001528  5040               	movf	gpio_pin_write_logic@logic_^0,w,c
  1373   00152A  6E41               	movwf	??_gpio_pin_write_logic^0,c
  1374   00152C  6A42               	clrf	(??_gpio_pin_write_logic+1)^0,c
  1375                           
  1376                           ; Switch on 2 bytes has been partitioned into a top level switch of size 1, and 1 sub-sw
      +                          itches
  1377                           ; Switch size 1, requested type "simple"
  1378                           ; Number of cases is 1, Range of values is 0 to 0
  1379                           ; switch strategies available:
  1380                           ; Name         Instructions Cycles
  1381                           ; simple_byte            4     3 (average)
  1382                           ;	Chosen strategy is simple_byte
  1383   00152E  5042               	movf	(??_gpio_pin_write_logic+1)^0,w,c
  1384   001530  0A00               	xorlw	0	; case 0
  1385   001532  B4D8               	btfsc	status,2,c
  1386   001534  EF9E  F00A         	goto	l3712
  1387   001538  EF3D  F00A         	goto	l2738
  1388   00153C                     l3712:
  1389                           
  1390                           ; Switch size 1, requested type "simple"
  1391                           ; Number of cases is 2, Range of values is 0 to 1
  1392                           ; switch strategies available:
  1393                           ; Name         Instructions Cycles
  1394                           ; simple_byte            7     4 (average)
  1395                           ;	Chosen strategy is simple_byte
  1396   00153C  5041               	movf	??_gpio_pin_write_logic^0,w,c
  1397   00153E  0A00               	xorlw	0	; case 0
  1398   001540  B4D8               	btfsc	status,2,c
  1399   001542  EF69  F00A         	goto	l2742
  1400   001546  0A01               	xorlw	1	; case 1
  1401   001548  B4D8               	btfsc	status,2,c
  1402   00154A  EF41  F00A         	goto	l2740
  1403   00154E  EF3D  F00A         	goto	l2738
  1404   001552                     l2750:
  1405                           
  1406                           ;MCAL_Layer/GPIO/hal_gpio.c: 77:     return ret;
  1407   001552  5046               	movf	gpio_pin_write_logic@ret^0,w,c
  1408   001554  0012               	return		;funcret
  1409   001556                     __end_of_gpio_pin_write_logic:
  1410                           	callstack 0
  1411                           
  1412 ;; *************** function _Interrupt_RBx_Init *****************
  1413 ;; Defined at:
  1414 ;;		line 91 in file "MCAL_LAYER/Interrupt/mcal_external_interrupt.c"
  1415 ;; Parameters:    Size  Location     Type
  1416 ;;  obj             1   23[COMRAM] PTR const struct .
  1417 ;;		 -> r(6), 
  1418 ;; Auto vars:     Size  Location     Type
  1419 ;;  ret             1   26[COMRAM] unsigned char 
  1420 ;; Return value:  Size  Location     Type
  1421 ;;                  1    wreg      unsigned char 
  1422 ;; Registers used:
  1423 ;;		wreg, fsr2l, fsr2h, status,2, status,0, prodl, prodh, cstack
  1424 ;; Tracked objects:
  1425 ;;		On entry : 0/0
  1426 ;;		On exit  : 0/0
  1427 ;;		Unchanged: 0/0
  1428 ;; Data sizes:     COMRAM   BANK0   BANK1   BANK2   BANK3   BANK4   BANK5   BANK6   BANK7   BANK8   BANK9  BANK10  BANK1
      +1  BANK12  BANK13  BANK14  BANK15
  1429 ;;      Params:         1       0       0       0       0       0       0       0       0       0       0       0       
      +0       0       0       0       0
  1430 ;;      Locals:         1       0       0       0       0       0       0       0       0       0       0       0       
      +0       0       0       0       0
  1431 ;;      Temps:          2       0       0       0       0       0       0       0       0       0       0       0       
      +0       0       0       0       0
  1432 ;;      Totals:         4       0       0       0       0       0       0       0       0       0       0       0       
      +0       0       0       0       0
  1433 ;;Total ram usage:        4 bytes
  1434 ;; Hardware stack levels used: 1
  1435 ;; Hardware stack levels required when called: 6
  1436 ;; This function calls:
  1437 ;;		_gpio_pin_direction_intialize
  1438 ;; This function is called by:
  1439 ;;		_Application_initialize
  1440 ;; This function uses a non-reentrant model
  1441 ;;
  1442                           
  1443                           	psect	text9
  1444   00132E                     __ptext9:
  1445                           	callstack 0
  1446   00132E                     _Interrupt_RBx_Init:
  1447                           	callstack 23
  1448   00132E                     
  1449                           ;MCAL_LAYER/Interrupt/mcal_external_interrupt.c: 93:     if (((void*)0) == obj) {
  1450   00132E  5046               	movf	Interrupt_RBx_Init@obj^0,w,c
  1451   001330  A4D8               	btfss	status,2,c
  1452   001332  EF9D  F009         	goto	u1841
  1453   001336  EF9F  F009         	goto	u1840
  1454   00133A                     u1841:
  1455   00133A  EFA3  F009         	goto	l492
  1456   00133E                     u1840:
  1457   00133E                     
  1458                           ;MCAL_LAYER/Interrupt/mcal_external_interrupt.c: 94:         ret = (Std_ReturnType)0X00;
  1459   00133E  0E00               	movlw	0
  1460   001340  6E49               	movwf	Interrupt_RBx_Init@ret^0,c
  1461                           
  1462                           ;MCAL_LAYER/Interrupt/mcal_external_interrupt.c: 95:     } else {
  1463   001342  EF21  F00A         	goto	l2968
  1464   001346                     l492:
  1465                           
  1466                           ;MCAL_LAYER/Interrupt/mcal_external_interrupt.c: 97:         (INTCONbits.RBIE = 0);
  1467   001346  96F2               	bcf	242,3,c	;volatile
  1468                           
  1469                           ;MCAL_LAYER/Interrupt/mcal_external_interrupt.c: 98:         (INTCONbits.RBIF = 1);
  1470   001348  80F2               	bsf	242,0,c	;volatile
  1471                           
  1472                           ;MCAL_LAYER/Interrupt/mcal_external_interrupt.c: 113:         (INTCONbits.GIEH = 1);
  1473   00134A  8EF2               	bsf	242,7,c	;volatile
  1474                           
  1475                           ;MCAL_LAYER/Interrupt/mcal_external_interrupt.c: 114:         (INTCONbits.PEIE = 1);
  1476   00134C  8CF2               	bsf	242,6,c	;volatile
  1477   00134E                     
  1478                           ;MCAL_LAYER/Interrupt/mcal_external_interrupt.c: 118:         ret = gpio_pin_direction_i
      +                          ntialize(&(obj->mcu_pin));
  1479   00134E  5046               	movf	Interrupt_RBx_Init@obj^0,w,c
  1480   001350  0F05               	addlw	5
  1481   001352  6E3F               	movwf	gpio_pin_direction_intialize@_pin_config^0,c
  1482   001354  EC04  F009         	call	_gpio_pin_direction_intialize	;wreg free
  1483   001358  6E49               	movwf	Interrupt_RBx_Init@ret^0,c
  1484                           
  1485                           ;MCAL_LAYER/Interrupt/mcal_external_interrupt.c: 121:         switch (obj->mcu_pin.pin) 
      +                          {
  1486   00135A  EFFB  F009         	goto	l2966
  1487   00135E                     l2946:
  1488                           
  1489                           ;MCAL_LAYER/Interrupt/mcal_external_interrupt.c: 123:                 RB4_Interrupt_Hand
      +                          ler_High = obj->External_CallBack_High;
  1490   00135E  5046               	movf	Interrupt_RBx_Init@obj^0,w,c
  1491   001360  6ED9               	movwf	fsr2l,c
  1492   001362  6ADA               	clrf	fsr2h,c
  1493   001364  CFDE F05C          	movff	postinc2,_RB4_Interrupt_Handler_High
  1494   001368  CFDD F05D          	movff	postdec2,_RB4_Interrupt_Handler_High+1
  1495   00136C                     
  1496                           ;MCAL_LAYER/Interrupt/mcal_external_interrupt.c: 124:                 RB4_Interrupt_Hand
      +                          ler_Low = obj->External_CallBack_Low;
  1497   00136C  5046               	movf	Interrupt_RBx_Init@obj^0,w,c
  1498   00136E  6ED9               	movwf	fsr2l,c
  1499   001370  6ADA               	clrf	fsr2h,c
  1500   001372  0E02               	movlw	2
  1501   001374  26D9               	addwf	fsr2l,f,c
  1502   001376  CFDE F05A          	movff	postinc2,_RB4_Interrupt_Handler_Low
  1503   00137A  CFDD F05B          	movff	postdec2,_RB4_Interrupt_Handler_Low+1
  1504                           
  1505                           ;MCAL_LAYER/Interrupt/mcal_external_interrupt.c: 125:                 break;
  1506   00137E  EF20  F00A         	goto	l496
  1507   001382                     l2950:
  1508                           
  1509                           ;MCAL_LAYER/Interrupt/mcal_external_interrupt.c: 127:                 RB5_Interrupt_Hand
      +                          ler_High = obj->External_CallBack_High;
  1510   001382  5046               	movf	Interrupt_RBx_Init@obj^0,w,c
  1511   001384  6ED9               	movwf	fsr2l,c
  1512   001386  6ADA               	clrf	fsr2h,c
  1513   001388  CFDE F058          	movff	postinc2,_RB5_Interrupt_Handler_High
  1514   00138C  CFDD F059          	movff	postdec2,_RB5_Interrupt_Handler_High+1
  1515   001390                     
  1516                           ;MCAL_LAYER/Interrupt/mcal_external_interrupt.c: 128:                 RB5_Interrupt_Hand
      +                          ler_Low = obj->External_CallBack_Low;
  1517   001390  5046               	movf	Interrupt_RBx_Init@obj^0,w,c
  1518   001392  6ED9               	movwf	fsr2l,c
  1519   001394  6ADA               	clrf	fsr2h,c
  1520   001396  0E02               	movlw	2
  1521   001398  26D9               	addwf	fsr2l,f,c
  1522   00139A  CFDE F056          	movff	postinc2,_RB5_Interrupt_Handler_Low
  1523   00139E  CFDD F057          	movff	postdec2,_RB5_Interrupt_Handler_Low+1
  1524                           
  1525                           ;MCAL_LAYER/Interrupt/mcal_external_interrupt.c: 129:                 break;
  1526   0013A2  EF20  F00A         	goto	l496
  1527   0013A6                     l2954:
  1528                           
  1529                           ;MCAL_LAYER/Interrupt/mcal_external_interrupt.c: 131:                 RB6_Interrupt_Hand
      +                          ler_High = obj->External_CallBack_High;
  1530   0013A6  5046               	movf	Interrupt_RBx_Init@obj^0,w,c
  1531   0013A8  6ED9               	movwf	fsr2l,c
  1532   0013AA  6ADA               	clrf	fsr2h,c
  1533   0013AC  CFDE F054          	movff	postinc2,_RB6_Interrupt_Handler_High
  1534   0013B0  CFDD F055          	movff	postdec2,_RB6_Interrupt_Handler_High+1
  1535   0013B4                     
  1536                           ;MCAL_LAYER/Interrupt/mcal_external_interrupt.c: 132:                 RB6_Interrupt_Hand
      +                          ler_Low = obj->External_CallBack_Low;
  1537   0013B4  5046               	movf	Interrupt_RBx_Init@obj^0,w,c
  1538   0013B6  6ED9               	movwf	fsr2l,c
  1539   0013B8  6ADA               	clrf	fsr2h,c
  1540   0013BA  0E02               	movlw	2
  1541   0013BC  26D9               	addwf	fsr2l,f,c
  1542   0013BE  CFDE F052          	movff	postinc2,_RB6_Interrupt_Handler_Low
  1543   0013C2  CFDD F053          	movff	postdec2,_RB6_Interrupt_Handler_Low+1
  1544                           
  1545                           ;MCAL_LAYER/Interrupt/mcal_external_interrupt.c: 133:                 break;
  1546   0013C6  EF20  F00A         	goto	l496
  1547   0013CA                     l2958:
  1548                           
  1549                           ;MCAL_LAYER/Interrupt/mcal_external_interrupt.c: 135:                 RB7_Interrupt_Hand
      +                          ler_High = obj->External_CallBack_High;
  1550   0013CA  5046               	movf	Interrupt_RBx_Init@obj^0,w,c
  1551   0013CC  6ED9               	movwf	fsr2l,c
  1552   0013CE  6ADA               	clrf	fsr2h,c
  1553   0013D0  CFDE F050          	movff	postinc2,_RB7_Interrupt_Handler_High
  1554   0013D4  CFDD F051          	movff	postdec2,_RB7_Interrupt_Handler_High+1
  1555   0013D8                     
  1556                           ;MCAL_LAYER/Interrupt/mcal_external_interrupt.c: 136:                 RB7_Interrupt_Hand
      +                          ler_Low = obj->External_CallBack_Low;
  1557   0013D8  5046               	movf	Interrupt_RBx_Init@obj^0,w,c
  1558   0013DA  6ED9               	movwf	fsr2l,c
  1559   0013DC  6ADA               	clrf	fsr2h,c
  1560   0013DE  0E02               	movlw	2
  1561   0013E0  26D9               	addwf	fsr2l,f,c
  1562   0013E2  CFDE F04E          	movff	postinc2,_RB7_Interrupt_Handler_Low
  1563   0013E6  CFDD F04F          	movff	postdec2,_RB7_Interrupt_Handler_Low+1
  1564                           
  1565                           ;MCAL_LAYER/Interrupt/mcal_external_interrupt.c: 137:                 break;
  1566   0013EA  EF20  F00A         	goto	l496
  1567   0013EE                     l2962:
  1568                           
  1569                           ;MCAL_LAYER/Interrupt/mcal_external_interrupt.c: 139:                 ret = (Std_ReturnT
      +                          ype)0X00;
  1570   0013EE  0E00               	movlw	0
  1571   0013F0  6E49               	movwf	Interrupt_RBx_Init@ret^0,c
  1572                           
  1573                           ;MCAL_LAYER/Interrupt/mcal_external_interrupt.c: 140:                 break;
  1574   0013F2  EF20  F00A         	goto	l496
  1575   0013F6                     l2966:
  1576   0013F6  5046               	movf	Interrupt_RBx_Init@obj^0,w,c
  1577   0013F8  6ED9               	movwf	fsr2l,c
  1578   0013FA  6ADA               	clrf	fsr2h,c
  1579   0013FC  0E05               	movlw	5
  1580   0013FE  26D9               	addwf	fsr2l,f,c
  1581   001400  30DF               	rrcf	223,w,c
  1582   001402  32E8               	rrcf	wreg,f,c
  1583   001404  32E8               	rrcf	wreg,f,c
  1584   001406  0B07               	andlw	7
  1585   001408  6E47               	movwf	??_Interrupt_RBx_Init^0,c
  1586   00140A  6A48               	clrf	(??_Interrupt_RBx_Init+1)^0,c
  1587                           
  1588                           ; Switch on 2 bytes has been partitioned into a top level switch of size 1, and 1 sub-sw
      +                          itches
  1589                           ; Switch size 1, requested type "simple"
  1590                           ; Number of cases is 1, Range of values is 0 to 0
  1591                           ; switch strategies available:
  1592                           ; Name         Instructions Cycles
  1593                           ; simple_byte            4     3 (average)
  1594                           ;	Chosen strategy is simple_byte
  1595   00140C  5048               	movf	(??_Interrupt_RBx_Init+1)^0,w,c
  1596   00140E  0A00               	xorlw	0	; case 0
  1597   001410  B4D8               	btfsc	status,2,c
  1598   001412  EF0D  F00A         	goto	l3714
  1599   001416  EFF7  F009         	goto	l2962
  1600   00141A                     l3714:
  1601                           
  1602                           ; Switch size 1, requested type "simple"
  1603                           ; Number of cases is 4, Range of values is 4 to 7
  1604                           ; switch strategies available:
  1605                           ; Name         Instructions Cycles
  1606                           ; simple_byte           13     7 (average)
  1607                           ;	Chosen strategy is simple_byte
  1608   00141A  5047               	movf	??_Interrupt_RBx_Init^0,w,c
  1609   00141C  0A04               	xorlw	4	; case 4
  1610   00141E  B4D8               	btfsc	status,2,c
  1611   001420  EFAF  F009         	goto	l2946
  1612   001424  0A01               	xorlw	1	; case 5
  1613   001426  B4D8               	btfsc	status,2,c
  1614   001428  EFC1  F009         	goto	l2950
  1615   00142C  0A03               	xorlw	3	; case 6
  1616   00142E  B4D8               	btfsc	status,2,c
  1617   001430  EFD3  F009         	goto	l2954
  1618   001434  0A01               	xorlw	1	; case 7
  1619   001436  B4D8               	btfsc	status,2,c
  1620   001438  EFE5  F009         	goto	l2958
  1621   00143C  EFF7  F009         	goto	l2962
  1622   001440                     l496:
  1623                           
  1624                           ;MCAL_LAYER/Interrupt/mcal_external_interrupt.c: 144:         (INTCONbits.RBIE = 1);
  1625   001440  86F2               	bsf	242,3,c	;volatile
  1626   001442                     l2968:
  1627                           
  1628                           ;MCAL_LAYER/Interrupt/mcal_external_interrupt.c: 146:     return ret;
  1629   001442  5049               	movf	Interrupt_RBx_Init@ret^0,w,c
  1630   001444  0012               	return		;funcret
  1631   001446                     __end_of_Interrupt_RBx_Init:
  1632                           	callstack 0
  1633                           
  1634 ;; *************** function _gpio_pin_direction_intialize *****************
  1635 ;; Defined at:
  1636 ;;		line 19 in file "MCAL_Layer/GPIO/hal_gpio.c"
  1637 ;; Parameters:    Size  Location     Type
  1638 ;;  _pin_config     1   16[COMRAM] PTR const struct .
  1639 ;;		 -> r(6), b(3), Relay_initialize@pin_obj(1), led_intialize@pin_obj(1), 
  1640 ;; Auto vars:     Size  Location     Type
  1641 ;;  ret             1   22[COMRAM] unsigned char 
  1642 ;; Return value:  Size  Location     Type
  1643 ;;                  1    wreg      unsigned char 
  1644 ;; Registers used:
  1645 ;;		wreg, fsr2l, fsr2h, status,2, status,0, prodl, prodh
  1646 ;; Tracked objects:
  1647 ;;		On entry : 0/0
  1648 ;;		On exit  : 0/0
  1649 ;;		Unchanged: 0/0
  1650 ;; Data sizes:     COMRAM   BANK0   BANK1   BANK2   BANK3   BANK4   BANK5   BANK6   BANK7   BANK8   BANK9  BANK10  BANK1
      +1  BANK12  BANK13  BANK14  BANK15
  1651 ;;      Params:         1       0       0       0       0       0       0       0       0       0       0       0       
      +0       0       0       0       0
  1652 ;;      Locals:         1       0       0       0       0       0       0       0       0       0       0       0       
      +0       0       0       0       0
  1653 ;;      Temps:          5       0       0       0       0       0       0       0       0       0       0       0       
      +0       0       0       0       0
  1654 ;;      Totals:         7       0       0       0       0       0       0       0       0       0       0       0       
      +0       0       0       0       0
  1655 ;;Total ram usage:        7 bytes
  1656 ;; Hardware stack levels used: 1
  1657 ;; Hardware stack levels required when called: 5
  1658 ;; This function calls:
  1659 ;;		Nothing
  1660 ;; This function is called by:
  1661 ;;		_gpio_pin_initialize
  1662 ;;		_Interrupt_RBx_Init
  1663 ;; This function uses a non-reentrant model
  1664 ;;
  1665                           
  1666                           	psect	text10
  1667   001208                     __ptext10:
  1668                           	callstack 0
  1669   001208                     _gpio_pin_direction_intialize:
  1670                           	callstack 22
  1671   001208                     
  1672                           ;MCAL_Layer/GPIO/hal_gpio.c: 20:     Std_ReturnType ret = (Std_ReturnType)0X01;
  1673   001208  0E01               	movlw	1
  1674   00120A  6E45               	movwf	gpio_pin_direction_intialize@ret^0,c
  1675                           
  1676                           ;MCAL_Layer/GPIO/hal_gpio.c: 22:     if (((void*)0) == _pin_config || (_pin_config->pin 
      +                          > 8 - 1)) {
  1677   00120C  503F               	movf	gpio_pin_direction_intialize@_pin_config^0,w,c
  1678   00120E  B4D8               	btfsc	status,2,c
  1679   001210  EF0C  F009         	goto	u1611
  1680   001214  EF0E  F009         	goto	u1610
  1681   001218                     u1611:
  1682   001218  EF1E  F009         	goto	l2772
  1683   00121C                     u1610:
  1684   00121C  503F               	movf	gpio_pin_direction_intialize@_pin_config^0,w,c
  1685   00121E  6ED9               	movwf	fsr2l,c
  1686   001220  6ADA               	clrf	fsr2h,c
  1687   001222  30DF               	rrcf	223,w,c
  1688   001224  32E8               	rrcf	wreg,f,c
  1689   001226  32E8               	rrcf	wreg,f,c
  1690   001228  0B07               	andlw	7
  1691   00122A  6E40               	movwf	??_gpio_pin_direction_intialize^0,c
  1692   00122C  0E07               	movlw	7
  1693   00122E  6440               	cpfsgt	??_gpio_pin_direction_intialize^0,c
  1694   001230  EF1C  F009         	goto	u1621
  1695   001234  EF1E  F009         	goto	u1620
  1696   001238                     u1621:
  1697   001238  EF75  F009         	goto	l2780
  1698   00123C                     u1620:
  1699   00123C                     l2772:
  1700                           
  1701                           ;MCAL_Layer/GPIO/hal_gpio.c: 23:         ret = (Std_ReturnType)0X00;
  1702   00123C  0E00               	movlw	0
  1703   00123E  6E45               	movwf	gpio_pin_direction_intialize@ret^0,c
  1704                           
  1705                           ;MCAL_Layer/GPIO/hal_gpio.c: 24:     } else {
  1706   001240  EF95  F009         	goto	l2782
  1707   001244                     l2774:
  1708                           
  1709                           ;MCAL_Layer/GPIO/hal_gpio.c: 28:                 (*tris_registers[_pin_config->port] &= 
      +                          ~((uint8)1 << _pin_config->pin));
  1710   001244  503F               	movf	gpio_pin_direction_intialize@_pin_config^0,w,c
  1711   001246  6ED9               	movwf	fsr2l,c
  1712   001248  6ADA               	clrf	fsr2h,c
  1713   00124A  30DF               	rrcf	223,w,c
  1714   00124C  32E8               	rrcf	wreg,f,c
  1715   00124E  32E8               	rrcf	wreg,f,c
  1716   001250  0B07               	andlw	7
  1717   001252  6E40               	movwf	??_gpio_pin_direction_intialize^0,c
  1718   001254  0E01               	movlw	1
  1719   001256  6E41               	movwf	(??_gpio_pin_direction_intialize+1)^0,c
  1720   001258  2A40               	incf	??_gpio_pin_direction_intialize^0,f,c
  1721   00125A  EF31  F009         	goto	u1634
  1722   00125E                     u1635:
  1723   00125E  90D8               	bcf	status,0,c
  1724   001260  3641               	rlcf	(??_gpio_pin_direction_intialize+1)^0,f,c
  1725   001262                     u1634:
  1726   001262  2E40               	decfsz	??_gpio_pin_direction_intialize^0,f,c
  1727   001264  EF2F  F009         	goto	u1635
  1728   001268  5041               	movf	(??_gpio_pin_direction_intialize+1)^0,w,c
  1729   00126A  0AFF               	xorlw	255
  1730   00126C  6E42               	movwf	(??_gpio_pin_direction_intialize+2)^0,c
  1731   00126E  503F               	movf	gpio_pin_direction_intialize@_pin_config^0,w,c
  1732   001270  6ED9               	movwf	fsr2l,c
  1733   001272  6ADA               	clrf	fsr2h,c
  1734   001274  50DF               	movf	223,w,c
  1735   001276  0B07               	andlw	7
  1736   001278  0D02               	mullw	2
  1737   00127A  50F3               	movf	243,w,c
  1738   00127C  0F15               	addlw	low _tris_registers
  1739   00127E  6ED9               	movwf	fsr2l,c
  1740   001280  6ADA               	clrf	fsr2h,c
  1741   001282  CFDE F043          	movff	postinc2,??_gpio_pin_direction_intialize+3
  1742   001286  CFDD F044          	movff	postdec2,??_gpio_pin_direction_intialize+4
  1743   00128A  C043  FFD9         	movff	??_gpio_pin_direction_intialize+3,fsr2l
  1744   00128E  C044  FFDA         	movff	??_gpio_pin_direction_intialize+4,fsr2h
  1745   001292  5042               	movf	(??_gpio_pin_direction_intialize+2)^0,w,c
  1746   001294  16DF               	andwf	indf2,f,c
  1747                           
  1748                           ;MCAL_Layer/GPIO/hal_gpio.c: 30:                 break;
  1749   001296  EF95  F009         	goto	l2782
  1750   00129A                     l2776:
  1751                           
  1752                           ;MCAL_Layer/GPIO/hal_gpio.c: 33:                 (*tris_registers[_pin_config->port] |= 
      +                          ((uint8)1 << _pin_config->pin));
  1753   00129A  503F               	movf	gpio_pin_direction_intialize@_pin_config^0,w,c
  1754   00129C  6ED9               	movwf	fsr2l,c
  1755   00129E  6ADA               	clrf	fsr2h,c
  1756   0012A0  30DF               	rrcf	223,w,c
  1757   0012A2  32E8               	rrcf	wreg,f,c
  1758   0012A4  32E8               	rrcf	wreg,f,c
  1759   0012A6  0B07               	andlw	7
  1760   0012A8  6E40               	movwf	??_gpio_pin_direction_intialize^0,c
  1761   0012AA  0E01               	movlw	1
  1762   0012AC  6E41               	movwf	(??_gpio_pin_direction_intialize+1)^0,c
  1763   0012AE  2A40               	incf	??_gpio_pin_direction_intialize^0,f,c
  1764   0012B0  EF5C  F009         	goto	u1644
  1765   0012B4                     u1645:
  1766   0012B4  90D8               	bcf	status,0,c
  1767   0012B6  3641               	rlcf	(??_gpio_pin_direction_intialize+1)^0,f,c
  1768   0012B8                     u1644:
  1769   0012B8  2E40               	decfsz	??_gpio_pin_direction_intialize^0,f,c
  1770   0012BA  EF5A  F009         	goto	u1645
  1771   0012BE  503F               	movf	gpio_pin_direction_intialize@_pin_config^0,w,c
  1772   0012C0  6ED9               	movwf	fsr2l,c
  1773   0012C2  6ADA               	clrf	fsr2h,c
  1774   0012C4  50DF               	movf	223,w,c
  1775   0012C6  0B07               	andlw	7
  1776   0012C8  0D02               	mullw	2
  1777   0012CA  50F3               	movf	243,w,c
  1778   0012CC  0F15               	addlw	low _tris_registers
  1779   0012CE  6ED9               	movwf	fsr2l,c
  1780   0012D0  6ADA               	clrf	fsr2h,c
  1781   0012D2  CFDE F042          	movff	postinc2,??_gpio_pin_direction_intialize+2
  1782   0012D6  CFDD F043          	movff	postdec2,??_gpio_pin_direction_intialize+3
  1783   0012DA  C042  FFD9         	movff	??_gpio_pin_direction_intialize+2,fsr2l
  1784   0012DE  C043  FFDA         	movff	??_gpio_pin_direction_intialize+3,fsr2h
  1785   0012E2  5041               	movf	(??_gpio_pin_direction_intialize+1)^0,w,c
  1786   0012E4  12DF               	iorwf	indf2,f,c
  1787                           
  1788                           ;MCAL_Layer/GPIO/hal_gpio.c: 34:                 break;
  1789   0012E6  EF95  F009         	goto	l2782
  1790   0012EA                     l2780:
  1791   0012EA  503F               	movf	gpio_pin_direction_intialize@_pin_config^0,w,c
  1792   0012EC  6ED9               	movwf	fsr2l,c
  1793   0012EE  6ADA               	clrf	fsr2h,c
  1794   0012F0  BCDF               	btfsc	indf2,6,c
  1795   0012F2  EF7D  F009         	goto	u1651
  1796   0012F6  EF80  F009         	goto	u1650
  1797   0012FA                     u1651:
  1798   0012FA  0E01               	movlw	1
  1799   0012FC  EF81  F009         	goto	u1660
  1800   001300                     u1650:
  1801   001300  0E00               	movlw	0
  1802   001302                     u1660:
  1803   001302  6E40               	movwf	??_gpio_pin_direction_intialize^0,c
  1804   001304  6A41               	clrf	(??_gpio_pin_direction_intialize+1)^0,c
  1805                           
  1806                           ; Switch on 2 bytes has been partitioned into a top level switch of size 1, and 1 sub-sw
      +                          itches
  1807                           ; Switch size 1, requested type "simple"
  1808                           ; Number of cases is 1, Range of values is 0 to 0
  1809                           ; switch strategies available:
  1810                           ; Name         Instructions Cycles
  1811                           ; simple_byte            4     3 (average)
  1812                           ;	Chosen strategy is simple_byte
  1813   001306  5041               	movf	(??_gpio_pin_direction_intialize+1)^0,w,c
  1814   001308  0A00               	xorlw	0	; case 0
  1815   00130A  B4D8               	btfsc	status,2,c
  1816   00130C  EF8A  F009         	goto	l3716
  1817   001310  EF1E  F009         	goto	l2772
  1818   001314                     l3716:
  1819                           
  1820                           ; Switch size 1, requested type "simple"
  1821                           ; Number of cases is 2, Range of values is 0 to 1
  1822                           ; switch strategies available:
  1823                           ; Name         Instructions Cycles
  1824                           ; simple_byte            7     4 (average)
  1825                           ;	Chosen strategy is simple_byte
  1826   001314  5040               	movf	??_gpio_pin_direction_intialize^0,w,c
  1827   001316  0A00               	xorlw	0	; case 0
  1828   001318  B4D8               	btfsc	status,2,c
  1829   00131A  EF22  F009         	goto	l2774
  1830   00131E  0A01               	xorlw	1	; case 1
  1831   001320  B4D8               	btfsc	status,2,c
  1832   001322  EF4D  F009         	goto	l2776
  1833   001326  EF1E  F009         	goto	l2772
  1834   00132A                     l2782:
  1835                           
  1836                           ;MCAL_Layer/GPIO/hal_gpio.c: 41:     return ret;
  1837   00132A  5045               	movf	gpio_pin_direction_intialize@ret^0,w,c
  1838   00132C  0012               	return		;funcret
  1839   00132E                     __end_of_gpio_pin_direction_intialize:
  1840                           	callstack 0
  1841                           
  1842 ;; *************** function _Interrupt_Manager_High *****************
  1843 ;; Defined at:
  1844 ;;		line 36 in file "MCAL_LAYER/Interrupt/mcal_interrupt_manager.c"
  1845 ;; Parameters:    Size  Location     Type
  1846 ;;		None
  1847 ;; Auto vars:     Size  Location     Type
  1848 ;;		None
  1849 ;; Return value:  Size  Location     Type
  1850 ;;                  1    wreg      void 
  1851 ;; Registers used:
  1852 ;;		wreg, fsr2l, fsr2h, status,2, status,0, pcl, pclath, pclatu, tosl, prodl, prodh, cstack
  1853 ;; Tracked objects:
  1854 ;;		On entry : 0/0
  1855 ;;		On exit  : 0/0
  1856 ;;		Unchanged: 0/0
  1857 ;; Data sizes:     COMRAM   BANK0   BANK1   BANK2   BANK3   BANK4   BANK5   BANK6   BANK7   BANK8   BANK9  BANK10  BANK1
      +1  BANK12  BANK13  BANK14  BANK15
  1858 ;;      Params:         0       0       0       0       0       0       0       0       0       0       0       0       
      +0       0       0       0       0
  1859 ;;      Locals:         0       0       0       0       0       0       0       0       0       0       0       0       
      +0       0       0       0       0
  1860 ;;      Temps:          6       0       0       0       0       0       0       0       0       0       0       0       
      +0       0       0       0       0
  1861 ;;      Totals:         6       0       0       0       0       0       0       0       0       0       0       0       
      +0       0       0       0       0
  1862 ;;Total ram usage:        6 bytes
  1863 ;; Hardware stack levels used: 1
  1864 ;; Hardware stack levels required when called: 4
  1865 ;; This function calls:
  1866 ;;		_INT0_ISR
  1867 ;;		_INT1_ISR
  1868 ;;		_INT2_ISR
  1869 ;;		_RB4_ISR
  1870 ;;		_RB5_ISR
  1871 ;;		_RB6_ISR
  1872 ;;		_RB7_ISR
  1873 ;; This function is called by:
  1874 ;;		Interrupt level 2
  1875 ;; This function uses a non-reentrant model
  1876 ;;
  1877                           
  1878                           	psect	intcode
  1879   000008                     __pintcode:
  1880                           	callstack 0
  1881   000008                     _Interrupt_Manager_High:
  1882                           	callstack 22
  1883                           
  1884                           ;incstack = 0
  1885   000008  826B               	bsf	int$flags,1,c	;set compiler interrupt flag (level 2)
  1886   00000A  ED0B  F008         	call	int_func,f	;refresh shadow registers
  1887                           
  1888                           	psect	intcode_body
  1889   001016                     __pintcode_body:
  1890                           	callstack 22
  1891   001016                     int_func:
  1892                           	callstack 22
  1893   001016  0006               	pop		; remove dummy address from shadow register refresh
  1894   001018  CFFA F039          	movff	pclath,??_Interrupt_Manager_High
  1895   00101C  CFFB F03A          	movff	pclatu,??_Interrupt_Manager_High+1
  1896   001020  CFD9 F03B          	movff	fsr2l,??_Interrupt_Manager_High+2
  1897   001024  CFDA F03C          	movff	fsr2h,??_Interrupt_Manager_High+3
  1898   001028  CFF3 F03D          	movff	prodl,??_Interrupt_Manager_High+4
  1899   00102C  CFF4 F03E          	movff	prodh,??_Interrupt_Manager_High+5
  1900   001030                     
  1901                           ;MCAL_LAYER/Interrupt/mcal_interrupt_manager.c: 38:     if ((INTCONbits.INT0IE == 1) && 
      +                          (INTCONbits.INT0IF == 1)) {
  1902   001030  A8F2               	btfss	242,4,c	;volatile
  1903   001032  EF1D  F008         	goto	i2u252_41
  1904   001036  EF1F  F008         	goto	i2u252_40
  1905   00103A                     i2u252_41:
  1906   00103A  EF28  F008         	goto	i2l3616
  1907   00103E                     i2u252_40:
  1908   00103E  A2F2               	btfss	242,1,c	;volatile
  1909   001040  EF24  F008         	goto	i2u253_41
  1910   001044  EF26  F008         	goto	i2u253_40
  1911   001048                     i2u253_41:
  1912   001048  EF28  F008         	goto	i2l3616
  1913   00104C                     i2u253_40:
  1914   00104C                     
  1915                           ;MCAL_LAYER/Interrupt/mcal_interrupt_manager.c: 39:         INT0_ISR();
  1916   00104C  EC30  F00D         	call	_INT0_ISR	;wreg free
  1917   001050                     i2l3616:
  1918                           
  1919                           ;MCAL_LAYER/Interrupt/mcal_interrupt_manager.c: 42:     if ((INTCON3bits.INT1IE == 1) &&
      +                           (INTCON3bits.INT1IF == 1)) {
  1920   001050  A6F0               	btfss	240,3,c	;volatile
  1921   001052  EF2D  F008         	goto	i2u254_41
  1922   001056  EF2F  F008         	goto	i2u254_40
  1923   00105A                     i2u254_41:
  1924   00105A  EF38  F008         	goto	i2l3622
  1925   00105E                     i2u254_40:
  1926   00105E  A0F0               	btfss	240,0,c	;volatile
  1927   001060  EF34  F008         	goto	i2u255_41
  1928   001064  EF36  F008         	goto	i2u255_40
  1929   001068                     i2u255_41:
  1930   001068  EF38  F008         	goto	i2l3622
  1931   00106C                     i2u255_40:
  1932   00106C                     
  1933                           ;MCAL_LAYER/Interrupt/mcal_interrupt_manager.c: 43:         INT1_ISR();
  1934   00106C  EC2E  F00D         	call	_INT1_ISR	;wreg free
  1935   001070                     i2l3622:
  1936                           
  1937                           ;MCAL_LAYER/Interrupt/mcal_interrupt_manager.c: 46:     if ((INTCON3bits.INT2IE == 1) &&
      +                           (INTCON3bits.INT2IF == 1)) {
  1938   001070  A8F0               	btfss	240,4,c	;volatile
  1939   001072  EF3D  F008         	goto	i2u256_41
  1940   001076  EF3F  F008         	goto	i2u256_40
  1941   00107A                     i2u256_41:
  1942   00107A  EF48  F008         	goto	i2l3628
  1943   00107E                     i2u256_40:
  1944   00107E  A2F0               	btfss	240,1,c	;volatile
  1945   001080  EF44  F008         	goto	i2u257_41
  1946   001084  EF46  F008         	goto	i2u257_40
  1947   001088                     i2u257_41:
  1948   001088  EF48  F008         	goto	i2l3628
  1949   00108C                     i2u257_40:
  1950   00108C                     
  1951                           ;MCAL_LAYER/Interrupt/mcal_interrupt_manager.c: 47:         INT2_ISR();
  1952   00108C  EC2C  F00D         	call	_INT2_ISR	;wreg free
  1953   001090                     i2l3628:
  1954                           
  1955                           ;MCAL_LAYER/Interrupt/mcal_interrupt_manager.c: 51:     if ((INTCONbits.RBIE == 1) && (I
      +                          NTCONbits.RBIF == 1)) {
  1956   001090  A6F2               	btfss	242,3,c	;volatile
  1957   001092  EF4D  F008         	goto	i2u258_41
  1958   001096  EF4F  F008         	goto	i2u258_40
  1959   00109A                     i2u258_41:
  1960   00109A  EFF6  F008         	goto	i2l674
  1961   00109E                     i2u258_40:
  1962   00109E  A0F2               	btfss	242,0,c	;volatile
  1963   0010A0  EF54  F008         	goto	i2u259_41
  1964   0010A4  EF56  F008         	goto	i2u259_40
  1965   0010A8                     i2u259_41:
  1966   0010A8  EFF6  F008         	goto	i2l674
  1967   0010AC                     i2u259_40:
  1968   0010AC                     
  1969                           ;MCAL_LAYER/Interrupt/mcal_interrupt_manager.c: 55:         if ((PORTBbits.RB4 == GPIO_H
      +                          IGH) && RB4_f == 1) {
  1970   0010AC  A881               	btfss	129,4,c	;volatile
  1971   0010AE  EF5B  F008         	goto	i2u260_41
  1972   0010B2  EF5D  F008         	goto	i2u260_40
  1973   0010B6                     i2u260_41:
  1974   0010B6  EF6A  F008         	goto	i2l3640
  1975   0010BA                     i2u260_40:
  1976   0010BA  0423               	decf	_RB4_f^0,w,c	;volatile
  1977   0010BC  A4D8               	btfss	status,2,c
  1978   0010BE  EF63  F008         	goto	i2u261_41
  1979   0010C2  EF65  F008         	goto	i2u261_40
  1980   0010C6                     i2u261_41:
  1981   0010C6  EF6A  F008         	goto	i2l3640
  1982   0010CA                     i2u261_40:
  1983   0010CA                     
  1984                           ;MCAL_LAYER/Interrupt/mcal_interrupt_manager.c: 56:             RB4_f = 0;
  1985   0010CA  0E00               	movlw	0
  1986   0010CC  6E23               	movwf	_RB4_f^0,c	;volatile
  1987   0010CE                     
  1988                           ;MCAL_LAYER/Interrupt/mcal_interrupt_manager.c: 57:             RB4_ISR(0);
  1989   0010CE  0E00               	movlw	0
  1990   0010D0  ECA0  F00C         	call	_RB4_ISR
  1991   0010D4                     i2l3640:
  1992                           
  1993                           ;MCAL_LAYER/Interrupt/mcal_interrupt_manager.c: 59:         if ((PORTBbits.RB4 == GPIO_L
      +                          OW) && RB4_f == 0) {
  1994   0010D4  B881               	btfsc	129,4,c	;volatile
  1995   0010D6  EF6F  F008         	goto	i2u262_41
  1996   0010DA  EF71  F008         	goto	i2u262_40
  1997   0010DE                     i2u262_41:
  1998   0010DE  EF7E  F008         	goto	i2l3648
  1999   0010E2                     i2u262_40:
  2000   0010E2  5023               	movf	_RB4_f^0,w,c	;volatile
  2001   0010E4  A4D8               	btfss	status,2,c
  2002   0010E6  EF77  F008         	goto	i2u263_41
  2003   0010EA  EF79  F008         	goto	i2u263_40
  2004   0010EE                     i2u263_41:
  2005   0010EE  EF7E  F008         	goto	i2l3648
  2006   0010F2                     i2u263_40:
  2007   0010F2                     
  2008                           ;MCAL_LAYER/Interrupt/mcal_interrupt_manager.c: 60:             RB4_f = 1;
  2009   0010F2  0E01               	movlw	1
  2010   0010F4  6E23               	movwf	_RB4_f^0,c	;volatile
  2011   0010F6                     
  2012                           ;MCAL_LAYER/Interrupt/mcal_interrupt_manager.c: 61:             RB4_ISR(1);
  2013   0010F6  0E01               	movlw	1
  2014   0010F8  ECA0  F00C         	call	_RB4_ISR
  2015   0010FC                     i2l3648:
  2016                           
  2017                           ;MCAL_LAYER/Interrupt/mcal_interrupt_manager.c: 64:         if ((PORTBbits.RB5 == GPIO_H
      +                          IGH) && RB5_f == 1) {
  2018   0010FC  AA81               	btfss	129,5,c	;volatile
  2019   0010FE  EF83  F008         	goto	i2u264_41
  2020   001102  EF85  F008         	goto	i2u264_40
  2021   001106                     i2u264_41:
  2022   001106  EF92  F008         	goto	i2l3656
  2023   00110A                     i2u264_40:
  2024   00110A  0422               	decf	_RB5_f^0,w,c	;volatile
  2025   00110C  A4D8               	btfss	status,2,c
  2026   00110E  EF8B  F008         	goto	i2u265_41
  2027   001112  EF8D  F008         	goto	i2u265_40
  2028   001116                     i2u265_41:
  2029   001116  EF92  F008         	goto	i2l3656
  2030   00111A                     i2u265_40:
  2031   00111A                     
  2032                           ;MCAL_LAYER/Interrupt/mcal_interrupt_manager.c: 65:             RB5_f = 0;
  2033   00111A  0E00               	movlw	0
  2034   00111C  6E22               	movwf	_RB5_f^0,c	;volatile
  2035   00111E                     
  2036                           ;MCAL_LAYER/Interrupt/mcal_interrupt_manager.c: 66:             RB5_ISR(0);
  2037   00111E  0E00               	movlw	0
  2038   001120  EC7E  F00C         	call	_RB5_ISR
  2039   001124                     i2l3656:
  2040                           
  2041                           ;MCAL_LAYER/Interrupt/mcal_interrupt_manager.c: 68:         if ((PORTBbits.RB5 == GPIO_L
      +                          OW) && RB5_f == 0) {
  2042   001124  BA81               	btfsc	129,5,c	;volatile
  2043   001126  EF97  F008         	goto	i2u266_41
  2044   00112A  EF99  F008         	goto	i2u266_40
  2045   00112E                     i2u266_41:
  2046   00112E  EFA6  F008         	goto	i2l3664
  2047   001132                     i2u266_40:
  2048   001132  5022               	movf	_RB5_f^0,w,c	;volatile
  2049   001134  A4D8               	btfss	status,2,c
  2050   001136  EF9F  F008         	goto	i2u267_41
  2051   00113A  EFA1  F008         	goto	i2u267_40
  2052   00113E                     i2u267_41:
  2053   00113E  EFA6  F008         	goto	i2l3664
  2054   001142                     i2u267_40:
  2055   001142                     
  2056                           ;MCAL_LAYER/Interrupt/mcal_interrupt_manager.c: 69:             RB5_f = 1;
  2057   001142  0E01               	movlw	1
  2058   001144  6E22               	movwf	_RB5_f^0,c	;volatile
  2059   001146                     
  2060                           ;MCAL_LAYER/Interrupt/mcal_interrupt_manager.c: 70:             RB5_ISR(1);
  2061   001146  0E01               	movlw	1
  2062   001148  EC7E  F00C         	call	_RB5_ISR
  2063   00114C                     i2l3664:
  2064                           
  2065                           ;MCAL_LAYER/Interrupt/mcal_interrupt_manager.c: 73:         if ((PORTBbits.RB6 == GPIO_H
      +                          IGH) && RB6_f == 1) {
  2066   00114C  AC81               	btfss	129,6,c	;volatile
  2067   00114E  EFAB  F008         	goto	i2u268_41
  2068   001152  EFAD  F008         	goto	i2u268_40
  2069   001156                     i2u268_41:
  2070   001156  EFBA  F008         	goto	i2l3672
  2071   00115A                     i2u268_40:
  2072   00115A  0421               	decf	_RB6_f^0,w,c	;volatile
  2073   00115C  A4D8               	btfss	status,2,c
  2074   00115E  EFB3  F008         	goto	i2u269_41
  2075   001162  EFB5  F008         	goto	i2u269_40
  2076   001166                     i2u269_41:
  2077   001166  EFBA  F008         	goto	i2l3672
  2078   00116A                     i2u269_40:
  2079   00116A                     
  2080                           ;MCAL_LAYER/Interrupt/mcal_interrupt_manager.c: 74:             RB6_f = 0;
  2081   00116A  0E00               	movlw	0
  2082   00116C  6E21               	movwf	_RB6_f^0,c	;volatile
  2083   00116E                     
  2084                           ;MCAL_LAYER/Interrupt/mcal_interrupt_manager.c: 75:             RB6_ISR(0);
  2085   00116E  0E00               	movlw	0
  2086   001170  EC5C  F00C         	call	_RB6_ISR
  2087   001174                     i2l3672:
  2088                           
  2089                           ;MCAL_LAYER/Interrupt/mcal_interrupt_manager.c: 77:         if ((PORTBbits.RB6 == GPIO_L
      +                          OW) && RB6_f == 0) {
  2090   001174  BC81               	btfsc	129,6,c	;volatile
  2091   001176  EFBF  F008         	goto	i2u270_41
  2092   00117A  EFC1  F008         	goto	i2u270_40
  2093   00117E                     i2u270_41:
  2094   00117E  EFCE  F008         	goto	i2l3680
  2095   001182                     i2u270_40:
  2096   001182  5021               	movf	_RB6_f^0,w,c	;volatile
  2097   001184  A4D8               	btfss	status,2,c
  2098   001186  EFC7  F008         	goto	i2u271_41
  2099   00118A  EFC9  F008         	goto	i2u271_40
  2100   00118E                     i2u271_41:
  2101   00118E  EFCE  F008         	goto	i2l3680
  2102   001192                     i2u271_40:
  2103   001192                     
  2104                           ;MCAL_LAYER/Interrupt/mcal_interrupt_manager.c: 78:             RB6_f = 1;
  2105   001192  0E01               	movlw	1
  2106   001194  6E21               	movwf	_RB6_f^0,c	;volatile
  2107   001196                     
  2108                           ;MCAL_LAYER/Interrupt/mcal_interrupt_manager.c: 79:             RB6_ISR(1);
  2109   001196  0E01               	movlw	1
  2110   001198  EC5C  F00C         	call	_RB6_ISR
  2111   00119C                     i2l3680:
  2112                           
  2113                           ;MCAL_LAYER/Interrupt/mcal_interrupt_manager.c: 82:         if ((PORTBbits.RB7 == GPIO_H
      +                          IGH) && RB7_f == 1) {
  2114   00119C  AE81               	btfss	129,7,c	;volatile
  2115   00119E  EFD3  F008         	goto	i2u272_41
  2116   0011A2  EFD5  F008         	goto	i2u272_40
  2117   0011A6                     i2u272_41:
  2118   0011A6  EFE2  F008         	goto	i2l3688
  2119   0011AA                     i2u272_40:
  2120   0011AA  0420               	decf	_RB7_f^0,w,c	;volatile
  2121   0011AC  A4D8               	btfss	status,2,c
  2122   0011AE  EFDB  F008         	goto	i2u273_41
  2123   0011B2  EFDD  F008         	goto	i2u273_40
  2124   0011B6                     i2u273_41:
  2125   0011B6  EFE2  F008         	goto	i2l3688
  2126   0011BA                     i2u273_40:
  2127   0011BA                     
  2128                           ;MCAL_LAYER/Interrupt/mcal_interrupt_manager.c: 83:             RB7_f = 0;
  2129   0011BA  0E00               	movlw	0
  2130   0011BC  6E20               	movwf	_RB7_f^0,c	;volatile
  2131   0011BE                     
  2132                           ;MCAL_LAYER/Interrupt/mcal_interrupt_manager.c: 84:             RB7_ISR(0);
  2133   0011BE  0E00               	movlw	0
  2134   0011C0  EC3A  F00C         	call	_RB7_ISR
  2135   0011C4                     i2l3688:
  2136                           
  2137                           ;MCAL_LAYER/Interrupt/mcal_interrupt_manager.c: 86:         if ((PORTBbits.RB7 == GPIO_L
      +                          OW) && RB7_f == 0) {
  2138   0011C4  BE81               	btfsc	129,7,c	;volatile
  2139   0011C6  EFE7  F008         	goto	i2u274_41
  2140   0011CA  EFE9  F008         	goto	i2u274_40
  2141   0011CE                     i2u274_41:
  2142   0011CE  EFF6  F008         	goto	i2l674
  2143   0011D2                     i2u274_40:
  2144   0011D2  5020               	movf	_RB7_f^0,w,c	;volatile
  2145   0011D4  A4D8               	btfss	status,2,c
  2146   0011D6  EFEF  F008         	goto	i2u275_41
  2147   0011DA  EFF1  F008         	goto	i2u275_40
  2148   0011DE                     i2u275_41:
  2149   0011DE  EFF6  F008         	goto	i2l674
  2150   0011E2                     i2u275_40:
  2151   0011E2                     
  2152                           ;MCAL_LAYER/Interrupt/mcal_interrupt_manager.c: 87:             RB7_f = 1;
  2153   0011E2  0E01               	movlw	1
  2154   0011E4  6E20               	movwf	_RB7_f^0,c	;volatile
  2155   0011E6                     
  2156                           ;MCAL_LAYER/Interrupt/mcal_interrupt_manager.c: 88:             RB7_ISR(1);
  2157   0011E6  0E01               	movlw	1
  2158   0011E8  EC3A  F00C         	call	_RB7_ISR
  2159   0011EC                     i2l674:
  2160   0011EC  C03E  FFF4         	movff	??_Interrupt_Manager_High+5,prodh
  2161   0011F0  C03D  FFF3         	movff	??_Interrupt_Manager_High+4,prodl
  2162   0011F4  C03C  FFDA         	movff	??_Interrupt_Manager_High+3,fsr2h
  2163   0011F8  C03B  FFD9         	movff	??_Interrupt_Manager_High+2,fsr2l
  2164   0011FC  C03A  FFFB         	movff	??_Interrupt_Manager_High+1,pclatu
  2165   001200  C039  FFFA         	movff	??_Interrupt_Manager_High,pclath
  2166   001204  926B               	bcf	int$flags,1,c	;clear compiler interrupt flag (level 2)
  2167   001206  0011               	retfie		f
  2168   001208                     __end_of_Interrupt_Manager_High:
  2169                           	callstack 0
  2170                           
  2171 ;; *************** function _RB7_ISR *****************
  2172 ;; Defined at:
  2173 ;;		line 514 in file "MCAL_LAYER/Interrupt/mcal_external_interrupt.c"
  2174 ;; Parameters:    Size  Location     Type
  2175 ;;  source          1    wreg     unsigned char 
  2176 ;; Auto vars:     Size  Location     Type
  2177 ;;  source          1    9[COMRAM] unsigned char 
  2178 ;; Return value:  Size  Location     Type
  2179 ;;                  1    wreg      void 
  2180 ;; Registers used:
  2181 ;;		wreg, fsr2l, fsr2h, status,2, status,0, pcl, pclath, pclatu, tosl, prodl, prodh, cstack
  2182 ;; Tracked objects:
  2183 ;;		On entry : 0/0
  2184 ;;		On exit  : 0/0
  2185 ;;		Unchanged: 0/0
  2186 ;; Data sizes:     COMRAM   BANK0   BANK1   BANK2   BANK3   BANK4   BANK5   BANK6   BANK7   BANK8   BANK9  BANK10  BANK1
      +1  BANK12  BANK13  BANK14  BANK15
  2187 ;;      Params:         0       0       0       0       0       0       0       0       0       0       0       0       
      +0       0       0       0       0
  2188 ;;      Locals:         1       0       0       0       0       0       0       0       0       0       0       0       
      +0       0       0       0       0
  2189 ;;      Temps:          0       0       0       0       0       0       0       0       0       0       0       0       
      +0       0       0       0       0
  2190 ;;      Totals:         1       0       0       0       0       0       0       0       0       0       0       0       
      +0       0       0       0       0
  2191 ;;Total ram usage:        1 bytes
  2192 ;; Hardware stack levels used: 1
  2193 ;; Hardware stack levels required when called: 3
  2194 ;; This function calls:
  2195 ;;		NULL
  2196 ;;		_f
  2197 ;; This function is called by:
  2198 ;;		_Interrupt_Manager_High
  2199 ;; This function uses a non-reentrant model
  2200 ;;
  2201                           
  2202                           	psect	text12
  2203   001874                     __ptext12:
  2204                           	callstack 0
  2205   001874                     _RB7_ISR:
  2206                           	callstack 22
  2207                           
  2208                           ;incstack = 0
  2209                           ;RB7_ISR@source stored from wreg
  2210   001874  6E38               	movwf	RB7_ISR@source^0,c
  2211   001876                     
  2212                           ;MCAL_LAYER/Interrupt/mcal_external_interrupt.c: 515:     (INTCONbits.RBIF = 1);
  2213   001876  80F2               	bsf	242,0,c	;volatile
  2214   001878                     
  2215                           ;MCAL_LAYER/Interrupt/mcal_external_interrupt.c: 517:     if (0 == source) {
  2216   001878  5038               	movf	RB7_ISR@source^0,w,c
  2217   00187A  A4D8               	btfss	status,2,c
  2218   00187C  EF42  F00C         	goto	i2u210_41
  2219   001880  EF44  F00C         	goto	i2u210_40
  2220   001884                     i2u210_41:
  2221   001884  EF5B  F00C         	goto	i2l3144
  2222   001888                     i2u210_40:
  2223   001888                     
  2224                           ;MCAL_LAYER/Interrupt/mcal_external_interrupt.c: 518:         if (RB7_Interrupt_Handler_
      +                          High) {
  2225   001888  5050               	movf	_RB7_Interrupt_Handler_High^0,w,c
  2226   00188A  1051               	iorwf	(_RB7_Interrupt_Handler_High+1)^0,w,c
  2227   00188C  B4D8               	btfsc	status,2,c
  2228   00188E  EF4B  F00C         	goto	i2u211_41
  2229   001892  EF4D  F00C         	goto	i2u211_40
  2230   001896                     i2u211_41:
  2231   001896  EF5B  F00C         	goto	i2l629
  2232   00189A                     i2u211_40:
  2233   00189A                     
  2234                           ;MCAL_LAYER/Interrupt/mcal_external_interrupt.c: 519:             RB7_Interrupt_Handler_
      +                          High();
  2235   00189A  D802               	call	i2u212_48
  2236   00189C  EF59  F00C         	goto	i2u212_49
  2237   0018A0                     i2u212_48:
  2238   0018A0  0005               	push	
  2239   0018A2  6EFA               	movwf	pclath,c
  2240   0018A4  5050               	movf	_RB7_Interrupt_Handler_High^0,w,c
  2241   0018A6  6EFD               	movwf	tosl,c
  2242   0018A8  5051               	movf	(_RB7_Interrupt_Handler_High+1)^0,w,c
  2243   0018AA  6EFE               	movwf	tosh,c
  2244   0018AC  6AFF               	clrf	tosu,c
  2245   0018AE  50FA               	movf	pclath,w,c
  2246   0018B0  0012               	return		;indir
  2247   0018B2                     i2u212_49:
  2248   0018B2  EF5B  F00C         	goto	i2l629
  2249   0018B6                     i2l3144:
  2250   0018B6                     i2l629:
  2251   0018B6  0012               	return		;funcret
  2252   0018B8                     __end_of_RB7_ISR:
  2253                           	callstack 0
  2254                           
  2255 ;; *************** function _RB6_ISR *****************
  2256 ;; Defined at:
  2257 ;;		line 500 in file "MCAL_LAYER/Interrupt/mcal_external_interrupt.c"
  2258 ;; Parameters:    Size  Location     Type
  2259 ;;  source          1    wreg     unsigned char 
  2260 ;; Auto vars:     Size  Location     Type
  2261 ;;  source          1    9[COMRAM] unsigned char 
  2262 ;; Return value:  Size  Location     Type
  2263 ;;                  1    wreg      void 
  2264 ;; Registers used:
  2265 ;;		wreg, fsr2l, fsr2h, status,2, status,0, pcl, pclath, pclatu, tosl, prodl, prodh, cstack
  2266 ;; Tracked objects:
  2267 ;;		On entry : 0/0
  2268 ;;		On exit  : 0/0
  2269 ;;		Unchanged: 0/0
  2270 ;; Data sizes:     COMRAM   BANK0   BANK1   BANK2   BANK3   BANK4   BANK5   BANK6   BANK7   BANK8   BANK9  BANK10  BANK1
      +1  BANK12  BANK13  BANK14  BANK15
  2271 ;;      Params:         0       0       0       0       0       0       0       0       0       0       0       0       
      +0       0       0       0       0
  2272 ;;      Locals:         1       0       0       0       0       0       0       0       0       0       0       0       
      +0       0       0       0       0
  2273 ;;      Temps:          0       0       0       0       0       0       0       0       0       0       0       0       
      +0       0       0       0       0
  2274 ;;      Totals:         1       0       0       0       0       0       0       0       0       0       0       0       
      +0       0       0       0       0
  2275 ;;Total ram usage:        1 bytes
  2276 ;; Hardware stack levels used: 1
  2277 ;; Hardware stack levels required when called: 3
  2278 ;; This function calls:
  2279 ;;		NULL
  2280 ;;		_f
  2281 ;; This function is called by:
  2282 ;;		_Interrupt_Manager_High
  2283 ;; This function uses a non-reentrant model
  2284 ;;
  2285                           
  2286                           	psect	text13
  2287   0018B8                     __ptext13:
  2288                           	callstack 0
  2289   0018B8                     _RB6_ISR:
  2290                           	callstack 22
  2291                           
  2292                           ;incstack = 0
  2293                           ;RB6_ISR@source stored from wreg
  2294   0018B8  6E38               	movwf	RB6_ISR@source^0,c
  2295   0018BA                     
  2296                           ;MCAL_LAYER/Interrupt/mcal_external_interrupt.c: 501:     (INTCONbits.RBIF = 1);
  2297   0018BA  80F2               	bsf	242,0,c	;volatile
  2298   0018BC                     
  2299                           ;MCAL_LAYER/Interrupt/mcal_external_interrupt.c: 503:     if (0 == source) {
  2300   0018BC  5038               	movf	RB6_ISR@source^0,w,c
  2301   0018BE  A4D8               	btfss	status,2,c
  2302   0018C0  EF64  F00C         	goto	i2u207_41
  2303   0018C4  EF66  F00C         	goto	i2u207_40
  2304   0018C8                     i2u207_41:
  2305   0018C8  EF7D  F00C         	goto	i2l3132
  2306   0018CC                     i2u207_40:
  2307   0018CC                     
  2308                           ;MCAL_LAYER/Interrupt/mcal_external_interrupt.c: 504:         if (RB6_Interrupt_Handler_
      +                          High) {
  2309   0018CC  5054               	movf	_RB6_Interrupt_Handler_High^0,w,c
  2310   0018CE  1055               	iorwf	(_RB6_Interrupt_Handler_High+1)^0,w,c
  2311   0018D0  B4D8               	btfsc	status,2,c
  2312   0018D2  EF6D  F00C         	goto	i2u208_41
  2313   0018D6  EF6F  F00C         	goto	i2u208_40
  2314   0018DA                     i2u208_41:
  2315   0018DA  EF7D  F00C         	goto	i2l621
  2316   0018DE                     i2u208_40:
  2317   0018DE                     
  2318                           ;MCAL_LAYER/Interrupt/mcal_external_interrupt.c: 505:             RB6_Interrupt_Handler_
      +                          High();
  2319   0018DE  D802               	call	i2u209_48
  2320   0018E0  EF7B  F00C         	goto	i2u209_49
  2321   0018E4                     i2u209_48:
  2322   0018E4  0005               	push	
  2323   0018E6  6EFA               	movwf	pclath,c
  2324   0018E8  5054               	movf	_RB6_Interrupt_Handler_High^0,w,c
  2325   0018EA  6EFD               	movwf	tosl,c
  2326   0018EC  5055               	movf	(_RB6_Interrupt_Handler_High+1)^0,w,c
  2327   0018EE  6EFE               	movwf	tosh,c
  2328   0018F0  6AFF               	clrf	tosu,c
  2329   0018F2  50FA               	movf	pclath,w,c
  2330   0018F4  0012               	return		;indir
  2331   0018F6                     i2u209_49:
  2332   0018F6  EF7D  F00C         	goto	i2l621
  2333   0018FA                     i2l3132:
  2334   0018FA                     i2l621:
  2335   0018FA  0012               	return		;funcret
  2336   0018FC                     __end_of_RB6_ISR:
  2337                           	callstack 0
  2338                           
  2339 ;; *************** function _RB5_ISR *****************
  2340 ;; Defined at:
  2341 ;;		line 486 in file "MCAL_LAYER/Interrupt/mcal_external_interrupt.c"
  2342 ;; Parameters:    Size  Location     Type
  2343 ;;  source          1    wreg     unsigned char 
  2344 ;; Auto vars:     Size  Location     Type
  2345 ;;  source          1    9[COMRAM] unsigned char 
  2346 ;; Return value:  Size  Location     Type
  2347 ;;                  1    wreg      void 
  2348 ;; Registers used:
  2349 ;;		wreg, fsr2l, fsr2h, status,2, status,0, pcl, pclath, pclatu, tosl, prodl, prodh, cstack
  2350 ;; Tracked objects:
  2351 ;;		On entry : 0/0
  2352 ;;		On exit  : 0/0
  2353 ;;		Unchanged: 0/0
  2354 ;; Data sizes:     COMRAM   BANK0   BANK1   BANK2   BANK3   BANK4   BANK5   BANK6   BANK7   BANK8   BANK9  BANK10  BANK1
      +1  BANK12  BANK13  BANK14  BANK15
  2355 ;;      Params:         0       0       0       0       0       0       0       0       0       0       0       0       
      +0       0       0       0       0
  2356 ;;      Locals:         1       0       0       0       0       0       0       0       0       0       0       0       
      +0       0       0       0       0
  2357 ;;      Temps:          0       0       0       0       0       0       0       0       0       0       0       0       
      +0       0       0       0       0
  2358 ;;      Totals:         1       0       0       0       0       0       0       0       0       0       0       0       
      +0       0       0       0       0
  2359 ;;Total ram usage:        1 bytes
  2360 ;; Hardware stack levels used: 1
  2361 ;; Hardware stack levels required when called: 3
  2362 ;; This function calls:
  2363 ;;		NULL
  2364 ;;		_f
  2365 ;; This function is called by:
  2366 ;;		_Interrupt_Manager_High
  2367 ;; This function uses a non-reentrant model
  2368 ;;
  2369                           
  2370                           	psect	text14
  2371   0018FC                     __ptext14:
  2372                           	callstack 0
  2373   0018FC                     _RB5_ISR:
  2374                           	callstack 22
  2375                           
  2376                           ;incstack = 0
  2377                           ;RB5_ISR@source stored from wreg
  2378   0018FC  6E38               	movwf	RB5_ISR@source^0,c
  2379   0018FE                     
  2380                           ;MCAL_LAYER/Interrupt/mcal_external_interrupt.c: 487:     (INTCONbits.RBIF = 1);
  2381   0018FE  80F2               	bsf	242,0,c	;volatile
  2382   001900                     
  2383                           ;MCAL_LAYER/Interrupt/mcal_external_interrupt.c: 489:     if (0 == source) {
  2384   001900  5038               	movf	RB5_ISR@source^0,w,c
  2385   001902  A4D8               	btfss	status,2,c
  2386   001904  EF86  F00C         	goto	i2u204_41
  2387   001908  EF88  F00C         	goto	i2u204_40
  2388   00190C                     i2u204_41:
  2389   00190C  EF9F  F00C         	goto	i2l3120
  2390   001910                     i2u204_40:
  2391   001910                     
  2392                           ;MCAL_LAYER/Interrupt/mcal_external_interrupt.c: 490:         if (RB5_Interrupt_Handler_
      +                          High) {
  2393   001910  5058               	movf	_RB5_Interrupt_Handler_High^0,w,c
  2394   001912  1059               	iorwf	(_RB5_Interrupt_Handler_High+1)^0,w,c
  2395   001914  B4D8               	btfsc	status,2,c
  2396   001916  EF8F  F00C         	goto	i2u205_41
  2397   00191A  EF91  F00C         	goto	i2u205_40
  2398   00191E                     i2u205_41:
  2399   00191E  EF9F  F00C         	goto	i2l613
  2400   001922                     i2u205_40:
  2401   001922                     
  2402                           ;MCAL_LAYER/Interrupt/mcal_external_interrupt.c: 491:             RB5_Interrupt_Handler_
      +                          High();
  2403   001922  D802               	call	i2u206_48
  2404   001924  EF9D  F00C         	goto	i2u206_49
  2405   001928                     i2u206_48:
  2406   001928  0005               	push	
  2407   00192A  6EFA               	movwf	pclath,c
  2408   00192C  5058               	movf	_RB5_Interrupt_Handler_High^0,w,c
  2409   00192E  6EFD               	movwf	tosl,c
  2410   001930  5059               	movf	(_RB5_Interrupt_Handler_High+1)^0,w,c
  2411   001932  6EFE               	movwf	tosh,c
  2412   001934  6AFF               	clrf	tosu,c
  2413   001936  50FA               	movf	pclath,w,c
  2414   001938  0012               	return		;indir
  2415   00193A                     i2u206_49:
  2416   00193A  EF9F  F00C         	goto	i2l613
  2417   00193E                     i2l3120:
  2418   00193E                     i2l613:
  2419   00193E  0012               	return		;funcret
  2420   001940                     __end_of_RB5_ISR:
  2421                           	callstack 0
  2422                           
  2423 ;; *************** function _RB4_ISR *****************
  2424 ;; Defined at:
  2425 ;;		line 472 in file "MCAL_LAYER/Interrupt/mcal_external_interrupt.c"
  2426 ;; Parameters:    Size  Location     Type
  2427 ;;  source          1    wreg     unsigned char 
  2428 ;; Auto vars:     Size  Location     Type
  2429 ;;  source          1    9[COMRAM] unsigned char 
  2430 ;; Return value:  Size  Location     Type
  2431 ;;                  1    wreg      void 
  2432 ;; Registers used:
  2433 ;;		wreg, fsr2l, fsr2h, status,2, status,0, pcl, pclath, pclatu, tosl, prodl, prodh, cstack
  2434 ;; Tracked objects:
  2435 ;;		On entry : 0/0
  2436 ;;		On exit  : 0/0
  2437 ;;		Unchanged: 0/0
  2438 ;; Data sizes:     COMRAM   BANK0   BANK1   BANK2   BANK3   BANK4   BANK5   BANK6   BANK7   BANK8   BANK9  BANK10  BANK1
      +1  BANK12  BANK13  BANK14  BANK15
  2439 ;;      Params:         0       0       0       0       0       0       0       0       0       0       0       0       
      +0       0       0       0       0
  2440 ;;      Locals:         1       0       0       0       0       0       0       0       0       0       0       0       
      +0       0       0       0       0
  2441 ;;      Temps:          0       0       0       0       0       0       0       0       0       0       0       0       
      +0       0       0       0       0
  2442 ;;      Totals:         1       0       0       0       0       0       0       0       0       0       0       0       
      +0       0       0       0       0
  2443 ;;Total ram usage:        1 bytes
  2444 ;; Hardware stack levels used: 1
  2445 ;; Hardware stack levels required when called: 3
  2446 ;; This function calls:
  2447 ;;		NULL
  2448 ;;		_f
  2449 ;; This function is called by:
  2450 ;;		_Interrupt_Manager_High
  2451 ;; This function uses a non-reentrant model
  2452 ;;
  2453                           
  2454                           	psect	text15
  2455   001940                     __ptext15:
  2456                           	callstack 0
  2457   001940                     _RB4_ISR:
  2458                           	callstack 22
  2459                           
  2460                           ;incstack = 0
  2461                           ;RB4_ISR@source stored from wreg
  2462   001940  6E38               	movwf	RB4_ISR@source^0,c
  2463   001942                     
  2464                           ;MCAL_LAYER/Interrupt/mcal_external_interrupt.c: 473:     (INTCONbits.RBIF = 1);
  2465   001942  80F2               	bsf	242,0,c	;volatile
  2466   001944                     
  2467                           ;MCAL_LAYER/Interrupt/mcal_external_interrupt.c: 475:     if (0 == source) {
  2468   001944  5038               	movf	RB4_ISR@source^0,w,c
  2469   001946  A4D8               	btfss	status,2,c
  2470   001948  EFA8  F00C         	goto	i2u201_41
  2471   00194C  EFAA  F00C         	goto	i2u201_40
  2472   001950                     i2u201_41:
  2473   001950  EFC1  F00C         	goto	i2l3108
  2474   001954                     i2u201_40:
  2475   001954                     
  2476                           ;MCAL_LAYER/Interrupt/mcal_external_interrupt.c: 476:         if (RB4_Interrupt_Handler_
      +                          High) {
  2477   001954  505C               	movf	_RB4_Interrupt_Handler_High^0,w,c
  2478   001956  105D               	iorwf	(_RB4_Interrupt_Handler_High+1)^0,w,c
  2479   001958  B4D8               	btfsc	status,2,c
  2480   00195A  EFB1  F00C         	goto	i2u202_41
  2481   00195E  EFB3  F00C         	goto	i2u202_40
  2482   001962                     i2u202_41:
  2483   001962  EFC1  F00C         	goto	i2l605
  2484   001966                     i2u202_40:
  2485   001966                     
  2486                           ;MCAL_LAYER/Interrupt/mcal_external_interrupt.c: 477:             RB4_Interrupt_Handler_
      +                          High();
  2487   001966  D802               	call	i2u203_48
  2488   001968  EFBF  F00C         	goto	i2u203_49
  2489   00196C                     i2u203_48:
  2490   00196C  0005               	push	
  2491   00196E  6EFA               	movwf	pclath,c
  2492   001970  505C               	movf	_RB4_Interrupt_Handler_High^0,w,c
  2493   001972  6EFD               	movwf	tosl,c
  2494   001974  505D               	movf	(_RB4_Interrupt_Handler_High+1)^0,w,c
  2495   001976  6EFE               	movwf	tosh,c
  2496   001978  6AFF               	clrf	tosu,c
  2497   00197A  50FA               	movf	pclath,w,c
  2498   00197C  0012               	return		;indir
  2499   00197E                     i2u203_49:
  2500   00197E  EFC1  F00C         	goto	i2l605
  2501   001982                     i2l3108:
  2502   001982                     i2l605:
  2503   001982  0012               	return		;funcret
  2504   001984                     __end_of_RB4_ISR:
  2505                           	callstack 0
  2506                           
  2507 ;; *************** function _f *****************
  2508 ;; Defined at:
  2509 ;;		line 22 in file "app.c"
  2510 ;; Parameters:    Size  Location     Type
  2511 ;;		None
  2512 ;; Auto vars:     Size  Location     Type
  2513 ;;		None
  2514 ;; Return value:  Size  Location     Type
  2515 ;;                  1    wreg      void 
  2516 ;; Registers used:
  2517 ;;		wreg, fsr2l, fsr2h, status,2, status,0, prodl, prodh, cstack
  2518 ;; Tracked objects:
  2519 ;;		On entry : 0/0
  2520 ;;		On exit  : 0/0
  2521 ;;		Unchanged: 0/0
  2522 ;; Data sizes:     COMRAM   BANK0   BANK1   BANK2   BANK3   BANK4   BANK5   BANK6   BANK7   BANK8   BANK9  BANK10  BANK1
      +1  BANK12  BANK13  BANK14  BANK15
  2523 ;;      Params:         0       0       0       0       0       0       0       0       0       0       0       0       
      +0       0       0       0       0
  2524 ;;      Locals:         0       0       0       0       0       0       0       0       0       0       0       0       
      +0       0       0       0       0
  2525 ;;      Temps:          0       0       0       0       0       0       0       0       0       0       0       0       
      +0       0       0       0       0
  2526 ;;      Totals:         0       0       0       0       0       0       0       0       0       0       0       0       
      +0       0       0       0       0
  2527 ;;Total ram usage:        0 bytes
  2528 ;; Hardware stack levels used: 1
  2529 ;; Hardware stack levels required when called: 2
  2530 ;; This function calls:
  2531 ;;		_led_toggle_status
  2532 ;; This function is called by:
  2533 ;;		_RB4_ISR
  2534 ;;		_RB5_ISR
  2535 ;;		_RB6_ISR
  2536 ;;		_RB7_ISR
  2537 ;; This function uses a non-reentrant model
  2538 ;;
  2539                           
  2540                           	psect	text16
  2541   001A4C                     __ptext16:
  2542                           	callstack 0
  2543   001A4C                     _f:
  2544                           	callstack 22
  2545   001A4C                     
  2546                           ;app.c: 23:     ret = led_toggle_status(&led);
  2547   001A4C  0E2E               	movlw	low _led
  2548   001A4E  6E34               	movwf	led_toggle_status@Led^0,c
  2549   001A50  ECD1  F00B         	call	_led_toggle_status	;wreg free
  2550   001A54  6E1F               	movwf	_ret^0,c	;volatile
  2551   001A56  0012               	return		;funcret
  2552   001A58                     __end_of_f:
  2553                           	callstack 0
  2554                           
  2555 ;; *************** function _led_toggle_status *****************
  2556 ;; Defined at:
  2557 ;;		line 87 in file "ECU_LAYER/Led/ecu_led.c"
  2558 ;; Parameters:    Size  Location     Type
  2559 ;;  Led             1    5[COMRAM] PTR const struct .
  2560 ;;		 -> led(1), 
  2561 ;; Auto vars:     Size  Location     Type
  2562 ;;  pin_obj         1    8[COMRAM] struct .
  2563 ;;  ret             1    7[COMRAM] unsigned char 
  2564 ;; Return value:  Size  Location     Type
  2565 ;;                  1    wreg      unsigned char 
  2566 ;; Registers used:
  2567 ;;		wreg, fsr2l, fsr2h, status,2, status,0, prodl, prodh, cstack
  2568 ;; Tracked objects:
  2569 ;;		On entry : 0/0
  2570 ;;		On exit  : 0/0
  2571 ;;		Unchanged: 0/0
  2572 ;; Data sizes:     COMRAM   BANK0   BANK1   BANK2   BANK3   BANK4   BANK5   BANK6   BANK7   BANK8   BANK9  BANK10  BANK1
      +1  BANK12  BANK13  BANK14  BANK15
  2573 ;;      Params:         1       0       0       0       0       0       0       0       0       0       0       0       
      +0       0       0       0       0
  2574 ;;      Locals:         2       0       0       0       0       0       0       0       0       0       0       0       
      +0       0       0       0       0
  2575 ;;      Temps:          1       0       0       0       0       0       0       0       0       0       0       0       
      +0       0       0       0       0
  2576 ;;      Totals:         4       0       0       0       0       0       0       0       0       0       0       0       
      +0       0       0       0       0
  2577 ;;Total ram usage:        4 bytes
  2578 ;; Hardware stack levels used: 1
  2579 ;; Hardware stack levels required when called: 1
  2580 ;; This function calls:
  2581 ;;		_gpio_pin_toggle_logic
  2582 ;; This function is called by:
  2583 ;;		_f
  2584 ;; This function uses a non-reentrant model
  2585 ;;
  2586                           
  2587                           	psect	text17
  2588   0017A2                     __ptext17:
  2589                           	callstack 0
  2590   0017A2                     _led_toggle_status:
  2591                           	callstack 22
  2592   0017A2                     
  2593                           ;ECU_LAYER/Led/ecu_led.c: 88:     Std_ReturnType ret = (Std_ReturnType)0X01;
  2594   0017A2  0E01               	movlw	1
  2595   0017A4  6E36               	movwf	led_toggle_status@ret^0,c
  2596                           
  2597                           ;ECU_LAYER/Led/ecu_led.c: 89:     if (((void*)0) == Led) {
  2598   0017A6  5034               	movf	led_toggle_status@Led^0,w,c
  2599   0017A8  A4D8               	btfss	status,2,c
  2600   0017AA  EFD9  F00B         	goto	i2u169_41
  2601   0017AE  EFDB  F00B         	goto	i2u169_40
  2602   0017B2                     i2u169_41:
  2603   0017B2  EFDF  F00B         	goto	i2l272
  2604   0017B6                     i2u169_40:
  2605   0017B6                     
  2606                           ;ECU_LAYER/Led/ecu_led.c: 90:         ret = (Std_ReturnType)0X00;
  2607   0017B6  0E00               	movlw	0
  2608   0017B8  6E36               	movwf	led_toggle_status@ret^0,c
  2609                           
  2610                           ;ECU_LAYER/Led/ecu_led.c: 91:     } else {
  2611   0017BA  EF09  F00C         	goto	i2l2814
  2612   0017BE                     i2l272:
  2613                           
  2614                           ;ECU_LAYER/Led/ecu_led.c: 93:         pin_config_t pin_obj = {
  2615   0017BE  C067  F037         	movff	led_toggle_status@F3497,led_toggle_status@pin_obj
  2616   0017C2  5034               	movf	led_toggle_status@Led^0,w,c
  2617   0017C4  6ED9               	movwf	fsr2l,c
  2618   0017C6  6ADA               	clrf	fsr2h,c
  2619   0017C8  50DF               	movf	223,w,c
  2620   0017CA  0B07               	andlw	7
  2621   0017CC  6E35               	movwf	??_led_toggle_status^0,c
  2622   0017CE  5037               	movf	led_toggle_status@pin_obj^0,w,c
  2623   0017D0  1835               	xorwf	??_led_toggle_status^0,w,c
  2624   0017D2  0BF8               	andlw	-8
  2625   0017D4  1835               	xorwf	??_led_toggle_status^0,w,c
  2626   0017D6  6E37               	movwf	led_toggle_status@pin_obj^0,c
  2627   0017D8  5034               	movf	led_toggle_status@Led^0,w,c
  2628   0017DA  6ED9               	movwf	fsr2l,c
  2629   0017DC  6ADA               	clrf	fsr2h,c
  2630   0017DE  30DF               	rrcf	223,w,c
  2631   0017E0  32E8               	rrcf	wreg,f,c
  2632   0017E2  32E8               	rrcf	wreg,f,c
  2633   0017E4  0B07               	andlw	7
  2634   0017E6  6E35               	movwf	??_led_toggle_status^0,c
  2635   0017E8  4635               	rlncf	??_led_toggle_status^0,f,c
  2636   0017EA  4635               	rlncf	??_led_toggle_status^0,f,c
  2637   0017EC  4635               	rlncf	??_led_toggle_status^0,f,c
  2638   0017EE  5037               	movf	led_toggle_status@pin_obj^0,w,c
  2639   0017F0  1835               	xorwf	??_led_toggle_status^0,w,c
  2640   0017F2  0BC7               	andlw	-57
  2641   0017F4  1835               	xorwf	??_led_toggle_status^0,w,c
  2642   0017F6  6E37               	movwf	led_toggle_status@pin_obj^0,c
  2643   0017F8  9C37               	bcf	led_toggle_status@pin_obj^0,6,c
  2644   0017FA  5034               	movf	led_toggle_status@Led^0,w,c
  2645   0017FC  6ED9               	movwf	fsr2l,c
  2646   0017FE  6ADA               	clrf	fsr2h,c
  2647   001800  ACDF               	btfss	indf2,6,c
  2648   001802  D002               	bra	i2u170_45
  2649   001804  8E37               	bsf	led_toggle_status@pin_obj^0,7,c
  2650   001806  D001               	bra	i2u170_47
  2651   001808                     i2u170_45:
  2652   001808  9E37               	bcf	led_toggle_status@pin_obj^0,7,c
  2653   00180A                     i2u170_47:
  2654   00180A                     
  2655                           ;ECU_LAYER/Led/ecu_led.c: 99:         gpio_pin_toggle_logic(&pin_obj);
  2656   00180A  0E37               	movlw	low led_toggle_status@pin_obj
  2657   00180C  6E2F               	movwf	gpio_pin_toggle_logic@_pin_config^0,c
  2658   00180E  EC56  F00B         	call	_gpio_pin_toggle_logic	;wreg free
  2659   001812                     i2l2814:
  2660                           
  2661                           ;ECU_LAYER/Led/ecu_led.c: 101:     return ret;
  2662   001812  5036               	movf	led_toggle_status@ret^0,w,c
  2663   001814  0012               	return		;funcret
  2664   001816                     __end_of_led_toggle_status:
  2665                           	callstack 0
  2666                           
  2667 ;; *************** function _gpio_pin_toggle_logic *****************
  2668 ;; Defined at:
  2669 ;;		line 91 in file "MCAL_Layer/GPIO/hal_gpio.c"
  2670 ;; Parameters:    Size  Location     Type
  2671 ;;  _pin_config     1    0[COMRAM] PTR const struct .
  2672 ;;		 -> led_toggle_status@pin_obj(1), 
  2673 ;; Auto vars:     Size  Location     Type
  2674 ;;  ret             1    0        unsigned char 
  2675 ;; Return value:  Size  Location     Type
  2676 ;;                  1    wreg      unsigned char 
  2677 ;; Registers used:
  2678 ;;		wreg, fsr2l, fsr2h, status,2, status,0, prodl, prodh
  2679 ;; Tracked objects:
  2680 ;;		On entry : 0/0
  2681 ;;		On exit  : 0/0
  2682 ;;		Unchanged: 0/0
  2683 ;; Data sizes:     COMRAM   BANK0   BANK1   BANK2   BANK3   BANK4   BANK5   BANK6   BANK7   BANK8   BANK9  BANK10  BANK1
      +1  BANK12  BANK13  BANK14  BANK15
  2684 ;;      Params:         1       0       0       0       0       0       0       0       0       0       0       0       
      +0       0       0       0       0
  2685 ;;      Locals:         0       0       0       0       0       0       0       0       0       0       0       0       
      +0       0       0       0       0
  2686 ;;      Temps:          4       0       0       0       0       0       0       0       0       0       0       0       
      +0       0       0       0       0
  2687 ;;      Totals:         5       0       0       0       0       0       0       0       0       0       0       0       
      +0       0       0       0       0
  2688 ;;Total ram usage:        5 bytes
  2689 ;; Hardware stack levels used: 1
  2690 ;; This function calls:
  2691 ;;		Nothing
  2692 ;; This function is called by:
  2693 ;;		_led_toggle_status
  2694 ;; This function uses a non-reentrant model
  2695 ;;
  2696                           
  2697                           	psect	text18
  2698   0016AC                     __ptext18:
  2699                           	callstack 0
  2700   0016AC                     _gpio_pin_toggle_logic:
  2701                           	callstack 22
  2702   0016AC                     
  2703                           ;MCAL_Layer/GPIO/hal_gpio.c: 93:     if (((void*)0) == _pin_config || _pin_config->pin >
      +                           8 - 1) {
  2704   0016AC  502F               	movf	gpio_pin_toggle_logic@_pin_config^0,w,c
  2705   0016AE  B4D8               	btfsc	status,2,c
  2706   0016B0  EF5C  F00B         	goto	i2u158_41
  2707   0016B4  EF5E  F00B         	goto	i2u158_40
  2708   0016B8                     i2u158_41:
  2709   0016B8  EF6E  F00B         	goto	i2l2762
  2710   0016BC                     i2u158_40:
  2711   0016BC  502F               	movf	gpio_pin_toggle_logic@_pin_config^0,w,c
  2712   0016BE  6ED9               	movwf	fsr2l,c
  2713   0016C0  6ADA               	clrf	fsr2h,c
  2714   0016C2  30DF               	rrcf	223,w,c
  2715   0016C4  32E8               	rrcf	wreg,f,c
  2716   0016C6  32E8               	rrcf	wreg,f,c
  2717   0016C8  0B07               	andlw	7
  2718   0016CA  6E30               	movwf	??_gpio_pin_toggle_logic^0,c
  2719   0016CC  0E07               	movlw	7
  2720   0016CE  6430               	cpfsgt	??_gpio_pin_toggle_logic^0,c
  2721   0016D0  EF6C  F00B         	goto	i2u159_41
  2722   0016D4  EF6E  F00B         	goto	i2u159_40
  2723   0016D8                     i2u159_41:
  2724   0016D8  EF70  F00B         	goto	i2l2764
  2725   0016DC                     i2u159_40:
  2726   0016DC                     i2l2762:
  2727                           
  2728                           ;MCAL_Layer/GPIO/hal_gpio.c: 95:     } else {
  2729   0016DC  EF96  F00B         	goto	i2l401
  2730   0016E0                     i2l2764:
  2731                           
  2732                           ;MCAL_Layer/GPIO/hal_gpio.c: 96:         (*lat_registers[_pin_config->port] ^= ((uint8)1
      +                           << _pin_config->pin));
  2733   0016E0  502F               	movf	gpio_pin_toggle_logic@_pin_config^0,w,c
  2734   0016E2  6ED9               	movwf	fsr2l,c
  2735   0016E4  6ADA               	clrf	fsr2h,c
  2736   0016E6  30DF               	rrcf	223,w,c
  2737   0016E8  32E8               	rrcf	wreg,f,c
  2738   0016EA  32E8               	rrcf	wreg,f,c
  2739   0016EC  0B07               	andlw	7
  2740   0016EE  6E30               	movwf	??_gpio_pin_toggle_logic^0,c
  2741   0016F0  0E01               	movlw	1
  2742   0016F2  6E31               	movwf	(??_gpio_pin_toggle_logic+1)^0,c
  2743   0016F4  2A30               	incf	??_gpio_pin_toggle_logic^0,f,c
  2744   0016F6  EF7F  F00B         	goto	i2u160_44
  2745   0016FA                     i2u160_45:
  2746   0016FA  90D8               	bcf	status,0,c
  2747   0016FC  3631               	rlcf	(??_gpio_pin_toggle_logic+1)^0,f,c
  2748   0016FE                     i2u160_44:
  2749   0016FE  2E30               	decfsz	??_gpio_pin_toggle_logic^0,f,c
  2750   001700  EF7D  F00B         	goto	i2u160_45
  2751   001704  502F               	movf	gpio_pin_toggle_logic@_pin_config^0,w,c
  2752   001706  6ED9               	movwf	fsr2l,c
  2753   001708  6ADA               	clrf	fsr2h,c
  2754   00170A  50DF               	movf	223,w,c
  2755   00170C  0B07               	andlw	7
  2756   00170E  0D02               	mullw	2
  2757   001710  50F3               	movf	243,w,c
  2758   001712  0F0B               	addlw	low _lat_registers
  2759   001714  6ED9               	movwf	fsr2l,c
  2760   001716  6ADA               	clrf	fsr2h,c
  2761   001718  CFDE F032          	movff	postinc2,??_gpio_pin_toggle_logic+2
  2762   00171C  CFDD F033          	movff	postdec2,??_gpio_pin_toggle_logic+3
  2763   001720  C032  FFD9         	movff	??_gpio_pin_toggle_logic+2,fsr2l
  2764   001724  C033  FFDA         	movff	??_gpio_pin_toggle_logic+3,fsr2h
  2765   001728  5031               	movf	(??_gpio_pin_toggle_logic+1)^0,w,c
  2766   00172A  1ADF               	xorwf	indf2,f,c
  2767   00172C                     i2l401:
  2768   00172C  0012               	return		;funcret
  2769   00172E                     __end_of_gpio_pin_toggle_logic:
  2770                           	callstack 0
  2771                           
  2772 ;; *************** function _INT2_ISR *****************
  2773 ;; Defined at:
  2774 ;;		line 466 in file "MCAL_LAYER/Interrupt/mcal_external_interrupt.c"
  2775 ;; Parameters:    Size  Location     Type
  2776 ;;		None
  2777 ;; Auto vars:     Size  Location     Type
  2778 ;;		None
  2779 ;; Return value:  Size  Location     Type
  2780 ;;                  1    wreg      void 
  2781 ;; Registers used:
  2782 ;;		None
  2783 ;; Tracked objects:
  2784 ;;		On entry : 0/0
  2785 ;;		On exit  : 0/0
  2786 ;;		Unchanged: 0/0
  2787 ;; Data sizes:     COMRAM   BANK0   BANK1   BANK2   BANK3   BANK4   BANK5   BANK6   BANK7   BANK8   BANK9  BANK10  BANK1
      +1  BANK12  BANK13  BANK14  BANK15
  2788 ;;      Params:         0       0       0       0       0       0       0       0       0       0       0       0       
      +0       0       0       0       0
  2789 ;;      Locals:         0       0       0       0       0       0       0       0       0       0       0       0       
      +0       0       0       0       0
  2790 ;;      Temps:          0       0       0       0       0       0       0       0       0       0       0       0       
      +0       0       0       0       0
  2791 ;;      Totals:         0       0       0       0       0       0       0       0       0       0       0       0       
      +0       0       0       0       0
  2792 ;;Total ram usage:        0 bytes
  2793 ;; Hardware stack levels used: 1
  2794 ;; This function calls:
  2795 ;;		Nothing
  2796 ;; This function is called by:
  2797 ;;		_Interrupt_Manager_High
  2798 ;; This function uses a non-reentrant model
  2799 ;;
  2800                           
  2801                           	psect	text19
  2802   001A58                     __ptext19:
  2803                           	callstack 0
  2804   001A58                     _INT2_ISR:
  2805                           	callstack 25
  2806   001A58                     
  2807                           ;MCAL_LAYER/Interrupt/mcal_external_interrupt.c: 467:     (INTCON3bits.INT2IF = 0);
  2808   001A58  92F0               	bcf	240,1,c	;volatile
  2809   001A5A  0012               	return		;funcret
  2810   001A5C                     __end_of_INT2_ISR:
  2811                           	callstack 0
  2812                           
  2813 ;; *************** function _INT1_ISR *****************
  2814 ;; Defined at:
  2815 ;;		line 460 in file "MCAL_LAYER/Interrupt/mcal_external_interrupt.c"
  2816 ;; Parameters:    Size  Location     Type
  2817 ;;		None
  2818 ;; Auto vars:     Size  Location     Type
  2819 ;;		None
  2820 ;; Return value:  Size  Location     Type
  2821 ;;                  1    wreg      void 
  2822 ;; Registers used:
  2823 ;;		None
  2824 ;; Tracked objects:
  2825 ;;		On entry : 0/0
  2826 ;;		On exit  : 0/0
  2827 ;;		Unchanged: 0/0
  2828 ;; Data sizes:     COMRAM   BANK0   BANK1   BANK2   BANK3   BANK4   BANK5   BANK6   BANK7   BANK8   BANK9  BANK10  BANK1
      +1  BANK12  BANK13  BANK14  BANK15
  2829 ;;      Params:         0       0       0       0       0       0       0       0       0       0       0       0       
      +0       0       0       0       0
  2830 ;;      Locals:         0       0       0       0       0       0       0       0       0       0       0       0       
      +0       0       0       0       0
  2831 ;;      Temps:          0       0       0       0       0       0       0       0       0       0       0       0       
      +0       0       0       0       0
  2832 ;;      Totals:         0       0       0       0       0       0       0       0       0       0       0       0       
      +0       0       0       0       0
  2833 ;;Total ram usage:        0 bytes
  2834 ;; Hardware stack levels used: 1
  2835 ;; This function calls:
  2836 ;;		Nothing
  2837 ;; This function is called by:
  2838 ;;		_Interrupt_Manager_High
  2839 ;; This function uses a non-reentrant model
  2840 ;;
  2841                           
  2842                           	psect	text20
  2843   001A5C                     __ptext20:
  2844                           	callstack 0
  2845   001A5C                     _INT1_ISR:
  2846                           	callstack 25
  2847   001A5C                     
  2848                           ;MCAL_LAYER/Interrupt/mcal_external_interrupt.c: 461:     (INTCON3bits.INT1IF = 0);
  2849   001A5C  90F0               	bcf	240,0,c	;volatile
  2850   001A5E  0012               	return		;funcret
  2851   001A60                     __end_of_INT1_ISR:
  2852                           	callstack 0
  2853                           
  2854 ;; *************** function _INT0_ISR *****************
  2855 ;; Defined at:
  2856 ;;		line 454 in file "MCAL_LAYER/Interrupt/mcal_external_interrupt.c"
  2857 ;; Parameters:    Size  Location     Type
  2858 ;;		None
  2859 ;; Auto vars:     Size  Location     Type
  2860 ;;		None
  2861 ;; Return value:  Size  Location     Type
  2862 ;;                  1    wreg      void 
  2863 ;; Registers used:
  2864 ;;		None
  2865 ;; Tracked objects:
  2866 ;;		On entry : 0/0
  2867 ;;		On exit  : 0/0
  2868 ;;		Unchanged: 0/0
  2869 ;; Data sizes:     COMRAM   BANK0   BANK1   BANK2   BANK3   BANK4   BANK5   BANK6   BANK7   BANK8   BANK9  BANK10  BANK1
      +1  BANK12  BANK13  BANK14  BANK15
  2870 ;;      Params:         0       0       0       0       0       0       0       0       0       0       0       0       
      +0       0       0       0       0
  2871 ;;      Locals:         0       0       0       0       0       0       0       0       0       0       0       0       
      +0       0       0       0       0
  2872 ;;      Temps:          0       0       0       0       0       0       0       0       0       0       0       0       
      +0       0       0       0       0
  2873 ;;      Totals:         0       0       0       0       0       0       0       0       0       0       0       0       
      +0       0       0       0       0
  2874 ;;Total ram usage:        0 bytes
  2875 ;; Hardware stack levels used: 1
  2876 ;; This function calls:
  2877 ;;		Nothing
  2878 ;; This function is called by:
  2879 ;;		_Interrupt_Manager_High
  2880 ;; This function uses a non-reentrant model
  2881 ;;
  2882                           
  2883                           	psect	text21
  2884   001A60                     __ptext21:
  2885                           	callstack 0
  2886   001A60                     _INT0_ISR:
  2887                           	callstack 25
  2888   001A60                     
  2889                           ;MCAL_LAYER/Interrupt/mcal_external_interrupt.c: 455:     (INTCONbits.INT0IF = 0);
  2890   001A60  92F2               	bcf	242,1,c	;volatile
  2891   001A62  0012               	return		;funcret
  2892   001A64                     __end_of_INT0_ISR:
  2893                           	callstack 0
  2894                           
  2895                           	psect	text22
  2896   000000                     __ptext22:
  2897                           	callstack 0
  2898   000000                     
  2899                           	psect	rparam
  2900   000000                     
  2901                           	psect	temp
  2902   00006B                     btemp:
  2903                           	callstack 0
  2904   00006B                     	ds	1
  2905   000000                     int$flags	set	btemp
  2906   000000                     wtemp8	set	btemp+1
  2907   000000                     ttemp5	set	btemp+1
  2908   000000                     ttemp6	set	btemp+4
  2909   000000                     ttemp7	set	btemp+8
  2910                           
  2911                           	psect	config
  2912                           
  2913                           ; Padding undefined space
  2914   300000                     	org	3145728
  2915   300000  FF                 	db	255
  2916                           
  2917                           ;Config register CONFIG1H @ 0x300001
  2918                           ;	Oscillator Selection bits
  2919                           ;	OSC = HS, HS oscillator
  2920                           ;	Fail-Safe Clock Monitor Enable bit
  2921                           ;	FCMEN = OFF, Fail-Safe Clock Monitor disabled
  2922                           ;	Internal/External Oscillator Switchover bit
  2923                           ;	IESO = OFF, Oscillator Switchover mode disabled
  2924   300001                     	org	3145729
  2925   300001  02                 	db	2
  2926                           
  2927                           ;Config register CONFIG2L @ 0x300002
  2928                           ;	Power-up Timer Enable bit
  2929                           ;	PWRT = OFF, PWRT disabled
  2930                           ;	Brown-out Reset Enable bits
  2931                           ;	BOREN = OFF, Brown-out Reset disabled in hardware and software
  2932                           ;	Brown Out Reset Voltage bits
  2933                           ;	BORV = 1, 
  2934   300002                     	org	3145730
  2935   300002  09                 	db	9
  2936                           
  2937                           ;Config register CONFIG2H @ 0x300003
  2938                           ;	Watchdog Timer Enable bit
  2939                           ;	WDT = OFF, WDT disabled (control is placed on the SWDTEN bit)
  2940                           ;	Watchdog Timer Postscale Select bits
  2941                           ;	WDTPS = 32768, 1:32768
  2942   300003                     	org	3145731
  2943   300003  1E                 	db	30
  2944                           
  2945                           ; Padding undefined space
  2946   300004                     	org	3145732
  2947   300004  FF                 	db	255
  2948                           
  2949                           ;Config register CONFIG3H @ 0x300005
  2950                           ;	CCP2 MUX bit
  2951                           ;	CCP2MX = PORTC, CCP2 input/output is multiplexed with RC1
  2952                           ;	PORTB A/D Enable bit
  2953                           ;	PBADEN = OFF, PORTB<4:0> pins are configured as digital I/O on Reset
  2954                           ;	Low-Power Timer1 Oscillator Enable bit
  2955                           ;	LPT1OSC = OFF, Timer1 configured for higher power operation
  2956                           ;	MCLR Pin Enable bit
  2957                           ;	MCLRE = ON, MCLR pin enabled; RE3 input pin disabled
  2958   300005                     	org	3145733
  2959   300005  81                 	db	129
  2960                           
  2961                           ;Config register CONFIG4L @ 0x300006
  2962                           ;	Stack Full/Underflow Reset Enable bit
  2963                           ;	STVREN = ON, Stack full/underflow will cause Reset
  2964                           ;	Single-Supply ICSP Enable bit
  2965                           ;	LVP = OFF, Single-Supply ICSP disabled
  2966                           ;	Extended Instruction Set Enable bit
  2967                           ;	XINST = OFF, Instruction set extension and Indexed Addressing mode disabled (Legacy mo
      +                          de)
  2968                           ;	Background Debugger Enable bit
  2969                           ;	DEBUG = 0x1, unprogrammed default
  2970   300006                     	org	3145734
  2971   300006  81                 	db	129
  2972                           
  2973                           ; Padding undefined space
  2974   300007                     	org	3145735
  2975   300007  FF                 	db	255
  2976                           
  2977                           ;Config register CONFIG5L @ 0x300008
  2978                           ;	Code Protection bit
  2979                           ;	CP0 = OFF, Block 0 (000800-003FFFh) not code-protected
  2980                           ;	Code Protection bit
  2981                           ;	CP1 = OFF, Block 1 (004000-007FFFh) not code-protected
  2982                           ;	Code Protection bit
  2983                           ;	CP2 = OFF, Block 2 (008000-00BFFFh) not code-protected
  2984                           ;	Code Protection bit
  2985                           ;	CP3 = OFF, Block 3 (00C000-00FFFFh) not code-protected
  2986   300008                     	org	3145736
  2987   300008  0F                 	db	15
  2988                           
  2989                           ;Config register CONFIG5H @ 0x300009
  2990                           ;	Boot Block Code Protection bit
  2991                           ;	CPB = OFF, Boot block (000000-0007FFh) not code-protected
  2992                           ;	Data EEPROM Code Protection bit
  2993                           ;	CPD = OFF, Data EEPROM not code-protected
  2994   300009                     	org	3145737
  2995   300009  C0                 	db	192
  2996                           
  2997                           ;Config register CONFIG6L @ 0x30000A
  2998                           ;	Write Protection bit
  2999                           ;	WRT0 = OFF, Block 0 (000800-003FFFh) not write-protected
  3000                           ;	Write Protection bit
  3001                           ;	WRT1 = OFF, Block 1 (004000-007FFFh) not write-protected
  3002                           ;	Write Protection bit
  3003                           ;	WRT2 = OFF, Block 2 (008000-00BFFFh) not write-protected
  3004                           ;	Write Protection bit
  3005                           ;	WRT3 = OFF, Block 3 (00C000-00FFFFh) not write-protected
  3006   30000A                     	org	3145738
  3007   30000A  0F                 	db	15
  3008                           
  3009                           ;Config register CONFIG6H @ 0x30000B
  3010                           ;	Configuration Register Write Protection bit
  3011                           ;	WRTC = OFF, Configuration registers (300000-3000FFh) not write-protected
  3012                           ;	Boot Block Write Protection bit
  3013                           ;	WRTB = OFF, Boot Block (000000-0007FFh) not write-protected
  3014                           ;	Data EEPROM Write Protection bit
  3015                           ;	WRTD = OFF, Data EEPROM not write-protected
  3016   30000B                     	org	3145739
  3017   30000B  E0                 	db	224
  3018                           
  3019                           ;Config register CONFIG7L @ 0x30000C
  3020                           ;	Table Read Protection bit
  3021                           ;	EBTR0 = OFF, Block 0 (000800-003FFFh) not protected from table reads executed in other
      +                           blocks
  3022                           ;	Table Read Protection bit
  3023                           ;	EBTR1 = OFF, Block 1 (004000-007FFFh) not protected from table reads executed in other
      +                           blocks
  3024                           ;	Table Read Protection bit
  3025                           ;	EBTR2 = OFF, Block 2 (008000-00BFFFh) not protected from table reads executed in other
      +                           blocks
  3026                           ;	Table Read Protection bit
  3027                           ;	EBTR3 = OFF, Block 3 (00C000-00FFFFh) not protected from table reads executed in other
      +                           blocks
  3028   30000C                     	org	3145740
  3029   30000C  0F                 	db	15
  3030                           
  3031                           ;Config register CONFIG7H @ 0x30000D
  3032                           ;	Boot Block Table Read Protection bit
  3033                           ;	EBTRB = OFF, Boot Block (000000-0007FFh) not protected from table reads executed in ot
      +                          her blocks
  3034   30000D                     	org	3145741
  3035   30000D  40                 	db	64
  3036                           tosu	equ	0xFFF
  3037                           tosh	equ	0xFFE
  3038                           tosl	equ	0xFFD
  3039                           stkptr	equ	0xFFC
  3040                           pclatu	equ	0xFFB
  3041                           pclath	equ	0xFFA
  3042                           pcl	equ	0xFF9
  3043                           tblptru	equ	0xFF8
  3044                           tblptrh	equ	0xFF7
  3045                           tblptrl	equ	0xFF6
  3046                           tablat	equ	0xFF5
  3047                           prodh	equ	0xFF4
  3048                           prodl	equ	0xFF3
  3049                           indf0	equ	0xFEF
  3050                           postinc0	equ	0xFEE
  3051                           postdec0	equ	0xFED
  3052                           preinc0	equ	0xFEC
  3053                           plusw0	equ	0xFEB
  3054                           fsr0h	equ	0xFEA
  3055                           fsr0l	equ	0xFE9
  3056                           wreg	equ	0xFE8
  3057                           indf1	equ	0xFE7
  3058                           postinc1	equ	0xFE6
  3059                           postdec1	equ	0xFE5
  3060                           preinc1	equ	0xFE4
  3061                           plusw1	equ	0xFE3
  3062                           fsr1h	equ	0xFE2
  3063                           fsr1l	equ	0xFE1
  3064                           bsr	equ	0xFE0
  3065                           indf2	equ	0xFDF
  3066                           postinc2	equ	0xFDE
  3067                           postdec2	equ	0xFDD
  3068                           preinc2	equ	0xFDC
  3069                           plusw2	equ	0xFDB
  3070                           fsr2h	equ	0xFDA
  3071                           fsr2l	equ	0xFD9
  3072                           status	equ	0xFD8

Data Sizes:
    Strings     3
    Constant    16
    Data        46
    BSS         29
    Persistent  0
    Stack       0

Auto Spaces:
    Space          Size  Autos    Used
    COMRAM          126     31     106
    BANK0           128      0       0
    BANK1           256      0       0
    BANK2           256      0       0
    BANK3           256      0       0
    BANK4           256      0       0
    BANK5           256      0       0
    BANK6           256      0       0
    BANK7           256      0       0
    BANK8           256      0       0
    BANK9           256      0       0
    BANK10          256      0       0
    BANK11          256      0       0
    BANK12          256      0       0
    BANK13          256      0       0
    BANK14          256      0       0
    BANK15          128      0       0

Pointer List with Targets:

    button_intialize@button	PTR const struct . size(1) Largest target is 3
		 -> b(COMRAM[3]), 

    button_read_state@button	PTR const struct . size(1) Largest target is 3
		 -> b(COMRAM[3]), 

    button_read_state@button_state	PTR enum E3462 size(1) Largest target is 1
		 -> s(COMRAM[1]), 

    f$.$buffer	PTR unsigned char  size(2) Largest target is 0

    f$.$source	PTR const unsigned char  size(2) Largest target is 0

    gpio_pin_direction_intialize@_pin_config	PTR const struct . size(1) Largest target is 6
		 -> b(COMRAM[3]), led_intialize@pin_obj(COMRAM[1]), r(COMRAM[6]), Relay_initialize@pin_obj(COMRAM[1]), 

    gpio_pin_initialize@_pin_config	PTR const struct . size(1) Largest target is 3
		 -> b(COMRAM[3]), led_intialize@pin_obj(COMRAM[1]), Relay_initialize@pin_obj(COMRAM[1]), 

    gpio_pin_read_logic@_pin_config	PTR const struct . size(1) Largest target is 3
		 -> b(COMRAM[3]), 

    gpio_pin_read_logic@logic_	PTR enum E3402 size(1) Largest target is 1
		 -> button_read_state@Button_Logic(COMRAM[1]), keypad_get_value@value_pin(COMRAM[1]), 

    gpio_pin_toggle_logic@_pin_config	PTR const struct . size(1) Largest target is 1
		 -> led_toggle_status@pin_obj(COMRAM[1]), 

    gpio_pin_write_logic@_pin_config	PTR const struct . size(1) Largest target is 3
		 -> b(COMRAM[3]), led_intialize@pin_obj(COMRAM[1]), led_turn_off@pin_obj(COMRAM[1]), led_turn_on@pin_obj(COMRAM[1]), 
		 -> Relay_initialize@pin_obj(COMRAM[1]), Relay_off@pin_obj(COMRAM[1]), Relay_on@pin_obj(COMRAM[1]), 

    INT0_Interrupt_Handler	PTR FTN()void  size(2) Largest target is 1
		 -> NULL(), 

    INT1_Interrupt_Handler	PTR FTN()void  size(2) Largest target is 1
		 -> NULL(), 

    INT2_Interrupt_Handler	PTR FTN()void  size(2) Largest target is 1
		 -> NULL(), 

    Interrupt_INTx_Clear_Flag@obj$External_CallBack	PTR FTN()void  size(2) Largest target is 0

    Interrupt_INTx_Disable@obj$External_CallBack	PTR FTN()void  size(2) Largest target is 0

    Interrupt_INTx_Edge_Init@obj$External_CallBack	PTR FTN()void  size(2) Largest target is 0

    Interrupt_INTx_Enable@obj$External_CallBack	PTR FTN()void  size(2) Largest target is 0

    Interrupt_INTx_Pin_Init@obj$External_CallBack	PTR FTN()void  size(2) Largest target is 0

    Interrupt_RBx_Init@obj	PTR const struct . size(1) Largest target is 6
		 -> r(COMRAM[6]), 

    Interrupt_RBx_Init@obj$External_CallBack_High	PTR FTN()void  size(2) Largest target is 1
		 -> f(), 

    Interrupt_RBx_Init@obj$External_CallBack_Low	PTR FTN()void  size(2) Largest target is 1
		 -> NULL(), 

    Interrupt_Set_Interrupt_Handler@obj$External_CallBack	PTR FTN()void  size(2) Largest target is 0

    lat_registers	PTR volatile unsigned char [5] size(2) Largest target is 1
		 -> LATA(BITBIGSFRll[1]), LATB(BITBIGSFRlh[1]), LATC(BITBIGSFRlh[1]), LATD(BITBIGSFRlh[1]), 
		 -> LATE(BITBIGSFRlh[1]), 

    led_intialize@Led	PTR const struct . size(1) Largest target is 1
		 -> led(COMRAM[1]), 

    led_toggle_status@Led	PTR const struct . size(1) Largest target is 1
		 -> led(COMRAM[1]), 

    port_registers	PTR volatile unsigned char [5] size(2) Largest target is 1
		 -> PORTA(BITBIGSFRll[1]), PORTB(BITBIGSFRll[1]), PORTC(BITBIGSFRll[1]), PORTD(BITBIGSFRll[1]), 
		 -> PORTE(BITBIGSFRll[1]), 

    r$External_CallBack_High	PTR FTN()void  size(2) Largest target is 1
		 -> f(), 

    r$External_CallBack_Low	PTR FTN()void  size(2) Largest target is 1
		 -> NULL(), 

    RB4_Interrupt_Handler_High	PTR FTN()void  size(2) Largest target is 1
		 -> f(), NULL(), 

    RB4_Interrupt_Handler_Low	PTR FTN()void  size(2) Largest target is 1
		 -> NULL(), 

    RB5_Interrupt_Handler_High	PTR FTN()void  size(2) Largest target is 1
		 -> f(), NULL(), 

    RB5_Interrupt_Handler_Low	PTR FTN()void  size(2) Largest target is 1
		 -> NULL(), 

    RB6_Interrupt_Handler_High	PTR FTN()void  size(2) Largest target is 1
		 -> f(), NULL(), 

    RB6_Interrupt_Handler_Low	PTR FTN()void  size(2) Largest target is 1
		 -> NULL(), 

    RB7_Interrupt_Handler_High	PTR FTN()void  size(2) Largest target is 1
		 -> f(), NULL(), 

    RB7_Interrupt_Handler_Low	PTR FTN()void  size(2) Largest target is 1
		 -> NULL(), 

    S1900$buffer	PTR unsigned char  size(2) Largest target is 0

    S1900$source	PTR const unsigned char  size(2) Largest target is 0

    S763$External_CallBack	PTR FTN()void  size(2) Largest target is 0

    S796$External_CallBack_High	PTR FTN()void  size(2) Largest target is 1
		 -> f(), 

    S796$External_CallBack_Low	PTR FTN()void  size(2) Largest target is 1
		 -> NULL(), 

    sp__memset	PTR void  size(2) Largest target is 0

    tris_registers	PTR volatile unsigned char [5] size(2) Largest target is 1
		 -> TRISA(BITBIGSFRll[1]), TRISB(BITBIGSFRhllll[1]), TRISC(BITBIGSFRhllll[1]), TRISD(BITBIGSFRhllll[1]), 
		 -> TRISE(BITBIGSFRhllll[1]), 

    vfprintf$0	PTR struct _IO_FILE size(1) Largest target is 12
		 -> sprintf@f(COMRAM[12]), 

    vfprintf$1	PTR const unsigned char  size(1) Largest target is 3
		 -> STR_1(CODE[3]), STR_2(CODE[3]), STR_3(CODE[3]), 

    vfprintf$2	PTR PTR void  size(1) Largest target is 1
		 -> sprintf@ap(COMRAM[1]), 


Critical Paths under _main in COMRAM

    _button_read_state->_gpio_pin_read_logic
    _Application_initialize->_led_intialize
    _led_intialize->_gpio_pin_initialize
    _button_intialize->_gpio_pin_initialize
    _gpio_pin_initialize->_gpio_pin_write_logic
    _Interrupt_RBx_Init->_gpio_pin_direction_intialize

Critical Paths under _Interrupt_Manager_High in COMRAM

    _Interrupt_Manager_High->_RB4_ISR
    _Interrupt_Manager_High->_RB5_ISR
    _Interrupt_Manager_High->_RB6_ISR
    _Interrupt_Manager_High->_RB7_ISR
    _f->_led_toggle_status
    _led_toggle_status->_gpio_pin_toggle_logic

Critical Paths under _main in BANK0

    None.

Critical Paths under _Interrupt_Manager_High in BANK0

    None.

Critical Paths under _main in BANK1

    None.

Critical Paths under _Interrupt_Manager_High in BANK1

    None.

Critical Paths under _main in BANK2

    None.

Critical Paths under _Interrupt_Manager_High in BANK2

    None.

Critical Paths under _main in BANK3

    None.

Critical Paths under _Interrupt_Manager_High in BANK3

    None.

Critical Paths under _main in BANK4

    None.

Critical Paths under _Interrupt_Manager_High in BANK4

    None.

Critical Paths under _main in BANK5

    None.

Critical Paths under _Interrupt_Manager_High in BANK5

    None.

Critical Paths under _main in BANK6

    None.

Critical Paths under _Interrupt_Manager_High in BANK6

    None.

Critical Paths under _main in BANK7

    None.

Critical Paths under _Interrupt_Manager_High in BANK7

    None.

Critical Paths under _main in BANK8

    None.

Critical Paths under _Interrupt_Manager_High in BANK8

    None.

Critical Paths under _main in BANK9

    None.

Critical Paths under _Interrupt_Manager_High in BANK9

    None.

Critical Paths under _main in BANK10

    None.

Critical Paths under _Interrupt_Manager_High in BANK10

    None.

Critical Paths under _main in BANK11

    None.

Critical Paths under _Interrupt_Manager_High in BANK11

    None.

Critical Paths under _main in BANK12

    None.

Critical Paths under _Interrupt_Manager_High in BANK12

    None.

Critical Paths under _main in BANK13

    None.

Critical Paths under _Interrupt_Manager_High in BANK13

    None.

Critical Paths under _main in BANK14

    None.

Critical Paths under _Interrupt_Manager_High in BANK14

    None.

Critical Paths under _main in BANK15

    None.

Critical Paths under _Interrupt_Manager_High in BANK15

    None.

Call Graph Tables:

 ---------------------------------------------------------------------------------
 (Depth) Function   	        Calls       Base Space   Used Autos Params    Refs
 ---------------------------------------------------------------------------------
 (0) _main                                                 0     0      0   15399
             _Application_initialize
                  _button_read_state
 ---------------------------------------------------------------------------------
 (1) _button_read_state                                    5     3      2     903
                                             23 COMRAM     5     3      2
                _gpio_pin_read_logic
 ---------------------------------------------------------------------------------
 (2) _gpio_pin_read_logic                                  7     5      2     460
                                             16 COMRAM     7     5      2
 ---------------------------------------------------------------------------------
 (1) _Application_initialize                               0     0      0   14496
                 _Interrupt_RBx_Init
                   _button_intialize
               _ecu_layer_initialize
                      _led_intialize
 ---------------------------------------------------------------------------------
 (2) _led_intialize                                        4     3      1    6952
                                             27 COMRAM     4     3      1
                _gpio_pin_initialize
 ---------------------------------------------------------------------------------
 (2) _ecu_layer_initialize                                 1     1      0       0
 ---------------------------------------------------------------------------------
 (2) _button_intialize                                     2     1      1    6869
                                             27 COMRAM     2     1      1
                _gpio_pin_initialize
 ---------------------------------------------------------------------------------
 (3) _gpio_pin_initialize                                  3     2      1    6724
                                             24 COMRAM     3     2      1
       _gpio_pin_direction_intialize
               _gpio_pin_write_logic
 ---------------------------------------------------------------------------------
 (4) _gpio_pin_write_logic                                 8     6      2    4891
                                             16 COMRAM     8     6      2
 ---------------------------------------------------------------------------------
 (2) _Interrupt_RBx_Init                                   4     3      1     675
                                             23 COMRAM     4     3      1
       _gpio_pin_direction_intialize
 ---------------------------------------------------------------------------------
 (4) _gpio_pin_direction_intialize                         7     6      1     331
                                             16 COMRAM     7     6      1
 ---------------------------------------------------------------------------------
 Estimated maximum stack depth 4
 ---------------------------------------------------------------------------------
 (Depth) Function   	        Calls       Base Space   Used Autos Params    Refs
 ---------------------------------------------------------------------------------
 (5) _Interrupt_Manager_High                               6     6      0    1736
                                             10 COMRAM     6     6      0
                           _INT0_ISR
                           _INT1_ISR
                           _INT2_ISR
                            _RB4_ISR
                            _RB5_ISR
                            _RB6_ISR
                            _RB7_ISR
 ---------------------------------------------------------------------------------
 (6) _RB7_ISR                                              1     1      0     434
                                              9 COMRAM     1     1      0
                                NULL *
                                  _f *
 ---------------------------------------------------------------------------------
 (6) _RB6_ISR                                              1     1      0     434
                                              9 COMRAM     1     1      0
                                NULL *
                                  _f *
 ---------------------------------------------------------------------------------
 (6) _RB5_ISR                                              1     1      0     434
                                              9 COMRAM     1     1      0
                                NULL *
                                  _f *
 ---------------------------------------------------------------------------------
 (6) _RB4_ISR                                              1     1      0     434
                                              9 COMRAM     1     1      0
                                NULL *
                                  _f *
 ---------------------------------------------------------------------------------
 (7) _f                                                    0     0      0     390
                  _led_toggle_status
 ---------------------------------------------------------------------------------
 (8) _led_toggle_status                                    4     3      1     390
                                              5 COMRAM     4     3      1
              _gpio_pin_toggle_logic
 ---------------------------------------------------------------------------------
 (9) _gpio_pin_toggle_logic                                6     5      1     172
                                              0 COMRAM     5     4      1
 ---------------------------------------------------------------------------------
 (7) NULL(Fake)                                            0     0      0       0
 ---------------------------------------------------------------------------------
 (6) _INT2_ISR                                             0     0      0       0
 ---------------------------------------------------------------------------------
 (6) _INT1_ISR                                             0     0      0       0
 ---------------------------------------------------------------------------------
 (6) _INT0_ISR                                             0     0      0       0
 ---------------------------------------------------------------------------------
 Estimated maximum stack depth 9
 ---------------------------------------------------------------------------------

 Call Graph Graphs:

 _main (ROOT)
   _Application_initialize
     _Interrupt_RBx_Init
       _gpio_pin_direction_intialize
     _button_intialize
       _gpio_pin_initialize
         _gpio_pin_direction_intialize
         _gpio_pin_write_logic
     _ecu_layer_initialize
     _led_intialize
       _gpio_pin_initialize
   _button_read_state
     _gpio_pin_read_logic

 _Interrupt_Manager_High (ROOT)
   _INT0_ISR
   _INT1_ISR
   _INT2_ISR
   _RB4_ISR
     NULL(Fake) *
     _f *
       _led_toggle_status
         _gpio_pin_toggle_logic
   _RB5_ISR
     NULL(Fake) *
     _f *
   _RB6_ISR
     NULL(Fake) *
     _f *
   _RB7_ISR
     NULL(Fake) *
     _f *

 Address spaces:
Name               Size   Autos  Total    Cost      Usage
BIGRAM             F7F      0       0      42        0.0%
EEDATA             400      0       0       0        0.0%
BITBANK14          100      0       0      32        0.0%
BANK14             100      0       0      33        0.0%
BITBANK13          100      0       0      30        0.0%
BANK13             100      0       0      31        0.0%
BITBANK12          100      0       0      28        0.0%
BANK12             100      0       0      29        0.0%
BITBANK11          100      0       0      26        0.0%
BANK11             100      0       0      27        0.0%
BITBANK10          100      0       0      24        0.0%
BANK10             100      0       0      25        0.0%
BITBANK9           100      0       0      22        0.0%
BANK9              100      0       0      23        0.0%
BITBANK8           100      0       0      20        0.0%
BANK8              100      0       0      21        0.0%
BITBANK7           100      0       0      18        0.0%
BANK7              100      0       0      19        0.0%
BITBANK6           100      0       0      16        0.0%
BANK6              100      0       0      17        0.0%
BITBANK5           100      0       0      14        0.0%
BANK5              100      0       0      15        0.0%
BITBANK4           100      0       0      12        0.0%
BANK4              100      0       0      13        0.0%
BITBANK3           100      0       0      10        0.0%
BANK3              100      0       0      11        0.0%
BITBANK2           100      0       0       8        0.0%
BANK2              100      0       0       9        0.0%
BITBANK1           100      0       0       6        0.0%
BANK1              100      0       0       7        0.0%
BITBANK15           80      0       0      34        0.0%
BANK15              80      0       0      35        0.0%
BITBANK0            80      0       0       4        0.0%
BANK0               80      0       0       5        0.0%
BITCOMRAM           7E      0       0       0        0.0%
COMRAM              7E     1F      6A       1       84.1%
BITBIGSFRhllh       45      0       0      37        0.0%
BITBIGSFRhllll       F      0       0      38        0.0%
BITBIGSFRhh          D      0       0      36        0.0%
BITBIGSFRlh          4      0       0      39        0.0%
BITBIGSFRll          4      0       0      40        0.0%
BIGSFR               0      0       0     200        0.0%
BITSFR               0      0       0     200        0.0%
SFR                  0      0       0     200        0.0%
STACK                0      0       0       2        0.0%
NULL                 0      0       0       0        0.0%
ABS                  0      0      6A      41        0.0%
DATA                 0      0      6A       3        0.0%
CODE                 0      0       0       0        0.0%


Microchip Technology PIC18 Macro Assembler V2.45 build 20230818022343 
Symbol Table                                                                                   Thu Feb 15 10:00:25 2024

                          _led_intialize 172E                                        l9 1A0C  
                                      _b 002A                                        _f 1A4C  
                                      _r 0024                                        _s 002D  
                ?_Interrupt_Manager_High 002F                                       ?_f 002F  
                                     l23 1606                     ??_Interrupt_RBx_Init 0047  
                                    ??_f 0038                                      l320 1A64  
                                    l251 174A                                      l501 1444  
                                    l255 17A0                                      l408 1872  
                                    l368 132C                                      l712 1A30  
                                    l394 16AA                                      l387 1554  
                                    l492 1346                                      l496 1440  
                                    _led 002E                                      _ret 001F  
                                    tosl 0FFD                                      wreg 0FE8  
                        __end_of_RB4_ISR 1984                          __end_of_RB5_ISR 1940  
                        __end_of_RB6_ISR 18FC                          __end_of_RB7_ISR 18B8  
          button_read_state@Button_Logic 004A                                     l3002 1604  
                                   l3150 1A12                                     l1632 1A64  
                                   l3152 1A1C                                     l3154 1A26  
                                   l3148 1A0E                                     l2740 1482  
                                   l2820 19F8                                     l2742 14D2  
                                   l2750 1552                                     l2734 1446  
                                   l2822 1A00                                     l2830 161C  
                                   l3712 153C                                     l2736 145A  
                                   l2824 1A0A                                     l2832 162C  
                                   l2770 121C                                     l3714 141A  
                                   l2738 147A                                     l2818 19E8  
                                   l2930 1784                                     l2834 164C  
                                   l3716 1314                                     l2780 12EA  
                                   l2772 123C                                     l2940 132E  
                                   l2748 1528                                     l2932 1786  
                                   l2924 172E                                     l2836 1654  
                                   l2828 1608                                     l2774 1244  
                                   l2782 132A                                     l2950 1382  
                                   l2942 133E                                     l2790 1816  
                                   l2934 1796                                     l2926 1742  
                                   l2838 16A8                                     l2776 129A  
                                   l2768 1208                                     l2960 13D8  
                                   l2952 1390                                     l2944 134E  
                                   l2792 182A                                     l2928 174E  
                                   l2936 179E                                     l2962 13EE  
                                   l2954 13A6                                     l2946 135E  
                                   l2794 184A                                     l2956 13B4  
                                   l2948 136C                                     l2796 1852  
                                   l2980 156E                                     l2958 13CA  
                                   l2966 13F6                                     l2798 1870  
                                   l2990 15BC                                     l2982 157E  
                                   l2968 1442                                     l2992 15CA  
                                   l2984 1586                                     l3696 1A32  
                                   l2994 15D6                                     l2986 1592  
                                   l2978 1556                                     l3698 1A36  
                                   l2996 15F0                                     l2988 15AC  
                                   STR_1 1011                                     _LATA 0F89  
                                   _LATB 0F8A                                     _LATC 0F8B  
                                   _LATD 0F8C                                     _LATE 0F8D  
                                   u1610 121C                                     u1611 1218  
                                   u1620 123C                                     u1540 145A  
                                   u1621 1238                                     u1541 1456  
                                   u1550 147A                                     u1710 19F8  
                                   u1551 1476                                     u1711 19F4  
                                   u1720 161C                                     u1721 1618  
                                   u1650 1300                                     u1634 1262  
                                   u1730 162C                                     u1651 12FA  
                                   u1635 125E                                     u1731 1628  
                                   u1660 1302                                     u1644 12B8  
                                   u1564 14A0                                     u1820 1742  
                                   u1740 164C                                     u1900 1600  
                                   u1645 12B4                                     u1565 149C  
                                   u1821 173E                                     u1741 1648  
                                   u1901 15FC                                     u1574 14F0  
                                   u1670 182A                                     u1575 14EC  
                                   u1671 1826                                     u1840 133E  
                                   u1680 184A                                     u1841 133A  
                                   u1681 1846                                     u1754 169C  
                                   u1850 156E                                     u1835 1794  
                                   u1755 1698                                     u1851 156A  
                                   u1860 157E                                     u1837 1796  
                                   u1861 157A                                     u1870 15AC  
                                   u1871 15A8                                     u1880 15BC  
                                   u1881 15B8                                     u1890 15F0  
                                   u1891 15EC           gpio_pin_read_logic@_pin_config 003F  
                                   _main 1A32                                     fp__f 0000  
                                   fsr1h 0FE2                                     fsr2h 0FDA  
                                   indf1 0FE7                                     indf2 0FDF  
                                   fsr1l 0FE1                                     fsr2l 0FD9  
                                   btemp 006B                                     prodh 0FF4  
                                   prodl 0FF3                                     start 000E  
                         ?_led_intialize 004A           __end_of_Interrupt_Manager_High 1208  
                           ___param_bank 0000                   ?_gpio_pin_toggle_logic 002F  
                   _gpio_pin_write_logic 1446                         __end_of_INT0_ISR 1A64  
                       __end_of_INT1_ISR 1A60                         __end_of_INT2_ISR 1A5C  
                          Relay_on@F3485 0065                                    ?_main 002F  
                                  _EEADR 0FA9                                    i2l401 172C  
                                  _RB4_f 0023                                    i2l272 17BE  
                                  _RB5_f 0022                                    i2l276 1814  
                                  _RB6_f 0021                                    i2l605 1982  
                                  i2l613 193E                                    i2l621 18FA  
                                  _RB7_f 0020                                    i2l629 18B6  
                                  i2l593 1A5E                                    i2l674 11EC  
                                  i2l589 1A62                                    i2l597 1A5A  
                                  i2l697 1A56                                    _PORTA 0F80  
                                  _PORTB 0F81                                    _PORTC 0F82  
                                  _PORTD 0F83                                    _PORTE 0F84  
                                  _TRISA 0F92                                    _TRISB 0F93  
                                  _TRISC 0F94                                    _TRISD 0F95  
                                  _TRISE 0F96                        ?_button_intialize 004A  
                     ??_button_intialize 004B                                    pclath 0FFA  
                                  pclatu 0FFB                                    tablat 0FF5  
                                  ttemp5 006C                                    ttemp6 006F  
                                  ttemp7 0073                                    status 0FD8  
                                  wtemp8 006C                          __initialization 1984  
          button_read_state@button_state 0047                             __end_of_main 1A4C  
                  ?_gpio_pin_write_logic 003F                            _lat_registers 000B  
                                 ??_main 004E                            __activetblptr 0003  
                       led_turn_on@F3487 0069                                ??_RB4_ISR 0038  
                              ??_RB5_ISR 0038                                ??_RB6_ISR 0038  
                              ??_RB7_ISR 0038                        _button_read_state 1556  
                                 _EEADRH 0FAA                                   _EEDATA 0FA8  
                                 _EECON2 0FA7                                   i2l3100 1942  
                                 i2l3102 1944                                   i2l3104 1954  
                                 i2l3120 193E                                   i2l3112 18FE  
                                 i2l3106 1966                                   i2l3114 1900  
                                 i2l3130 18DE                                   i2l3108 1982  
                                 i2l3116 1910                                   i2l3132 18FA  
                                 i2l3124 18BA                                   i2l3140 1888  
                                 i2l3118 1922                                   i2l3126 18BC  
                                 i2l3142 189A                                   i2l3128 18CC  
                                 i2l3144 18B6                                   i2l3136 1876  
                                 i2l3138 1878                                   i2l1834 1A60  
                                 i2l1842 1A58                                   i2l2810 17FA  
                                 i2l2802 17A2                                   i2l3610 1030  
                                 i2l2812 180A                                   i2l2804 17B6  
                                 i2l3620 106C                                   i2l3612 103E  
                                 i2l1838 1A5C                                   i2l2806 17C2  
                                 i2l2814 1812                                   i2l3630 109E  
                                 i2l3622 1070                                   i2l3614 104C  
                                 i2l2760 16BC                                   i2l2808 17F8  
                                 i2l3640 10D4                                   i2l3632 10AC  
                                 i2l3624 107E                                   i2l3616 1050  
                                 i2l2762 16DC                                   i2l3650 110A  
                                 i2l3642 10E2                                   i2l3634 10BA  
                                 i2l3626 108C                                   i2l3618 105E  
                                 i2l2764 16E0                                   i2l3660 1142  
                                 i2l3652 111A                                   i2l3644 10F2  
                                 i2l3636 10CA                                   i2l3628 1090  
                                 i2l2758 16AC                                   i2l3670 116E  
                                 i2l3662 1146                                   i2l3654 111E  
                                 i2l3646 10F6                                   i2l3638 10CE  
                                 i2l3680 119C                                   i2l3672 1174  
                                 i2l3664 114C                                   i2l3656 1124  
                                 i2l3648 10FC                                   i2l3690 11D2  
                                 i2l3682 11AA                                   i2l3674 1182  
                                 i2l3666 115A                                   i2l3658 1132  
                                 i2l3692 11E2                                   i2l3684 11BA  
                                 i2l3676 1192                                   i2l3668 116A  
                                 i2l3694 11E6                                   i2l3686 11BE  
                                 i2l3678 1196                                   i2l2976 1A4C  
                                 i2l3688 11C4                       ?_button_read_state 0046  
       gpio_pin_toggle_logic@_pin_config 002F                          ??_led_intialize 004B  
                         Relay_off@F3490 0064                      ??_button_read_state 0048  
                ?_Application_initialize 002F                         led_intialize@Led 004A  
                       led_intialize@ret 004C                                   clear_0 19AA  
                                 isa$std 0001  gpio_pin_direction_intialize@_pin_config 003F  
                           __pdataCOMRAM 0001                             __mediumconst 0000  
              __end_of_button_read_state 1608                                   tblptrh 0FF7  
                                 tblptrl 0FF6                                   tblptru 0FF8  
                             __accesstop 0080                  __end_of__initialization 19B0  
                              ?_INT0_ISR 002F                                ?_INT1_ISR 002F  
                              ?_INT2_ISR 002F                            ___rparam_used 0001  
                 ??_gpio_pin_write_logic 0041                           __pcstackCOMRAM 002F  
         __end_of_Application_initialize 1A32                            RB4_ISR@source 0038  
             _RB6_Interrupt_Handler_High 0054                            RB5_ISR@source 0038  
              _RB5_Interrupt_Handler_Low 0056                               ??_INT0_ISR 002F  
                             ??_INT1_ISR 002F                               ??_INT2_ISR 002F  
                 _INT2_Interrupt_Handler 005E                  ??_gpio_pin_toggle_logic 0030  
                   button_read_state@ret 0049                            RB6_ISR@source 0038  
                      led_turn_off@F3492 0068                                  _RB4_ISR 1940  
                                _RB5_ISR 18FC                                  _RB6_ISR 18B8  
                                _RB7_ISR 1874                            RB7_ISR@source 0038  
                             _btn_values 1001                           _tris_registers 0015  
                                __Hparam 0000                                  __Lparam 0000  
                   led_intialize@pin_obj 004D                      _gpio_pin_initialize 1816  
                    _gpio_pin_read_logic 1608                             __psmallconst 1000  
                                __pcinit 1984                                  __ramtop 1000  
                                __ptext0 1A32                                  __ptext1 1556  
                                __ptext2 1608                                  __ptext3 1A0E  
                                __ptext4 172E                                  __ptext5 1A64  
                                __ptext6 19E8                                  __ptext7 1816  
                                __ptext8 1446                                  __ptext9 132E  
                   ?_gpio_pin_initialize 0047                     ?_gpio_pin_read_logic 003F  
                         __pintcode_body 1016                     end_of_initialization 19B0  
                                int_func 1016                                  postdec1 0FE5  
                                postdec2 0FDD                                  postinc0 0FEE  
                                postinc1 0FE6                                  postinc2 0FDE  
                              _PORTBbits 0F81                     led_toggle_status@Led 0034  
                   led_toggle_status@ret 0036     __end_of_gpio_pin_direction_intialize 132E  
           _gpio_pin_direction_intialize 1208                    ??_gpio_pin_initialize 0048  
                  ??_gpio_pin_read_logic 0041                 ??_Interrupt_Manager_High 0039  
                  __end_of_led_intialize 17A2                            __pidataCOMRAM 19BA  
                  Interrupt_RBx_Init@obj 0046                    Interrupt_RBx_Init@ret 0049  
                    start_initialization 1984            ?_gpio_pin_direction_intialize 003F  
                       _button_intialize 19E8            __end_of_gpio_pin_toggle_logic 172E  
             _RB5_Interrupt_Handler_High 0058             __end_of_ecu_layer_initialize 1A66  
                      _led_toggle_status 17A2                                 ?_RB4_ISR 002F  
                               ?_RB5_ISR 002F                                 ?_RB6_ISR 002F  
                               ?_RB7_ISR 002F                       ?_led_toggle_status 0034  
                            __pbssCOMRAM 004E                                __end_of_f 1A58  
              _RB6_Interrupt_Handler_Low 0052                      ??_led_toggle_status 0035  
                 _INT0_Interrupt_Handler 0062          gpio_pin_direction_intialize@ret 0045  
                  Relay_initialize@F3480 0066                                __pintcode 0008  
             __end_of_Interrupt_RBx_Init 1446          gpio_pin_write_logic@_pin_config 003F  
              __end_of_led_toggle_status 1816                              __smallconst 1000  
                button_read_state@button 0046           ??_gpio_pin_direction_intialize 0040  
                    button_intialize@ret 004B                                 _INT0_ISR 1A60  
                               _INT1_ISR 1A5C                                 _INT2_ISR 1A58  
               ??_Application_initialize 004E                                 i2u201_40 1954  
                               i2u201_41 1950                                 i2u202_40 1966  
                               i2u210_40 1888                                 i2u202_41 1962  
                               i2u210_41 1884                                 i2u211_40 189A  
                               i2u211_41 1896                                 i2u203_48 196C  
                               i2u204_40 1910                                 i2u203_49 197E  
                               i2u204_41 190C                                 i2u205_40 1922  
                               i2u212_48 18A0                                 i2u205_41 191E  
                               i2u212_49 18B2                                 i2u206_48 1928  
                               i2u207_40 18CC                                 i2u206_49 193A  
                               i2u207_41 18C8                                 i2u208_40 18DE  
                               i2u208_41 18DA                                 i2u160_44 16FE  
                               i2u160_45 16FA                                 i2u209_48 18E4  
                               i2u209_49 18F6                                 i2u170_45 1808  
                               i2u170_47 180A                                 i2u260_40 10BA  
                               i2u252_40 103E                                 i2u260_41 10B6  
                               i2u252_41 103A                                 i2u261_40 10CA  
                               i2u253_40 104C                                 i2u261_41 10C6  
                               i2u253_41 1048                                 i2u158_40 16BC  
                               i2u270_40 1182                                 i2u262_40 10E2  
                               i2u254_40 105E                                 i2u158_41 16B8  
                               i2u270_41 117E                                 i2u262_41 10DE  
                               i2u254_41 105A                                 i2u159_40 16DC  
                               i2u271_40 1192                                 i2u263_40 10F2  
                               i2u255_40 106C                                 i2u159_41 16D8  
                               i2u271_41 118E                                 i2u263_41 10EE  
                               i2u255_41 1068                                 i2u272_40 11AA  
                               i2u264_40 110A                                 i2u256_40 107E  
                               i2u272_41 11A6                                 i2u264_41 1106  
                               i2u256_41 107A                                 i2u169_40 17B6  
                               i2u273_40 11BA                                 i2u265_40 111A  
                               i2u257_40 108C                                 i2u169_41 17B2  
                               i2u273_41 11B6                                 i2u265_41 1116  
                               i2u257_41 1088                                 i2u274_40 11D2  
                               i2u266_40 1132                                 i2u258_40 109E  
                               i2u274_41 11CE                                 i2u266_41 112E  
                               i2u258_41 109A                                 i2u275_40 11E2  
                               i2u267_40 1142                                 i2u259_40 10AC  
                               i2u275_41 11DE                                 i2u267_41 113E  
                               i2u259_41 10A8                                 i2u268_40 115A  
                               i2u268_41 1156                                 i2u269_40 116A  
                               i2u269_41 1166                   button_intialize@button 004A  
                 _Interrupt_Manager_High 0008                   gpio_pin_initialize@ret 0049  
                gpio_pin_write_logic@ret 0046                              _INTCON2bits 0FF1  
                            _INTCON3bits 0FF0                                copy_data0 1998  
                 gpio_pin_read_logic@ret 0045                     _ecu_layer_initialize 1A64  
                             _EECON1bits 0FA6                                 __Hrparam 0000  
                               __Lrparam 0000                 led_toggle_status@pin_obj 0037  
            __end_of_gpio_pin_initialize 1874                       __end_of_btn_values 1011  
            __end_of_gpio_pin_read_logic 16AC           gpio_pin_initialize@_pin_config 0047  
               __end_of_button_intialize 1A0E                       led_intialize@F3482 006A  
                               __ptext10 1208                                 __ptext20 1A5C  
                               __ptext12 1874                                 __ptext21 1A60  
                               __ptext13 18B8                                 __ptext22 0000  
                               __ptext14 18FC                                 __ptext15 1940  
                               __ptext16 1A4C                                 __ptext17 17A2  
                               __ptext18 16AC                                 __ptext19 1A58  
                  ?_ecu_layer_initialize 002F                                 isa$xinst 0000  
                               int$flags 006B                gpio_pin_read_logic@logic_ 0040  
                             _INTCONbits 0FF2             __end_of_gpio_pin_write_logic 1556  
                               intlevel2 0000                   led_toggle_status@F3497 0067  
                  _gpio_pin_toggle_logic 16AC               _RB4_Interrupt_Handler_High 005C  
                 _Application_initialize 1A0E               gpio_pin_write_logic@logic_ 0040  
             _RB7_Interrupt_Handler_High 0050                           _port_registers 0001  
                     _Interrupt_RBx_Init 132E                _RB4_Interrupt_Handler_Low 005A  
              _RB7_Interrupt_Handler_Low 004E                   ??_ecu_layer_initialize 003F  
                    ?_Interrupt_RBx_Init 0046                   _INT1_Interrupt_Handler 0060  
