

Microchip MPLAB XC8 Assembler V2.45 build 20230818022343 
                                                                                               Mon Feb 12 18:16:30 2024

Microchip MPLAB XC8 C Compiler v2.45 (Free license) build 20230818022343 Og1 
     1                           	processor	18F4620
     2                           	fnconf	rparam,??,?,0
     3                           	pagewidth 120
     4                           	opt	flic
     5                           	psect	idataCOMRAM,global,class=CODE,delta=1,noexec
     6                           	psect	idataBANK0,global,class=CODE,delta=1,noexec
     7                           	psect	smallconst,global,reloc=2,class=SMALLCONST,delta=1,noexec
     8                           	psect	cinit,global,reloc=2,class=CODE,delta=1
     9                           	psect	bssCOMRAM,global,class=COMRAM,space=1,delta=1,lowdata,noexec
    10                           	psect	dataCOMRAM,global,class=COMRAM,space=1,delta=1,lowdata,noexec
    11                           	psect	bssBANK0,global,class=BANK0,space=1,delta=1,lowdata,noexec
    12                           	psect	dataBANK0,global,class=BANK0,space=1,delta=1,lowdata,noexec
    13                           	psect	cstackBANK1,global,class=BANK1,space=1,delta=1,lowdata,noexec
    14                           	psect	cstackBANK0,global,class=BANK0,space=1,delta=1,lowdata,noexec
    15                           	psect	cstackCOMRAM,global,class=COMRAM,space=1,delta=1,lowdata,noexec
    16                           	psect	text0,global,reloc=2,class=CODE,delta=1
    17                           	psect	text1,global,reloc=2,class=CODE,delta=1
    18                           	psect	text2,global,reloc=2,class=CODE,delta=1,group=3
    19                           	psect	text3,global,reloc=2,class=CODE,delta=1,group=2
    20                           	psect	text4,global,reloc=2,class=CODE,delta=1
    21                           	psect	text5,global,reloc=2,class=CODE,delta=1
    22                           	psect	text6,global,reloc=2,class=CODE,delta=1,group=3
    23                           	psect	text7,global,reloc=2,class=CODE,delta=1,group=1
    24                           	psect	text8,global,reloc=2,class=CODE,delta=1,group=1
    25                           	psect	text9,global,reloc=2,class=CODE,delta=1,group=3
    26                           	psect	text10,global,reloc=2,class=CODE,delta=1,group=3
    27                           	psect	text11,global,reloc=2,class=CODE,delta=1,group=3
    28                           	psect	text12,global,reloc=2,class=CODE,delta=1,group=2
    29                           	psect	text13,global,reloc=2,class=CODE,delta=1,group=2
    30                           	psect	text14,global,reloc=2,class=CODE,delta=1
    31                           	psect	text15,global,reloc=2,class=CODE,delta=1
    32                           	psect	text16,global,reloc=2,class=CODE,delta=1
    33                           	psect	text17,global,reloc=2,class=CODE,delta=1
    34                           	psect	text18,global,reloc=2,class=CODE,delta=1
    35                           	psect	text19,global,reloc=2,class=CODE,delta=1
    36                           	psect	text20,global,reloc=2,class=CODE,delta=1
    37                           	psect	text21,global,reloc=2,class=CODE,delta=1
    38                           	psect	text22,global,reloc=2,class=CODE,delta=1
    39                           	psect	text23,global,reloc=2,class=CODE,delta=1
    40                           	psect	text24,global,reloc=2,class=CODE,delta=1
    41                           	psect	text25,global,reloc=2,class=CODE,delta=1
    42                           	psect	text26,global,reloc=2,class=CODE,delta=1
    43                           	psect	text27,global,reloc=2,class=CODE,delta=1
    44                           	psect	text28,global,reloc=2,class=CODE,delta=1
    45                           	psect	text29,global,reloc=2,class=CODE,delta=1
    46                           	psect	text30,global,reloc=2,class=CODE,delta=1
    47                           	psect	text31,global,reloc=2,class=CODE,delta=1
    48                           	psect	text32,global,reloc=2,class=CODE,delta=1
    49                           	psect	text33,global,reloc=2,class=CODE,delta=1
    50                           	psect	text34,global,reloc=2,class=CODE,delta=1
    51                           	psect	text35,global,reloc=2,class=CODE,delta=1
    52                           	psect	text36,global,reloc=2,class=CODE,delta=1
    53                           	psect	text37,global,reloc=2,class=CODE,delta=1
    54                           	psect	intcode,global,reloc=2,class=CODE,delta=1
    55                           	psect	intcode_body,global,reloc=2,class=CODE,delta=1
    56                           	psect	text39,global,reloc=2,class=CODE,delta=1
    57                           	psect	text40,global,reloc=2,class=CODE,delta=1
    58                           	psect	text41,global,reloc=2,class=CODE,delta=1
    59                           	psect	text42,global,reloc=2,class=CODE,delta=1
    60                           	psect	text43,global,reloc=2,class=CODE,delta=1
    61                           	psect	text44,global,reloc=2,class=CODE,delta=1
    62                           	psect	text45,global,reloc=2,class=CODE,delta=1
    63                           	psect	text46,global,reloc=2,class=CODE,delta=1
    64                           	psect	text47,global,reloc=2,class=CODE,delta=1
    65                           	psect	text48,global,reloc=2,class=CODE,delta=1
    66                           	psect	text49,global,reloc=2,class=CODE,delta=1
    67                           	psect	text50,global,reloc=2,class=CODE,delta=1
    68                           	psect	text51,global,reloc=2,class=CODE,delta=1
    69                           	psect	text52,global,reloc=2,class=CODE,delta=1
    70                           	psect	text53,global,reloc=2,class=CODE,delta=1
    71                           	psect	text54,global,reloc=2,class=CODE,delta=1
    72                           	psect	text55,global,reloc=2,class=CODE,delta=1
    73                           	psect	intsave_regs,global,class=BIGRAM,space=1,delta=1,noexec
    74                           	psect	text56,global,reloc=2,class=CODE,delta=1
    75                           	psect	rparam,global,class=COMRAM,space=1,delta=1,noexec
    76                           	psect	temp,global,ovrld,common,class=COMRAM,space=1,delta=1
    77                           	psect	config,global,abs,ovrld,class=CONFIG,space=4,delta=1,noexec
    78   000000                     
    79                           ; Generated 23/03/2023 GMT
    80                           ; 
    81                           ; Copyright © 2023, Microchip Technology Inc. and its subsidiaries ("Microchip")
    82                           ; All rights reserved.
    83                           ; 
    84                           ; This software is developed by Microchip Technology Inc. and its subsidiaries ("Microch
      +                          ip").
    85                           ; 
    86                           ; Redistribution and use in source and binary forms, with or without modification, are
    87                           ; permitted provided that the following conditions are met:
    88                           ; 
    89                           ;     1. Redistributions of source code must retain the above copyright notice, this lis
      +                          t of
    90                           ;        conditions and the following disclaimer.
    91                           ; 
    92                           ;     2. Redistributions in binary form must reproduce the above copyright notice, this 
      +                          list
    93                           ;        of conditions and the following disclaimer in the documentation and/or other
    94                           ;        materials provided with the distribution. Publication is not required when
    95                           ;        this file is used in an embedded application.
    96                           ; 
    97                           ;     3. Microchip's name may not be used to endorse or promote products derived from th
      +                          is
    98                           ;        software without specific prior written permission.
    99                           ; 
   100                           ; THIS SOFTWARE IS PROVIDED BY MICROCHIP "AS IS" AND ANY EXPRESS OR IMPLIED WARRANTIES,
   101                           ; INCLUDING, BUT NOT LIMITED TO, THE IMPLIED WARRANTIES OF MERCHANTABILITY AND FITNESS F
      +                          OR
   102                           ; PURPOSE ARE DISCLAIMED.  IN NO EVENT SHALL MICROCHIP BE LIABLE FOR ANY DIRECT, INDIREC
      +                          T,
   103                           ; INCIDENTAL, SPECIAL, EXEMPLARY, OR CONSEQUENTIAL DAMAGES (INCLUDING BUT NOT LIMITED TO
   104                           ; PROCUREMENT OF SUBSTITUTE GOODS OR SERVICES; LOSS OF USE, DATA OR PROFITS; OR BUSINESS
   105                           ; INTERRUPTION) HOWSOEVER CAUSED AND ON ANY THEORY OF LIABILITY, WHETHER IN CONTRACT, ST
      +                          RICT
   106                           ; LIABILITY, OR TORT (INCLUDING NEGLIGENCE OR OTHERWISE) ARISING IN ANY WAY OUT OF THE U
      +                          SE OF
   107                           ; THIS SOFTWARE, EVEN IF ADVISED OF THE POSSIBILITY OF SUCH DAMAGE.
   108                           ; 
   109                           ; 
   110                           ; Code-generator required, PIC18F4620 Definitions
   111                           ; 
   112                           ; SFR Addresses
   113   000000                     
   114                           	psect	idataCOMRAM
   115   002D62                     __pidataCOMRAM:
   116                           	callstack 0
   117                           
   118                           ;initializer for _RB7_f
   119   002D62  01                 	db	1
   120                           
   121                           ;initializer for _RB6_f
   122   002D63  01                 	db	1
   123                           
   124                           ;initializer for _RB5_f
   125   002D64  01                 	db	1
   126                           
   127                           ;initializer for _RB4_f
   128   002D65  01                 	db	1
   129                           
   130                           ;initializer for _lcd
   131   002D66  03                 	db	3
   132   002D67  13                 	db	19
   133   002D68  23                 	db	35
   134   002D69  2B                 	db	43
   135   002D6A  33                 	db	51
   136   002D6B  3B                 	db	59
   137                           
   138                           	psect	idataBANK0
   139   002B30                     __pidataBANK0:
   140                           	callstack 0
   141                           
   142                           ;initializer for _port_registers
   143   002B30  80                 	db	128
   144   002B31  0F                 	db	15
   145   002B32  81                 	db	129
   146   002B33  0F                 	db	15
   147   002B34  82                 	db	130
   148   002B35  0F                 	db	15
   149   002B36  83                 	db	131
   150   002B37  0F                 	db	15
   151   002B38  84                 	db	132
   152   002B39  0F                 	db	15
   153                           
   154                           ;initializer for _lat_registers
   155   002B3A  89                 	db	137
   156   002B3B  0F                 	db	15
   157   002B3C  8A                 	db	138
   158   002B3D  0F                 	db	15
   159   002B3E  8B                 	db	139
   160   002B3F  0F                 	db	15
   161   002B40  8C                 	db	140
   162   002B41  0F                 	db	15
   163   002B42  8D                 	db	141
   164   002B43  0F                 	db	15
   165                           
   166                           ;initializer for _tris_registers
   167   002B44  92                 	db	146
   168   002B45  0F                 	db	15
   169   002B46  93                 	db	147
   170   002B47  0F                 	db	15
   171   002B48  94                 	db	148
   172   002B49  0F                 	db	15
   173   002B4A  95                 	db	149
   174   002B4B  0F                 	db	15
   175   002B4C  96                 	db	150
   176   002B4D  0F                 	db	15
   177                           
   178                           ;initializer for _ball_y
   179   002B4E  02                 	db	2
   180                           
   181                           ;initializer for _ball_x
   182   002B4F  0A                 	db	10
   183                           
   184                           ;initializer for _player_two_row
   185   002B50  02                 	db	2
   186                           
   187                           ;initializer for _player_one_row
   188   002B51  02                 	db	2
   189                           
   190                           ;initializer for _ret
   191   002B52  01                 	db	1
   192                           
   193                           ;initializer for _Player2
   194   002B53  CA                 	db	low _Player_two_move
   195   002B54  22                 	db	high _Player_two_move
   196   002B55  00                 	db	0
   197   002B56  01                 	db	1
   198   002B57  01                 	db	1
   199   002B58  49                 	db	73
   200                           
   201                           ;initializer for _Player1
   202   002B59  4C                 	db	low _Player_one_move
   203   002B5A  22                 	db	high _Player_one_move
   204   002B5B  00                 	db	0
   205   002B5C  00                 	db	0
   206   002B5D  01                 	db	1
   207   002B5E  41                 	db	65
   208                           
   209                           ;initializer for _seg2
   210   002B5F  22                 	db	34
   211   002B60  2A                 	db	42
   212   002B61  32                 	db	50
   213   002B62  3A                 	db	58
   214   002B63  01                 	db	1
   215                           
   216                           ;initializer for _seg1
   217   002B64  02                 	db	2
   218   002B65  0A                 	db	10
   219   002B66  12                 	db	18
   220   002B67  1A                 	db	26
   221   002B68  01                 	db	1
   222                           
   223                           	psect	smallconst
   224   001000                     __psmallconst:
   225                           	callstack 0
   226   001000  00                 	db	0
   227   001001                     _btn_values:
   228                           	callstack 0
   229   001001  37                 	db	55
   230   001002  38                 	db	56
   231   001003  39                 	db	57
   232   001004  2F                 	db	47
   233   001005  34                 	db	52
   234   001006  35                 	db	53
   235   001007  36                 	db	54
   236   001008  2A                 	db	42
   237   001009  31                 	db	49
   238   00100A  32                 	db	50
   239   00100B  33                 	db	51
   240   00100C  2D                 	db	45
   241   00100D  23                 	db	35
   242   00100E  30                 	db	48
   243   00100F  3D                 	db	61
   244   001010  2B                 	db	43
   245   001011                     __end_of_btn_values:
   246                           	callstack 0
   247   000000                     _EECON2	set	4007
   248   000000                     _INTCON2bits	set	4081
   249   000000                     _PORTBbits	set	3969
   250   000000                     _PORTE	set	3972
   251   000000                     _PORTD	set	3971
   252   000000                     _PORTC	set	3970
   253   000000                     _PORTB	set	3969
   254   000000                     _PORTA	set	3968
   255   000000                     _LATA	set	3977
   256   000000                     _TRISA	set	3986
   257   000000                     _EECON1bits	set	4006
   258   000000                     _EEDATA	set	4008
   259   000000                     _EEADR	set	4009
   260   000000                     _EEADRH	set	4010
   261   000000                     _INTCON3bits	set	4080
   262   000000                     _INTCONbits	set	4082
   263   000000                     _TRISE	set	3990
   264   000000                     _TRISD	set	3989
   265   000000                     _TRISC	set	3988
   266   000000                     _TRISB	set	3987
   267   000000                     _LATE	set	3981
   268   000000                     _LATD	set	3980
   269   000000                     _LATC	set	3979
   270   000000                     _LATB	set	3978
   271   001011                     STR_8:
   272   001011  20                 	db	32
   273   001012  20                 	db	32
   274   001013  20                 	db	32
   275   001014  20                 	db	32
   276   001015  20                 	db	32
   277   001016  20                 	db	32
   278   001017  20                 	db	32
   279   001018  20                 	db	32
   280   001019  20                 	db	32
   281   00101A  20                 	db	32
   282   00101B  20                 	db	32
   283   00101C  20                 	db	32
   284   00101D  20                 	db	32
   285   00101E  20                 	db	32
   286   00101F  20                 	db	32
   287   001020  20                 	db	32
   288   001021  20                 	db	32
   289   001022  20                 	db	32
   290   001023  20                 	db	32
   291   001024  20                 	db	32
   292   001025  00                 	db	0
   293   001026                     STR_6:
   294   001026  20                 	db	32
   295   001027  20                 	db	32
   296   001028  20                 	db	32
   297   001029  20                 	db	32
   298   00102A  20                 	db	32
   299   00102B  20                 	db	32
   300   00102C  20                 	db	32
   301   00102D  20                 	db	32
   302   00102E  20                 	db	32
   303   00102F  47                 	db	71	;'G'
   304   001030  4F                 	db	79	;'O'
   305   001031  20                 	db	32
   306   001032  21                 	db	33
   307   001033  20                 	db	32
   308   001034  20                 	db	32
   309   001035  20                 	db	32
   310   001036  20                 	db	32
   311   001037  20                 	db	32
   312   001038  00                 	db	0
   313   001039                     STR_4:
   314   001039  47                 	db	71	;'G'
   315   00103A  61                 	db	97	;'a'
   316   00103B  6D                 	db	109	;'m'
   317   00103C  65                 	db	101	;'e'
   318   00103D  20                 	db	32
   319   00103E  73                 	db	115	;'s'
   320   00103F  74                 	db	116	;'t'
   321   001040  61                 	db	97	;'a'
   322   001041  72                 	db	114	;'r'
   323   001042  74                 	db	116	;'t'
   324   001043  73                 	db	115	;'s'
   325   001044  20                 	db	32
   326   001045  69                 	db	105	;'i'
   327   001046  6E                 	db	110	;'n'
   328   001047  20                 	db	32
   329   001048  25                 	db	37
   330   001049  64                 	db	100	;'d'
   331   00104A  00                 	db	0
   332   00104B                     STR_9:
   333   00104B  50                 	db	80	;'P'
   334   00104C  6C                 	db	108	;'l'
   335   00104D  61                 	db	97	;'a'
   336   00104E  79                 	db	121	;'y'
   337   00104F  65                 	db	101	;'e'
   338   001050  72                 	db	114	;'r'
   339   001051  20                 	db	32
   340   001052  6F                 	db	111	;'o'
   341   001053  6E                 	db	110	;'n'
   342   001054  65                 	db	101	;'e'
   343   001055  20                 	db	32
   344   001056  77                 	db	119	;'w'
   345   001057  6F                 	db	111	;'o'
   346   001058  6E                 	db	110	;'n'
   347   001059  20                 	db	32
   348   00105A  21                 	db	33
   349   00105B  00                 	db	0
   350   00105C                     STR_11:
   351   00105C  50                 	db	80	;'P'
   352   00105D  6C                 	db	108	;'l'
   353   00105E  61                 	db	97	;'a'
   354   00105F  79                 	db	121	;'y'
   355   001060  65                 	db	101	;'e'
   356   001061  72                 	db	114	;'r'
   357   001062  20                 	db	32
   358   001063  74                 	db	116	;'t'
   359   001064  77                 	db	119	;'w'
   360   001065  6F                 	db	111	;'o'
   361   001066  20                 	db	32
   362   001067  77                 	db	119	;'w'
   363   001068  6F                 	db	111	;'o'
   364   001069  6E                 	db	110	;'n'
   365   00106A  20                 	db	32
   366   00106B  21                 	db	33
   367   00106C  00                 	db	0
   368   00106D                     STR_1:
   369   00106D  25                 	db	37
   370   00106E  69                 	db	105	;'i'
   371   00106F  00                 	db	0
   372   001070  00                 	db	0	; dummy byte at the end
   373   000000                     
   374                           ; #config settings
   375                           
   376                           	psect	cinit
   377   0025FC                     __pcinit:
   378                           	callstack 0
   379   0025FC                     start_initialization:
   380                           	callstack 0
   381   0025FC                     __initialization:
   382                           	callstack 0
   383                           
   384                           ; Initialize objects allocated to BANK0 (57 bytes)
   385                           ; load TBLPTR registers with __pidataBANK0
   386   0025FC  0E30               	movlw	low __pidataBANK0
   387   0025FE  6EF6               	movwf	tblptrl,c
   388   002600  0E2B               	movlw	high __pidataBANK0
   389   002602  6EF7               	movwf	tblptrh,c
   390   002604  0E00               	movlw	low (__pidataBANK0 shr (0+16))
   391   002606  6EF8               	movwf	tblptru,c
   392   002608  EE00  F080         	lfsr	0,__pdataBANK0
   393   00260C  EE10 F039          	lfsr	1,57
   394   002610                     copy_data0:
   395   002610  0009               	tblrd		*+
   396   002612  CFF5 FFEE          	movff	tablat,postinc0
   397   002616  50E5               	movf	postdec1,w,c
   398   002618  50E1               	movf	fsr1l,w,c
   399   00261A  E1FA               	bnz	copy_data0
   400                           
   401                           ; Initialize objects allocated to COMRAM (10 bytes)
   402                           ; load TBLPTR registers with __pidataCOMRAM
   403   00261C  0E62               	movlw	low __pidataCOMRAM
   404   00261E  6EF6               	movwf	tblptrl,c
   405   002620  0E2D               	movlw	high __pidataCOMRAM
   406   002622  6EF7               	movwf	tblptrh,c
   407   002624  0E00               	movlw	low (__pidataCOMRAM shr (0+16))
   408   002626  6EF8               	movwf	tblptru,c
   409   002628  EE00  F056         	lfsr	0,__pdataCOMRAM
   410   00262C  EE10 F00A          	lfsr	1,10
   411   002630                     copy_data1:
   412   002630  0009               	tblrd		*+
   413   002632  CFF5 FFEE          	movff	tablat,postinc0
   414   002636  50E5               	movf	postdec1,w,c
   415   002638  50E1               	movf	fsr1l,w,c
   416   00263A  E1FA               	bnz	copy_data1
   417                           
   418                           ; Clear objects allocated to BANK0 (32 bytes)
   419   00263C  EE00  F0B9         	lfsr	0,__pbssBANK0
   420   002640  0E20               	movlw	32
   421   002642                     clear_0:
   422   002642  6AEE               	clrf	postinc0,c
   423   002644  06E8               	decf	wreg,f,c
   424   002646  E1FD               	bnz	clear_0
   425                           
   426                           ; Clear objects allocated to COMRAM (40 bytes)
   427   002648  EE00  F02E         	lfsr	0,__pbssCOMRAM
   428   00264C  0E28               	movlw	40
   429   00264E                     clear_1:
   430   00264E  6AEE               	clrf	postinc0,c
   431   002650  06E8               	decf	wreg,f,c
   432   002652  E1FD               	bnz	clear_1
   433   002654                     end_of_initialization:
   434                           	callstack 0
   435   002654                     __end_of__initialization:
   436                           	callstack 0
   437   002654  9060               	bcf	int$flags,0,c	;clear compiler interrupt flag (level 1)
   438   002656  9260               	bcf	int$flags,1,c	;clear compiler interrupt flag (level 2)
   439   002658  0100               	movlb	0
   440   00265A  EFA9  F016         	goto	_main	;jump to C main() function
   441                           
   442                           	psect	bssCOMRAM
   443   00002E                     __pbssCOMRAM:
   444                           	callstack 0
   445   00002E                     _width:
   446                           	callstack 0
   447   00002E                     	ds	2
   448   000030                     _prec:
   449                           	callstack 0
   450   000030                     	ds	2
   451   000032                     _RB7_Interrupt_Handler_Low:
   452                           	callstack 0
   453   000032                     	ds	2
   454   000034                     _RB7_Interrupt_Handler_High:
   455                           	callstack 0
   456   000034                     	ds	2
   457   000036                     _RB6_Interrupt_Handler_Low:
   458                           	callstack 0
   459   000036                     	ds	2
   460   000038                     _RB6_Interrupt_Handler_High:
   461                           	callstack 0
   462   000038                     	ds	2
   463   00003A                     _RB5_Interrupt_Handler_Low:
   464                           	callstack 0
   465   00003A                     	ds	2
   466   00003C                     _RB5_Interrupt_Handler_High:
   467                           	callstack 0
   468   00003C                     	ds	2
   469   00003E                     _RB4_Interrupt_Handler_Low:
   470                           	callstack 0
   471   00003E                     	ds	2
   472   000040                     _RB4_Interrupt_Handler_High:
   473                           	callstack 0
   474   000040                     	ds	2
   475   000042                     _INT2_Interrupt_Handler:
   476                           	callstack 0
   477   000042                     	ds	2
   478   000044                     _INT1_Interrupt_Handler:
   479                           	callstack 0
   480   000044                     	ds	2
   481   000046                     _INT0_Interrupt_Handler:
   482                           	callstack 0
   483   000046                     	ds	2
   484   000048                     _flags:
   485                           	callstack 0
   486   000048                     	ds	1
   487   000049                     _yDirection:
   488                           	callstack 0
   489   000049                     	ds	1
   490   00004A                     _xDirection:
   491                           	callstack 0
   492   00004A                     	ds	1
   493   00004B                     Relay_off@F3490:
   494                           	callstack 0
   495   00004B                     	ds	1
   496   00004C                     Relay_on@F3485:
   497                           	callstack 0
   498   00004C                     	ds	1
   499   00004D                     Relay_initialize@F3480:
   500                           	callstack 0
   501   00004D                     	ds	1
   502   00004E                     led_toggle_status@F3497:
   503                           	callstack 0
   504   00004E                     	ds	1
   505   00004F                     led_turn_off@F3492:
   506                           	callstack 0
   507   00004F                     	ds	1
   508   000050                     led_turn_on@F3487:
   509                           	callstack 0
   510   000050                     	ds	1
   511   000051                     led_intialize@F3482:
   512                           	callstack 0
   513   000051                     	ds	1
   514   000052                     _seed:
   515                           	callstack 0
   516   000052                     	ds	4
   517                           
   518                           	psect	dataCOMRAM
   519   000056                     __pdataCOMRAM:
   520                           	callstack 0
   521   000056                     _RB7_f:
   522                           	callstack 0
   523   000056                     	ds	1
   524   000057                     _RB6_f:
   525                           	callstack 0
   526   000057                     	ds	1
   527   000058                     _RB5_f:
   528                           	callstack 0
   529   000058                     	ds	1
   530   000059                     _RB4_f:
   531                           	callstack 0
   532   000059                     	ds	1
   533   00005A                     _lcd:
   534                           	callstack 0
   535   00005A                     	ds	6
   536                           
   537                           	psect	bssBANK0
   538   0000B9                     __pbssBANK0:
   539                           	callstack 0
   540   0000B9                     _dbuf:
   541                           	callstack 0
   542   0000B9                     	ds	32
   543                           
   544                           	psect	dataBANK0
   545   000080                     __pdataBANK0:
   546                           	callstack 0
   547   000080                     _port_registers:
   548                           	callstack 0
   549   000080                     	ds	10
   550   00008A                     _lat_registers:
   551                           	callstack 0
   552   00008A                     	ds	10
   553   000094                     _tris_registers:
   554                           	callstack 0
   555   000094                     	ds	10
   556   00009E                     _ball_y:
   557                           	callstack 0
   558   00009E                     	ds	1
   559   00009F                     _ball_x:
   560                           	callstack 0
   561   00009F                     	ds	1
   562   0000A0                     _player_two_row:
   563                           	callstack 0
   564   0000A0                     	ds	1
   565   0000A1                     _player_one_row:
   566                           	callstack 0
   567   0000A1                     	ds	1
   568   0000A2                     _ret:
   569                           	callstack 0
   570   0000A2                     	ds	1
   571   0000A3                     _Player2:
   572                           	callstack 0
   573   0000A3                     	ds	6
   574   0000A9                     _Player1:
   575                           	callstack 0
   576   0000A9                     	ds	6
   577   0000AF                     _seg2:
   578                           	callstack 0
   579   0000AF                     	ds	5
   580   0000B4                     _seg1:
   581                           	callstack 0
   582   0000B4                     	ds	5
   583                           
   584                           	psect	cstackBANK1
   585   000100                     __pcstackBANK1:
   586                           	callstack 0
   587   000100                     start_message@message:
   588                           	callstack 0
   589                           
   590                           ; 20 bytes @ 0x0
   591   000100                     	ds	20
   592   000114                     start_message@i:
   593                           	callstack 0
   594                           
   595                           ; 2 bytes @ 0x14
   596   000114                     	ds	2
   597                           
   598                           	psect	cstackBANK0
   599   0000D9                     __pcstackBANK0:
   600                           	callstack 0
   601   0000D9                     ??_rand:
   602   0000D9                     lcd_4bit_initailize@Lcd:
   603                           	callstack 0
   604   0000D9                     lcd_4bit_send_string@Lcd:
   605                           	callstack 0
   606   0000D9                     lcd_4bit_set_cursor@Lcd:
   607                           	callstack 0
   608   0000D9                     Interrupt_INTx_Init@ret:
   609                           	callstack 0
   610   0000D9                     vfpfcnvrt@done:
   611                           	callstack 0
   612                           
   613                           ; 1 bytes @ 0x0
   614   0000D9                     	ds	1
   615   0000DA                     ??_lcd_4bit_initailize:
   616   0000DA                     lcd_4bit_set_cursor@row:
   617                           	callstack 0
   618   0000DA                     vfpfcnvrt@cp:
   619                           	callstack 0
   620   0000DA                     lcd_4bit_send_string@str:
   621                           	callstack 0
   622                           
   623                           ; 2 bytes @ 0x1
   624   0000DA                     	ds	1
   625   0000DB                     lcd_4bit_initailize@i:
   626                           	callstack 0
   627   0000DB                     lcd_4bit_set_cursor@column:
   628                           	callstack 0
   629   0000DB                     vfpfcnvrt@convarg:
   630                           	callstack 0
   631                           
   632                           ; 4 bytes @ 0x2
   633   0000DB                     	ds	1
   634   0000DC                     ??_lcd_4bit_set_cursor:
   635   0000DC                     lcd_4bit_initailize@ret:
   636                           	callstack 0
   637   0000DC                     lcd_4bit_send_string@ret:
   638                           	callstack 0
   639                           
   640                           ; 1 bytes @ 0x3
   641   0000DC                     	ds	2
   642   0000DE                     lcd_4bit_set_cursor@ret:
   643                           	callstack 0
   644                           
   645                           ; 1 bytes @ 0x5
   646   0000DE                     	ds	1
   647   0000DF                     lcd_4bit_send_char_data_pos@Lcd:
   648                           	callstack 0
   649   0000DF                     lcd_4bit_send_string_pos@Lcd:
   650                           	callstack 0
   651   0000DF                     vfpfcnvrt@c:
   652                           	callstack 0
   653                           
   654                           ; 1 bytes @ 0x6
   655   0000DF                     	ds	1
   656   0000E0                     ?_vfprintf:
   657                           	callstack 0
   658   0000E0                     lcd_4bit_send_char_data_pos@row:
   659                           	callstack 0
   660   0000E0                     lcd_4bit_send_string_pos@row:
   661                           	callstack 0
   662   0000E0                     vfprintf@fp:
   663                           	callstack 0
   664                           
   665                           ; 1 bytes @ 0x7
   666   0000E0                     	ds	1
   667   0000E1                     lcd_4bit_send_char_data_pos@column:
   668                           	callstack 0
   669   0000E1                     lcd_4bit_send_string_pos@column:
   670                           	callstack 0
   671   0000E1                     vfprintf@fmt:
   672                           	callstack 0
   673                           
   674                           ; 1 bytes @ 0x8
   675   0000E1                     	ds	1
   676   0000E2                     lcd_4bit_send_char_data_pos@data:
   677                           	callstack 0
   678   0000E2                     vfprintf@ap:
   679                           	callstack 0
   680   0000E2                     lcd_4bit_send_string_pos@str:
   681                           	callstack 0
   682                           
   683                           ; 2 bytes @ 0x9
   684   0000E2                     	ds	1
   685   0000E3                     lcd_4bit_send_char_data_pos@ret:
   686                           	callstack 0
   687   0000E3                     vfprintf@cfmt:
   688                           	callstack 0
   689                           
   690                           ; 1 bytes @ 0xA
   691   0000E3                     	ds	1
   692   0000E4                     ?_sprintf:
   693                           	callstack 0
   694   0000E4                     lcd_4bit_send_string_pos@ret:
   695                           	callstack 0
   696   0000E4                     sprintf@s:
   697                           	callstack 0
   698                           
   699                           ; 2 bytes @ 0xB
   700   0000E4                     	ds	1
   701   0000E5                     ??_ball_move:
   702                           
   703                           ; 1 bytes @ 0xC
   704   0000E5                     	ds	1
   705   0000E6                     sprintf@fmt:
   706                           	callstack 0
   707                           
   708                           ; 1 bytes @ 0xD
   709   0000E6                     	ds	3
   710   0000E9                     sprintf@ap:
   711                           	callstack 0
   712                           
   713                           ; 1 bytes @ 0x10
   714   0000E9                     	ds	1
   715   0000EA                     sprintf@f:
   716                           	callstack 0
   717                           
   718                           ; 12 bytes @ 0x11
   719   0000EA                     	ds	12
   720   0000F6                     ??_start_message:
   721                           
   722                           ; 1 bytes @ 0x1D
   723   0000F6                     	ds	2
   724                           
   725                           	psect	cstackCOMRAM
   726   000001                     __pcstackCOMRAM:
   727                           	callstack 0
   728   000001                     RB4_ISR@source:
   729                           	callstack 0
   730   000001                     RB5_ISR@source:
   731                           	callstack 0
   732   000001                     RB6_ISR@source:
   733                           	callstack 0
   734   000001                     RB7_ISR@source:
   735                           	callstack 0
   736   000001                     i2gpio_pin_write_logic@_pin_config:
   737                           	callstack 0
   738                           
   739                           ; 1 bytes @ 0x0
   740   000001                     	ds	1
   741   000002                     i2gpio_pin_write_logic@logic_:
   742                           	callstack 0
   743                           
   744                           ; 1 bytes @ 0x1
   745   000002                     	ds	1
   746   000003                     ??i2_gpio_pin_write_logic:
   747                           
   748                           ; 1 bytes @ 0x2
   749   000003                     	ds	5
   750   000008                     i2gpio_pin_write_logic@ret:
   751                           	callstack 0
   752                           
   753                           ; 1 bytes @ 0x7
   754   000008                     	ds	1
   755   000009                     i2lcd_4bits_send_enable@Lcd:
   756                           	callstack 0
   757   000009                     i2lcd_4bits_command@Lcd:
   758                           	callstack 0
   759   000009                     i2Seven_Segm_Display_Number@_Seven_Seg:
   760                           	callstack 0
   761                           
   762                           ; 1 bytes @ 0x8
   763   000009                     	ds	1
   764   00000A                     i2lcd_4bits_send_enable@ret:
   765                           	callstack 0
   766   00000A                     i2lcd_4bits_command@data_command:
   767                           	callstack 0
   768   00000A                     i2Seven_Segm_Display_Number@number:
   769                           	callstack 0
   770                           
   771                           ; 1 bytes @ 0x9
   772   00000A                     	ds	1
   773   00000B                     i2lcd_4bits_command@ret:
   774                           	callstack 0
   775   00000B                     i2Seven_Segm_Display_Number@ret:
   776                           	callstack 0
   777                           
   778                           ; 1 bytes @ 0xA
   779   00000B                     	ds	1
   780   00000C                     i2lcd_4bit_send_command@Lcd:
   781                           	callstack 0
   782   00000C                     i2lcd_4bit_send_char_data@Lcd:
   783                           	callstack 0
   784                           
   785                           ; 1 bytes @ 0xB
   786   00000C                     	ds	1
   787   00000D                     i2lcd_4bit_send_command@command:
   788                           	callstack 0
   789   00000D                     i2lcd_4bit_send_char_data@data:
   790                           	callstack 0
   791                           
   792                           ; 1 bytes @ 0xC
   793   00000D                     	ds	1
   794   00000E                     i2lcd_4bit_send_command@ret:
   795                           	callstack 0
   796   00000E                     i2lcd_4bit_send_char_data@ret:
   797                           	callstack 0
   798                           
   799                           ; 1 bytes @ 0xD
   800   00000E                     	ds	1
   801   00000F                     i2lcd_4bit_set_cursor@Lcd:
   802                           	callstack 0
   803                           
   804                           ; 1 bytes @ 0xE
   805   00000F                     	ds	1
   806   000010                     i2lcd_4bit_set_cursor@row:
   807                           	callstack 0
   808                           
   809                           ; 1 bytes @ 0xF
   810   000010                     	ds	1
   811   000011                     i2lcd_4bit_set_cursor@column:
   812                           	callstack 0
   813                           
   814                           ; 1 bytes @ 0x10
   815   000011                     	ds	1
   816   000012                     ??i2_lcd_4bit_set_cursor:
   817                           
   818                           ; 1 bytes @ 0x11
   819   000012                     	ds	2
   820   000014                     i2lcd_4bit_set_cursor@ret:
   821                           	callstack 0
   822                           
   823                           ; 1 bytes @ 0x13
   824   000014                     	ds	1
   825   000015                     i2lcd_4bit_send_char_data_pos@Lcd:
   826                           	callstack 0
   827                           
   828                           ; 1 bytes @ 0x14
   829   000015                     	ds	1
   830   000016                     i2lcd_4bit_send_char_data_pos@row:
   831                           	callstack 0
   832                           
   833                           ; 1 bytes @ 0x15
   834   000016                     	ds	1
   835   000017                     i2lcd_4bit_send_char_data_pos@column:
   836                           	callstack 0
   837                           
   838                           ; 1 bytes @ 0x16
   839   000017                     	ds	1
   840   000018                     i2lcd_4bit_send_char_data_pos@data:
   841                           	callstack 0
   842                           
   843                           ; 1 bytes @ 0x17
   844   000018                     	ds	1
   845   000019                     i2lcd_4bit_send_char_data_pos@ret:
   846                           	callstack 0
   847                           
   848                           ; 1 bytes @ 0x18
   849   000019                     	ds	1
   850   00001A                     ??_Interrupt_Manager_High:
   851                           
   852                           ; 1 bytes @ 0x19
   853   00001A                     	ds	6
   854   000020                     ?___awdiv:
   855                           	callstack 0
   856   000020                     ?___awmod:
   857                           	callstack 0
   858   000020                     ?___lmul:
   859                           	callstack 0
   860   000020                     gpio_pin_direction_intialize@_pin_config:
   861                           	callstack 0
   862   000020                     gpio_pin_write_logic@_pin_config:
   863                           	callstack 0
   864   000020                     Interrupt_INTx_Enable@obj:
   865                           	callstack 0
   866   000020                     Interrupt_INTx_Disable@obj:
   867                           	callstack 0
   868   000020                     Interrupt_INTx_Edge_Init@obj:
   869                           	callstack 0
   870   000020                     INT0_Set_Interrupt_Handler@Interrupt_Handler:
   871                           	callstack 0
   872   000020                     INT1_Set_Interrupt_Handler@Interrupt_Handler:
   873                           	callstack 0
   874   000020                     INT2_Set_Interrupt_Handler@Interrupt_Handler:
   875                           	callstack 0
   876   000020                     ___awdiv@dividend:
   877                           	callstack 0
   878   000020                     ___awmod@dividend:
   879                           	callstack 0
   880   000020                     fputc@c:
   881                           	callstack 0
   882   000020                     ___lmul@multiplier:
   883                           	callstack 0
   884                           
   885                           ; 4 bytes @ 0x1F
   886   000020                     	ds	1
   887   000021                     ??_Interrupt_INTx_Disable:
   888   000021                     ??_Interrupt_INTx_Edge_Init:
   889   000021                     ??_Interrupt_INTx_Enable:
   890   000021                     ??_gpio_pin_direction_intialize:
   891   000021                     gpio_pin_write_logic@logic_:
   892                           	callstack 0
   893                           
   894                           ; 1 bytes @ 0x20
   895   000021                     	ds	1
   896   000022                     ??_gpio_pin_write_logic:
   897   000022                     INT0_Set_Interrupt_Handler@ret:
   898                           	callstack 0
   899   000022                     INT1_Set_Interrupt_Handler@ret:
   900                           	callstack 0
   901   000022                     INT2_Set_Interrupt_Handler@ret:
   902                           	callstack 0
   903   000022                     fputc@fp:
   904                           	callstack 0
   905   000022                     ___awdiv@divisor:
   906                           	callstack 0
   907   000022                     ___awmod@divisor:
   908                           	callstack 0
   909                           
   910                           ; 2 bytes @ 0x21
   911   000022                     	ds	1
   912   000023                     ??_fputc:
   913   000023                     Interrupt_INTx_Enable@ret:
   914                           	callstack 0
   915   000023                     Interrupt_INTx_Disable@ret:
   916                           	callstack 0
   917   000023                     Interrupt_INTx_Edge_Init@ret:
   918                           	callstack 0
   919   000023                     Interrupt_Set_Interrupt_Handler@obj:
   920                           	callstack 0
   921                           
   922                           ; 1 bytes @ 0x22
   923   000023                     	ds	1
   924   000024                     ??_Interrupt_Set_Interrupt_Handler:
   925   000024                     ___awdiv@counter:
   926                           	callstack 0
   927   000024                     ___awmod@counter:
   928                           	callstack 0
   929   000024                     ___lmul@multiplicand:
   930                           	callstack 0
   931                           
   932                           ; 4 bytes @ 0x23
   933   000024                     	ds	1
   934   000025                     ___awdiv@sign:
   935                           	callstack 0
   936   000025                     ___awmod@sign:
   937                           	callstack 0
   938                           
   939                           ; 1 bytes @ 0x24
   940   000025                     	ds	1
   941   000026                     ?_abs:
   942                           	callstack 0
   943   000026                     gpio_pin_direction_intialize@ret:
   944                           	callstack 0
   945   000026                     Interrupt_Set_Interrupt_Handler@ret:
   946                           	callstack 0
   947   000026                     ___awdiv@quotient:
   948                           	callstack 0
   949   000026                     abs@a:
   950                           	callstack 0
   951                           
   952                           ; 2 bytes @ 0x25
   953   000026                     	ds	1
   954   000027                     gpio_pin_write_logic@ret:
   955                           	callstack 0
   956                           
   957                           ; 1 bytes @ 0x26
   958   000027                     	ds	1
   959   000028                     ??_abs:
   960   000028                     lcd_4bits_send_enable@Lcd:
   961                           	callstack 0
   962   000028                     lcd_4bits_command@Lcd:
   963                           	callstack 0
   964   000028                     Seven_Segm_Display_Number@_Seven_Seg:
   965                           	callstack 0
   966   000028                     gpio_pin_initialize@_pin_config:
   967                           	callstack 0
   968   000028                     ___lmul@product:
   969                           	callstack 0
   970                           
   971                           ; 4 bytes @ 0x27
   972   000028                     	ds	1
   973   000029                     ??_gpio_pin_initialize:
   974   000029                     lcd_4bits_send_enable@ret:
   975                           	callstack 0
   976   000029                     lcd_4bits_command@data_command:
   977                           	callstack 0
   978   000029                     Seven_Segm_Display_Number@number:
   979                           	callstack 0
   980                           
   981                           ; 1 bytes @ 0x28
   982   000029                     	ds	1
   983   00002A                     lcd_4bits_command@ret:
   984                           	callstack 0
   985   00002A                     Seven_Segm_Display_Number@ret:
   986                           	callstack 0
   987   00002A                     gpio_pin_initialize@ret:
   988                           	callstack 0
   989   00002A                     vfpfcnvrt@fp:
   990                           	callstack 0
   991                           
   992                           ; 1 bytes @ 0x29
   993   00002A                     	ds	1
   994   00002B                     lcd_4bit_send_command@Lcd:
   995                           	callstack 0
   996   00002B                     lcd_4bit_send_char_data@Lcd:
   997                           	callstack 0
   998   00002B                     Seven_Segm_initailize@_Seven_Seg:
   999                           	callstack 0
  1000   00002B                     Interrupt_INTx_Pin_Init@obj:
  1001                           	callstack 0
  1002   00002B                     vfpfcnvrt@fmt:
  1003                           	callstack 0
  1004                           
  1005                           ; 1 bytes @ 0x2A
  1006   00002B                     	ds	1
  1007   00002C                     ?_rand:
  1008                           	callstack 0
  1009   00002C                     lcd_4bit_send_command@command:
  1010                           	callstack 0
  1011   00002C                     lcd_4bit_send_char_data@data:
  1012                           	callstack 0
  1013   00002C                     Seven_Segm_initailize@ret:
  1014                           	callstack 0
  1015   00002C                     Interrupt_INTx_Pin_Init@ret:
  1016                           	callstack 0
  1017   00002C                     vfpfcnvrt@ap:
  1018                           	callstack 0
  1019                           
  1020                           ; 1 bytes @ 0x2B
  1021   00002C                     	ds	1
  1022   00002D                     ??_vfpfcnvrt:
  1023   00002D                     lcd_4bit_send_command@ret:
  1024                           	callstack 0
  1025   00002D                     lcd_4bit_send_char_data@ret:
  1026                           	callstack 0
  1027   00002D                     Interrupt_INTx_Init@obj:
  1028                           	callstack 0
  1029                           
  1030                           ; 1 bytes @ 0x2C
  1031   00002D                     	ds	1
  1032   00002E                     
  1033                           ; 1 bytes @ 0x2D
  1034 ;;
  1035 ;;Main: autosize = 0, tempsize = 0, incstack = 0, save=0
  1036 ;;
  1037 ;; *************** function _main *****************
  1038 ;; Defined at:
  1039 ;;		line 55 in file "app.c"
  1040 ;; Parameters:    Size  Location     Type
  1041 ;;		None
  1042 ;; Auto vars:     Size  Location     Type
  1043 ;;		None
  1044 ;; Return value:  Size  Location     Type
  1045 ;;                  2  740[None  ] int 
  1046 ;; Registers used:
  1047 ;;		wreg, fsr0l, fsr0h, fsr1l, fsr1h, fsr2l, fsr2h, status,2, status,0, tblptrl, tblptrh, tblptru, prodl, prodh, cstack
  1048 ;; Tracked objects:
  1049 ;;		On entry : 0/0
  1050 ;;		On exit  : 0/0
  1051 ;;		Unchanged: 0/0
  1052 ;; Data sizes:     COMRAM   BANK0   BANK1   BANK2   BANK3   BANK4   BANK5   BANK6   BANK7   BANK8   BANK9  BANK10  BANK1
      +1  BANK12  BANK13  BANK14  BANK15
  1053 ;;      Params:         0       0       0       0       0       0       0       0       0       0       0       0       
      +0       0       0       0       0
  1054 ;;      Locals:         0       0       0       0       0       0       0       0       0       0       0       0       
      +0       0       0       0       0
  1055 ;;      Temps:          0       0       0       0       0       0       0       0       0       0       0       0       
      +0       0       0       0       0
  1056 ;;      Totals:         0       0       0       0       0       0       0       0       0       0       0       0       
      +0       0       0       0       0
  1057 ;;Total ram usage:        0 bytes
  1058 ;; Hardware stack levels required when called: 15
  1059 ;; This function calls:
  1060 ;;		_Application_initialize
  1061 ;;		_ball_move
  1062 ;; This function is called by:
  1063 ;;		Startup code after reset
  1064 ;; This function uses a non-reentrant model
  1065 ;;
  1066                           
  1067                           	psect	text0
  1068   002D52                     __ptext0:
  1069                           	callstack 0
  1070   002D52                     _main:
  1071                           	callstack 16
  1072   002D52                     
  1073                           ;app.c: 57:     Application_initialize();
  1074   002D52  EC48  F010         	call	_Application_initialize	;wreg free
  1075   002D56                     l6328:
  1076                           
  1077                           ;app.c: 60:         ball_move();
  1078   002D56  EC39  F008         	call	_ball_move	;wreg free
  1079   002D5A  EFAB  F016         	goto	l6328
  1080   002D5E  EF07  F000         	goto	start
  1081   002D62                     __end_of_main:
  1082                           	callstack 0
  1083                           
  1084 ;; *************** function _ball_move *****************
  1085 ;; Defined at:
  1086 ;;		line 143 in file "app.c"
  1087 ;; Parameters:    Size  Location     Type
  1088 ;;		None
  1089 ;; Auto vars:     Size  Location     Type
  1090 ;;		None
  1091 ;; Return value:  Size  Location     Type
  1092 ;;                  1    wreg      void 
  1093 ;; Registers used:
  1094 ;;		wreg, fsr0l, fsr0h, fsr2l, fsr2h, status,2, status,0, tblptrl, tblptrh, tblptru, prodl, prodh, cstack
  1095 ;; Tracked objects:
  1096 ;;		On entry : 0/0
  1097 ;;		On exit  : 0/0
  1098 ;;		Unchanged: 0/0
  1099 ;; Data sizes:     COMRAM   BANK0   BANK1   BANK2   BANK3   BANK4   BANK5   BANK6   BANK7   BANK8   BANK9  BANK10  BANK1
      +1  BANK12  BANK13  BANK14  BANK15
  1100 ;;      Params:         0       0       0       0       0       0       0       0       0       0       0       0       
      +0       0       0       0       0
  1101 ;;      Locals:         0       0       0       0       0       0       0       0       0       0       0       0       
      +0       0       0       0       0
  1102 ;;      Temps:          0       2       0       0       0       0       0       0       0       0       0       0       
      +0       0       0       0       0
  1103 ;;      Totals:         0       2       0       0       0       0       0       0       0       0       0       0       
      +0       0       0       0       0
  1104 ;;Total ram usage:        2 bytes
  1105 ;; Hardware stack levels used: 1
  1106 ;; Hardware stack levels required when called: 13
  1107 ;; This function calls:
  1108 ;;		_lcd_4bit_send_char_data_pos
  1109 ;;		_lcd_4bit_send_command
  1110 ;;		_lcd_4bit_send_string_pos
  1111 ;;		_rand
  1112 ;; This function is called by:
  1113 ;;		_main
  1114 ;; This function uses a non-reentrant model
  1115 ;;
  1116                           
  1117                           	psect	text1
  1118   001072                     __ptext1:
  1119                           	callstack 0
  1120   001072                     _ball_move:
  1121                           	callstack 17
  1122   001072                     
  1123                           ;app.c: 145:     ret = lcd_4bit_send_char_data_pos(&lcd, ball_y, ball_x, ' ');
  1124   001072  0E5A               	movlw	low _lcd
  1125   001074  0100               	movlb	0	; () banked
  1126   001076  6FDF               	movwf	lcd_4bit_send_char_data_pos@Lcd& (0+255),b
  1127   001078  C09E  F0E0         	movff	_ball_y,lcd_4bit_send_char_data_pos@row
  1128   00107C  C09F  F0E1         	movff	_ball_x,lcd_4bit_send_char_data_pos@column
  1129   001080  0E20               	movlw	32
  1130   001082  6FE2               	movwf	lcd_4bit_send_char_data_pos@data& (0+255),b
  1131   001084  ECFB  F014         	call	_lcd_4bit_send_char_data_pos	;wreg free
  1132   001088  0100               	movlb	0	; () banked
  1133   00108A  6FA2               	movwf	_ret& (0+255),b
  1134   00108C                     
  1135                           ; BSR set to: 0
  1136                           ;app.c: 147:     if (ball_x == 10 && ball_y == 2) {
  1137   00108C  0E0A               	movlw	10
  1138   00108E  199F               	xorwf	_ball_x& (0+255),w,b
  1139   001090  A4D8               	btfss	status,2,c
  1140   001092  EF4D  F008         	goto	u5131
  1141   001096  EF4F  F008         	goto	u5130
  1142   00109A                     u5131:
  1143   00109A  EF70  F008         	goto	l5820
  1144   00109E                     u5130:
  1145   00109E                     
  1146                           ; BSR set to: 0
  1147   00109E  0E02               	movlw	2
  1148   0010A0  199E               	xorwf	_ball_y& (0+255),w,b
  1149   0010A2  A4D8               	btfss	status,2,c
  1150   0010A4  EF56  F008         	goto	u5141
  1151   0010A8  EF58  F008         	goto	u5140
  1152   0010AC                     u5141:
  1153   0010AC  EF70  F008         	goto	l5820
  1154   0010B0                     u5140:
  1155   0010B0                     
  1156                           ; BSR set to: 0
  1157                           ;app.c: 149:         xDirection = rand() % 2 == 0 ? Left : Right;
  1158   0010B0  EC5B  F012         	call	_rand	;wreg free
  1159   0010B4  A02C               	btfss	?_rand^0,0,c
  1160   0010B6  EF5F  F008         	goto	u5151
  1161   0010BA  EF62  F008         	goto	u5150
  1162   0010BE                     u5151:
  1163   0010BE  0E01               	movlw	1
  1164   0010C0  EF63  F008         	goto	u5160
  1165   0010C4                     u5150:
  1166   0010C4  0E00               	movlw	0
  1167   0010C6                     u5160:
  1168   0010C6  6E4A               	movwf	_xDirection^0,c
  1169                           
  1170                           ;app.c: 151:         yDirection = rand() % 2 == 0 ? Up : Down;
  1171   0010C8  EC5B  F012         	call	_rand	;wreg free
  1172   0010CC  B02C               	btfsc	?_rand^0,0,c
  1173   0010CE  EF6B  F008         	goto	u5171
  1174   0010D2  EF6E  F008         	goto	u5170
  1175   0010D6                     u5171:
  1176   0010D6  0E01               	movlw	1
  1177   0010D8  EF6F  F008         	goto	u5180
  1178   0010DC                     u5170:
  1179   0010DC  0E00               	movlw	0
  1180   0010DE                     u5180:
  1181   0010DE  6E49               	movwf	_yDirection^0,c
  1182   0010E0                     l5820:
  1183                           
  1184                           ;app.c: 155:     if (xDirection == Right) {
  1185   0010E0  504A               	movf	_xDirection^0,w,c
  1186   0010E2  A4D8               	btfss	status,2,c
  1187   0010E4  EF76  F008         	goto	u5191
  1188   0010E8  EF78  F008         	goto	u5190
  1189   0010EC                     u5191:
  1190   0010EC  EFE4  F008         	goto	l5844
  1191   0010F0                     u5190:
  1192   0010F0                     
  1193                           ;app.c: 156:         ball_x++;
  1194   0010F0  0100               	movlb	0	; () banked
  1195   0010F2  2B9F               	incf	_ball_x& (0+255),f,b
  1196   0010F4                     
  1197                           ; BSR set to: 0
  1198                           ;app.c: 157:         if (ball_x == 20 && player_two_row == ball_y) {
  1199   0010F4  0E14               	movlw	20
  1200   0010F6  199F               	xorwf	_ball_x& (0+255),w,b
  1201   0010F8  A4D8               	btfss	status,2,c
  1202   0010FA  EF81  F008         	goto	u5201
  1203   0010FE  EF83  F008         	goto	u5200
  1204   001102                     u5201:
  1205   001102  EF92  F008         	goto	l5830
  1206   001106                     u5200:
  1207   001106                     
  1208                           ; BSR set to: 0
  1209   001106  519E               	movf	_ball_y& (0+255),w,b
  1210   001108  19A0               	xorwf	_player_two_row& (0+255),w,b
  1211   00110A  A4D8               	btfss	status,2,c
  1212   00110C  EF8A  F008         	goto	u5211
  1213   001110  EF8C  F008         	goto	u5210
  1214   001114                     u5211:
  1215   001114  EF92  F008         	goto	l5830
  1216   001118                     u5210:
  1217   001118                     
  1218                           ; BSR set to: 0
  1219                           ;app.c: 158:             xDirection = Left;
  1220   001118  0E01               	movlw	1
  1221   00111A  6E4A               	movwf	_xDirection^0,c
  1222                           
  1223                           ;app.c: 159:             ball_x = 19;
  1224   00111C  0E13               	movlw	19
  1225   00111E  6F9F               	movwf	_ball_x& (0+255),b
  1226                           
  1227                           ;app.c: 160:         } else if (ball_x == 20 && player_two_row != ball_y) {
  1228   001120  EF4C  F009         	goto	l5866
  1229   001124                     l5830:
  1230                           
  1231                           ; BSR set to: 0
  1232   001124  0E14               	movlw	20
  1233   001126  199F               	xorwf	_ball_x& (0+255),w,b
  1234   001128  A4D8               	btfss	status,2,c
  1235   00112A  EF99  F008         	goto	u5221
  1236   00112E  EF9B  F008         	goto	u5220
  1237   001132                     u5221:
  1238   001132  EF4C  F009         	goto	l5866
  1239   001136                     u5220:
  1240   001136                     
  1241                           ; BSR set to: 0
  1242   001136  519E               	movf	_ball_y& (0+255),w,b
  1243   001138  19A0               	xorwf	_player_two_row& (0+255),w,b
  1244   00113A  B4D8               	btfsc	status,2,c
  1245   00113C  EFA2  F008         	goto	u5231
  1246   001140  EFA4  F008         	goto	u5230
  1247   001144                     u5231:
  1248   001144  EF4C  F009         	goto	l5866
  1249   001148                     u5230:
  1250   001148                     
  1251                           ; BSR set to: 0
  1252                           ;app.c: 162:             ret = lcd_4bit_send_command(&lcd, 0x02);
  1253   001148  0E5A               	movlw	low _lcd
  1254   00114A  6E2B               	movwf	lcd_4bit_send_command@Lcd^0,c
  1255   00114C  0E02               	movlw	2
  1256   00114E  6E2C               	movwf	lcd_4bit_send_command@command^0,c
  1257   001150  ECBB  F013         	call	_lcd_4bit_send_command	;wreg free
  1258   001154  0100               	movlb	0	; () banked
  1259   001156  6FA2               	movwf	_ret& (0+255),b
  1260   001158                     
  1261                           ; BSR set to: 0
  1262                           ;app.c: 163:             ret = lcd_4bit_send_string_pos(&lcd, 2, 4, "                   
      +                           ");
  1263   001158  0E5A               	movlw	low _lcd
  1264   00115A  6FDF               	movwf	lcd_4bit_send_string_pos@Lcd& (0+255),b
  1265   00115C  0E02               	movlw	2
  1266   00115E  6FE0               	movwf	lcd_4bit_send_string_pos@row& (0+255),b
  1267   001160  0E04               	movlw	4
  1268   001162  6FE1               	movwf	lcd_4bit_send_string_pos@column& (0+255),b
  1269   001164  0E11               	movlw	low STR_8
  1270   001166  6FE2               	movwf	lcd_4bit_send_string_pos@str& (0+255),b
  1271   001168  51E2               	movf	lcd_4bit_send_string_pos@str& (0+255),w,b
  1272   00116A  A4D8               	btfss	status,2,c
  1273   00116C  0E10               	movlw	high __smallconst
  1274   00116E  6FE3               	movwf	(lcd_4bit_send_string_pos@str+1)& (0+255),b
  1275   001170  ECDA  F014         	call	_lcd_4bit_send_string_pos	;wreg free
  1276   001174  0100               	movlb	0	; () banked
  1277   001176  6FA2               	movwf	_ret& (0+255),b
  1278   001178                     
  1279                           ; BSR set to: 0
  1280                           ;app.c: 164:             ret = lcd_4bit_send_string_pos(&lcd, 2, 4, "Player one won !");
  1281   001178  0E5A               	movlw	low _lcd
  1282   00117A  6FDF               	movwf	lcd_4bit_send_string_pos@Lcd& (0+255),b
  1283   00117C  0E02               	movlw	2
  1284   00117E  6FE0               	movwf	lcd_4bit_send_string_pos@row& (0+255),b
  1285   001180  0E04               	movlw	4
  1286   001182  6FE1               	movwf	lcd_4bit_send_string_pos@column& (0+255),b
  1287   001184  0E4B               	movlw	low STR_9
  1288   001186  6FE2               	movwf	lcd_4bit_send_string_pos@str& (0+255),b
  1289   001188  51E2               	movf	lcd_4bit_send_string_pos@str& (0+255),w,b
  1290   00118A  A4D8               	btfss	status,2,c
  1291   00118C  0E10               	movlw	high __smallconst
  1292   00118E  6FE3               	movwf	(lcd_4bit_send_string_pos@str+1)& (0+255),b
  1293   001190  ECDA  F014         	call	_lcd_4bit_send_string_pos	;wreg free
  1294   001194  0100               	movlb	0	; () banked
  1295   001196  6FA2               	movwf	_ret& (0+255),b
  1296   001198                     
  1297                           ; BSR set to: 0
  1298                           ;app.c: 165:             _delay((unsigned long)((2000)*(8000000/4000.0)));
  1299   001198  0E15               	movlw	21
  1300   00119A  0100               	movlb	0	; () banked
  1301   00119C  6FE6               	movwf	(??_ball_move+1)& (0+255),b
  1302   00119E  0E4B               	movlw	75
  1303   0011A0  6FE5               	movwf	??_ball_move& (0+255),b
  1304   0011A2  0EBE               	movlw	190
  1305   0011A4                     u5717:
  1306   0011A4  2EE8               	decfsz	wreg,f,c
  1307   0011A6  D7FE               	bra	u5717
  1308   0011A8  2FE5               	decfsz	??_ball_move& (0+255),f,b
  1309   0011AA  D7FC               	bra	u5717
  1310   0011AC  2FE6               	decfsz	(??_ball_move+1)& (0+255),f,b
  1311   0011AE  D7FA               	bra	u5717
  1312   0011B0  0000               	nop	
  1313   0011B2                     
  1314                           ;app.c: 166:             ret = lcd_4bit_send_command(&lcd, 0x02);
  1315   0011B2  0E5A               	movlw	low _lcd
  1316   0011B4  6E2B               	movwf	lcd_4bit_send_command@Lcd^0,c
  1317   0011B6  0E02               	movlw	2
  1318   0011B8  6E2C               	movwf	lcd_4bit_send_command@command^0,c
  1319   0011BA  ECBB  F013         	call	_lcd_4bit_send_command	;wreg free
  1320   0011BE  0100               	movlb	0	; () banked
  1321   0011C0  6FA2               	movwf	_ret& (0+255),b
  1322   0011C2  00FF               	reset		;# 
  1323   0011C4  EF4C  F009         	goto	l5866
  1324   0011C8                     l5844:
  1325                           
  1326                           ;app.c: 170:         ball_x--;
  1327   0011C8  0100               	movlb	0	; () banked
  1328   0011CA  079F               	decf	_ball_x& (0+255),f,b
  1329   0011CC                     
  1330                           ; BSR set to: 0
  1331                           ;app.c: 171:         if (ball_x == 1 && player_one_row == ball_y) {
  1332   0011CC  059F               	decf	_ball_x& (0+255),w,b
  1333   0011CE  A4D8               	btfss	status,2,c
  1334   0011D0  EFEC  F008         	goto	u5241
  1335   0011D4  EFEE  F008         	goto	u5240
  1336   0011D8                     u5241:
  1337   0011D8  EFFD  F008         	goto	l5852
  1338   0011DC                     u5240:
  1339   0011DC                     
  1340                           ; BSR set to: 0
  1341   0011DC  519E               	movf	_ball_y& (0+255),w,b
  1342   0011DE  19A1               	xorwf	_player_one_row& (0+255),w,b
  1343   0011E0  A4D8               	btfss	status,2,c
  1344   0011E2  EFF5  F008         	goto	u5251
  1345   0011E6  EFF7  F008         	goto	u5250
  1346   0011EA                     u5251:
  1347   0011EA  EFFD  F008         	goto	l5852
  1348   0011EE                     u5250:
  1349   0011EE                     
  1350                           ; BSR set to: 0
  1351                           ;app.c: 172:             xDirection = Right;
  1352   0011EE  0E00               	movlw	0
  1353   0011F0  6E4A               	movwf	_xDirection^0,c
  1354                           
  1355                           ;app.c: 173:             ball_x = 2;
  1356   0011F2  0E02               	movlw	2
  1357   0011F4  6F9F               	movwf	_ball_x& (0+255),b
  1358                           
  1359                           ;app.c: 174:         } else if (ball_x == 1 && player_one_row != ball_y) {
  1360   0011F6  EF4C  F009         	goto	l5866
  1361   0011FA                     l5852:
  1362                           
  1363                           ; BSR set to: 0
  1364   0011FA  059F               	decf	_ball_x& (0+255),w,b
  1365   0011FC  A4D8               	btfss	status,2,c
  1366   0011FE  EF03  F009         	goto	u5261
  1367   001202  EF05  F009         	goto	u5260
  1368   001206                     u5261:
  1369   001206  EF4C  F009         	goto	l5866
  1370   00120A                     u5260:
  1371   00120A                     
  1372                           ; BSR set to: 0
  1373   00120A  519E               	movf	_ball_y& (0+255),w,b
  1374   00120C  19A1               	xorwf	_player_one_row& (0+255),w,b
  1375   00120E  B4D8               	btfsc	status,2,c
  1376   001210  EF0C  F009         	goto	u5271
  1377   001214  EF0E  F009         	goto	u5270
  1378   001218                     u5271:
  1379   001218  EF4C  F009         	goto	l5866
  1380   00121C                     u5270:
  1381   00121C                     
  1382                           ; BSR set to: 0
  1383                           ;app.c: 176:             ret = lcd_4bit_send_command(&lcd, 0x02);
  1384   00121C  0E5A               	movlw	low _lcd
  1385   00121E  6E2B               	movwf	lcd_4bit_send_command@Lcd^0,c
  1386   001220  0E02               	movlw	2
  1387   001222  6E2C               	movwf	lcd_4bit_send_command@command^0,c
  1388   001224  ECBB  F013         	call	_lcd_4bit_send_command	;wreg free
  1389   001228  0100               	movlb	0	; () banked
  1390   00122A  6FA2               	movwf	_ret& (0+255),b
  1391   00122C                     
  1392                           ; BSR set to: 0
  1393                           ;app.c: 177:             ret = lcd_4bit_send_string_pos(&lcd, 2, 4, "                   
      +                           ");
  1394   00122C  0E5A               	movlw	low _lcd
  1395   00122E  6FDF               	movwf	lcd_4bit_send_string_pos@Lcd& (0+255),b
  1396   001230  0E02               	movlw	2
  1397   001232  6FE0               	movwf	lcd_4bit_send_string_pos@row& (0+255),b
  1398   001234  0E04               	movlw	4
  1399   001236  6FE1               	movwf	lcd_4bit_send_string_pos@column& (0+255),b
  1400   001238  0E11               	movlw	low STR_8
  1401   00123A  6FE2               	movwf	lcd_4bit_send_string_pos@str& (0+255),b
  1402   00123C  51E2               	movf	lcd_4bit_send_string_pos@str& (0+255),w,b
  1403   00123E  A4D8               	btfss	status,2,c
  1404   001240  0E10               	movlw	high __smallconst
  1405   001242  6FE3               	movwf	(lcd_4bit_send_string_pos@str+1)& (0+255),b
  1406   001244  ECDA  F014         	call	_lcd_4bit_send_string_pos	;wreg free
  1407   001248  0100               	movlb	0	; () banked
  1408   00124A  6FA2               	movwf	_ret& (0+255),b
  1409   00124C                     
  1410                           ; BSR set to: 0
  1411                           ;app.c: 178:             ret = lcd_4bit_send_string_pos(&lcd, 2, 4, "Player two won !");
  1412   00124C  0E5A               	movlw	low _lcd
  1413   00124E  6FDF               	movwf	lcd_4bit_send_string_pos@Lcd& (0+255),b
  1414   001250  0E02               	movlw	2
  1415   001252  6FE0               	movwf	lcd_4bit_send_string_pos@row& (0+255),b
  1416   001254  0E04               	movlw	4
  1417   001256  6FE1               	movwf	lcd_4bit_send_string_pos@column& (0+255),b
  1418   001258  0E5C               	movlw	low STR_11
  1419   00125A  6FE2               	movwf	lcd_4bit_send_string_pos@str& (0+255),b
  1420   00125C  51E2               	movf	lcd_4bit_send_string_pos@str& (0+255),w,b
  1421   00125E  A4D8               	btfss	status,2,c
  1422   001260  0E10               	movlw	high __smallconst
  1423   001262  6FE3               	movwf	(lcd_4bit_send_string_pos@str+1)& (0+255),b
  1424   001264  ECDA  F014         	call	_lcd_4bit_send_string_pos	;wreg free
  1425   001268  0100               	movlb	0	; () banked
  1426   00126A  6FA2               	movwf	_ret& (0+255),b
  1427   00126C                     
  1428                           ; BSR set to: 0
  1429                           ;app.c: 179:             _delay((unsigned long)((2000)*(8000000/4000.0)));
  1430   00126C  0E15               	movlw	21
  1431   00126E  0100               	movlb	0	; () banked
  1432   001270  6FE6               	movwf	(??_ball_move+1)& (0+255),b
  1433   001272  0E4B               	movlw	75
  1434   001274  6FE5               	movwf	??_ball_move& (0+255),b
  1435   001276  0EBE               	movlw	190
  1436   001278                     u5727:
  1437   001278  2EE8               	decfsz	wreg,f,c
  1438   00127A  D7FE               	bra	u5727
  1439   00127C  2FE5               	decfsz	??_ball_move& (0+255),f,b
  1440   00127E  D7FC               	bra	u5727
  1441   001280  2FE6               	decfsz	(??_ball_move+1)& (0+255),f,b
  1442   001282  D7FA               	bra	u5727
  1443   001284  0000               	nop	
  1444   001286                     
  1445                           ;app.c: 180:             ret = lcd_4bit_send_command(&lcd, 0x02);
  1446   001286  0E5A               	movlw	low _lcd
  1447   001288  6E2B               	movwf	lcd_4bit_send_command@Lcd^0,c
  1448   00128A  0E02               	movlw	2
  1449   00128C  6E2C               	movwf	lcd_4bit_send_command@command^0,c
  1450   00128E  ECBB  F013         	call	_lcd_4bit_send_command	;wreg free
  1451   001292  0100               	movlb	0	; () banked
  1452   001294  6FA2               	movwf	_ret& (0+255),b
  1453   001296  00FF               	reset		;# 
  1454   001298                     l5866:
  1455                           
  1456                           ;app.c: 186:     if (yDirection == Up) {
  1457   001298  5049               	movf	_yDirection^0,w,c
  1458   00129A  A4D8               	btfss	status,2,c
  1459   00129C  EF52  F009         	goto	u5281
  1460   0012A0  EF54  F009         	goto	u5280
  1461   0012A4                     u5281:
  1462   0012A4  EF63  F009         	goto	l5874
  1463   0012A8                     u5280:
  1464   0012A8                     
  1465                           ;app.c: 187:         ball_y++;
  1466   0012A8  0100               	movlb	0	; () banked
  1467   0012AA  2B9E               	incf	_ball_y& (0+255),f,b
  1468   0012AC                     
  1469                           ; BSR set to: 0
  1470                           ;app.c: 188:         if (ball_y == 4) {
  1471   0012AC  0E04               	movlw	4
  1472   0012AE  199E               	xorwf	_ball_y& (0+255),w,b
  1473   0012B0  A4D8               	btfss	status,2,c
  1474   0012B2  EF5D  F009         	goto	u5291
  1475   0012B6  EF5F  F009         	goto	u5290
  1476   0012BA                     u5291:
  1477   0012BA  EF6F  F009         	goto	l5880
  1478   0012BE                     u5290:
  1479   0012BE                     
  1480                           ; BSR set to: 0
  1481                           ;app.c: 189:             yDirection = Down;
  1482   0012BE  0E01               	movlw	1
  1483   0012C0  6E49               	movwf	_yDirection^0,c
  1484   0012C2  EF6F  F009         	goto	l5880
  1485   0012C6                     l5874:
  1486                           
  1487                           ;app.c: 192:         ball_y--;
  1488   0012C6  0100               	movlb	0	; () banked
  1489   0012C8  079E               	decf	_ball_y& (0+255),f,b
  1490   0012CA                     
  1491                           ; BSR set to: 0
  1492                           ;app.c: 193:         if (ball_y == 1) {
  1493   0012CA  059E               	decf	_ball_y& (0+255),w,b
  1494   0012CC  A4D8               	btfss	status,2,c
  1495   0012CE  EF6B  F009         	goto	u5301
  1496   0012D2  EF6D  F009         	goto	u5300
  1497   0012D6                     u5301:
  1498   0012D6  EF6F  F009         	goto	l5880
  1499   0012DA                     u5300:
  1500   0012DA                     
  1501                           ; BSR set to: 0
  1502                           ;app.c: 194:             yDirection = Up;
  1503   0012DA  0E00               	movlw	0
  1504   0012DC  6E49               	movwf	_yDirection^0,c
  1505   0012DE                     l5880:
  1506                           
  1507                           ; BSR set to: 0
  1508                           ;app.c: 199:     ret = lcd_4bit_send_char_data_pos(&lcd, ball_y, ball_x, 'o');
  1509   0012DE  0E5A               	movlw	low _lcd
  1510   0012E0  6FDF               	movwf	lcd_4bit_send_char_data_pos@Lcd& (0+255),b
  1511   0012E2  C09E  F0E0         	movff	_ball_y,lcd_4bit_send_char_data_pos@row
  1512   0012E6  C09F  F0E1         	movff	_ball_x,lcd_4bit_send_char_data_pos@column
  1513   0012EA  0E6F               	movlw	111
  1514   0012EC  6FE2               	movwf	lcd_4bit_send_char_data_pos@data& (0+255),b
  1515   0012EE  ECFB  F014         	call	_lcd_4bit_send_char_data_pos	;wreg free
  1516   0012F2  0100               	movlb	0	; () banked
  1517   0012F4  6FA2               	movwf	_ret& (0+255),b
  1518   0012F6                     
  1519                           ; BSR set to: 0
  1520                           ;app.c: 200:     _delay((unsigned long)((300)*(8000000/4000.0)));
  1521   0012F6  0E04               	movlw	4
  1522   0012F8  0100               	movlb	0	; () banked
  1523   0012FA  6FE6               	movwf	(??_ball_move+1)& (0+255),b
  1524   0012FC  0E0C               	movlw	12
  1525   0012FE  6FE5               	movwf	??_ball_move& (0+255),b
  1526   001300  0E33               	movlw	51
  1527   001302                     u5737:
  1528   001302  2EE8               	decfsz	wreg,f,c
  1529   001304  D7FE               	bra	u5737
  1530   001306  2FE5               	decfsz	??_ball_move& (0+255),f,b
  1531   001308  D7FC               	bra	u5737
  1532   00130A  2FE6               	decfsz	(??_ball_move+1)& (0+255),f,b
  1533   00130C  D7FA               	bra	u5737
  1534   00130E  D000               	nop2	
  1535   001310  0012               	return		;funcret
  1536   001312                     __end_of_ball_move:
  1537                           	callstack 0
  1538                           
  1539 ;; *************** function _rand *****************
  1540 ;; Defined at:
  1541 ;;		line 11 in file "D:\IDE MCU\pic\sources\c99\common\rand.c"
  1542 ;; Parameters:    Size  Location     Type
  1543 ;;		None
  1544 ;; Auto vars:     Size  Location     Type
  1545 ;;		None
  1546 ;; Return value:  Size  Location     Type
  1547 ;;                  2   43[COMRAM] int 
  1548 ;; Registers used:
  1549 ;;		wreg, status,2, status,0, cstack
  1550 ;; Tracked objects:
  1551 ;;		On entry : 0/0
  1552 ;;		On exit  : 0/0
  1553 ;;		Unchanged: 0/0
  1554 ;; Data sizes:     COMRAM   BANK0   BANK1   BANK2   BANK3   BANK4   BANK5   BANK6   BANK7   BANK8   BANK9  BANK10  BANK1
      +1  BANK12  BANK13  BANK14  BANK15
  1555 ;;      Params:         2       0       0       0       0       0       0       0       0       0       0       0       
      +0       0       0       0       0
  1556 ;;      Locals:         0       0       0       0       0       0       0       0       0       0       0       0       
      +0       0       0       0       0
  1557 ;;      Temps:          0       4       0       0       0       0       0       0       0       0       0       0       
      +0       0       0       0       0
  1558 ;;      Totals:         2       4       0       0       0       0       0       0       0       0       0       0       
      +0       0       0       0       0
  1559 ;;Total ram usage:        6 bytes
  1560 ;; Hardware stack levels used: 1
  1561 ;; Hardware stack levels required when called: 9
  1562 ;; This function calls:
  1563 ;;		___lmul
  1564 ;; This function is called by:
  1565 ;;		_ball_move
  1566 ;; This function uses a non-reentrant model
  1567 ;;
  1568                           
  1569                           	psect	text2
  1570   0024B6                     __ptext2:
  1571                           	callstack 0
  1572   0024B6                     _rand:
  1573                           	callstack 20
  1574   0024B6  C052  F020         	movff	_seed,___lmul@multiplier
  1575   0024BA  C053  F021         	movff	_seed+1,___lmul@multiplier+1
  1576   0024BE  C054  F022         	movff	_seed+2,___lmul@multiplier+2
  1577   0024C2  C055  F023         	movff	_seed+3,___lmul@multiplier+3
  1578   0024C6  0E2D               	movlw	45
  1579   0024C8  6E24               	movwf	___lmul@multiplicand^0,c
  1580   0024CA  0E7F               	movlw	127
  1581   0024CC  6E25               	movwf	(___lmul@multiplicand+1)^0,c
  1582   0024CE  0E95               	movlw	149
  1583   0024D0  6E26               	movwf	(___lmul@multiplicand+2)^0,c
  1584   0024D2  0E4C               	movlw	76
  1585   0024D4  6E27               	movwf	(___lmul@multiplicand+3)^0,c
  1586   0024D6  ECC9  F012         	call	___lmul	;wreg free
  1587   0024DA  0E01               	movlw	1
  1588   0024DC  2420               	addwf	?___lmul^0,w,c
  1589   0024DE  6E52               	movwf	_seed^0,c
  1590   0024E0  0E00               	movlw	0
  1591   0024E2  2021               	addwfc	(?___lmul+1)^0,w,c
  1592   0024E4  6E53               	movwf	(_seed+1)^0,c
  1593   0024E6  0E00               	movlw	0
  1594   0024E8  2022               	addwfc	(?___lmul+2)^0,w,c
  1595   0024EA  6E54               	movwf	(_seed+2)^0,c
  1596   0024EC  0E00               	movlw	0
  1597   0024EE  2023               	addwfc	(?___lmul+3)^0,w,c
  1598   0024F0  6E55               	movwf	(_seed+3)^0,c
  1599   0024F2  C052  F0D9         	movff	_seed,??_rand
  1600   0024F6  C053  F0DA         	movff	_seed+1,??_rand+1
  1601   0024FA  C054  F0DB         	movff	_seed+2,??_rand+2
  1602   0024FE  C055  F0DC         	movff	_seed+3,??_rand+3
  1603   002502  0E12               	movlw	18
  1604   002504  EF8A  F012         	goto	u5060
  1605   002508                     u5065:
  1606   002508  0100               	movlb	0	; () banked
  1607   00250A  90D8               	bcf	status,0,c
  1608   00250C  33DC               	rrcf	(??_rand+3)& (0+255),f,b
  1609   00250E  33DB               	rrcf	(??_rand+2)& (0+255),f,b
  1610   002510  33DA               	rrcf	(??_rand+1)& (0+255),f,b
  1611   002512  33D9               	rrcf	??_rand& (0+255),f,b
  1612   002514                     u5060:
  1613   002514  2EE8               	decfsz	wreg,f,c
  1614   002516  EF84  F012         	goto	u5065
  1615   00251A  C0D9  F02C         	movff	??_rand,?_rand
  1616   00251E  C0DA  F02D         	movff	??_rand+1,?_rand+1
  1617   002522                     
  1618                           ; BSR set to: 0
  1619   002522  0012               	return		;funcret
  1620   002524                     __end_of_rand:
  1621                           	callstack 0
  1622                           
  1623 ;; *************** function ___lmul *****************
  1624 ;; Defined at:
  1625 ;;		line 15 in file "D:\IDE MCU\pic\sources\c99\common\Umul32.c"
  1626 ;; Parameters:    Size  Location     Type
  1627 ;;  multiplier      4   31[COMRAM] unsigned long 
  1628 ;;  multiplicand    4   35[COMRAM] unsigned long 
  1629 ;; Auto vars:     Size  Location     Type
  1630 ;;  product         4   39[COMRAM] unsigned long 
  1631 ;; Return value:  Size  Location     Type
  1632 ;;                  4   31[COMRAM] unsigned long 
  1633 ;; Registers used:
  1634 ;;		wreg, status,2, status,0
  1635 ;; Tracked objects:
  1636 ;;		On entry : 0/0
  1637 ;;		On exit  : 0/0
  1638 ;;		Unchanged: 0/0
  1639 ;; Data sizes:     COMRAM   BANK0   BANK1   BANK2   BANK3   BANK4   BANK5   BANK6   BANK7   BANK8   BANK9  BANK10  BANK1
      +1  BANK12  BANK13  BANK14  BANK15
  1640 ;;      Params:         8       0       0       0       0       0       0       0       0       0       0       0       
      +0       0       0       0       0
  1641 ;;      Locals:         4       0       0       0       0       0       0       0       0       0       0       0       
      +0       0       0       0       0
  1642 ;;      Temps:          0       0       0       0       0       0       0       0       0       0       0       0       
      +0       0       0       0       0
  1643 ;;      Totals:        12       0       0       0       0       0       0       0       0       0       0       0       
      +0       0       0       0       0
  1644 ;;Total ram usage:       12 bytes
  1645 ;; Hardware stack levels used: 1
  1646 ;; Hardware stack levels required when called: 8
  1647 ;; This function calls:
  1648 ;;		Nothing
  1649 ;; This function is called by:
  1650 ;;		_rand
  1651 ;; This function uses a non-reentrant model
  1652 ;;
  1653                           
  1654                           	psect	text3
  1655   002592                     __ptext3:
  1656                           	callstack 0
  1657   002592                     ___lmul:
  1658                           	callstack 20
  1659   002592  0E00               	movlw	0
  1660   002594  6E28               	movwf	___lmul@product^0,c
  1661   002596  0E00               	movlw	0
  1662   002598  6E29               	movwf	(___lmul@product+1)^0,c
  1663   00259A  0E00               	movlw	0
  1664   00259C  6E2A               	movwf	(___lmul@product+2)^0,c
  1665   00259E  0E00               	movlw	0
  1666   0025A0  6E2B               	movwf	(___lmul@product+3)^0,c
  1667   0025A2                     l3942:
  1668   0025A2  A020               	btfss	___lmul@multiplier^0,0,c
  1669   0025A4  EFD6  F012         	goto	u2921
  1670   0025A8  EFD8  F012         	goto	u2920
  1671   0025AC                     u2921:
  1672   0025AC  EFE0  F012         	goto	l3946
  1673   0025B0                     u2920:
  1674   0025B0  5024               	movf	___lmul@multiplicand^0,w,c
  1675   0025B2  2628               	addwf	___lmul@product^0,f,c
  1676   0025B4  5025               	movf	(___lmul@multiplicand+1)^0,w,c
  1677   0025B6  2229               	addwfc	(___lmul@product+1)^0,f,c
  1678   0025B8  5026               	movf	(___lmul@multiplicand+2)^0,w,c
  1679   0025BA  222A               	addwfc	(___lmul@product+2)^0,f,c
  1680   0025BC  5027               	movf	(___lmul@multiplicand+3)^0,w,c
  1681   0025BE  222B               	addwfc	(___lmul@product+3)^0,f,c
  1682   0025C0                     l3946:
  1683   0025C0  90D8               	bcf	status,0,c
  1684   0025C2  3624               	rlcf	___lmul@multiplicand^0,f,c
  1685   0025C4  3625               	rlcf	(___lmul@multiplicand+1)^0,f,c
  1686   0025C6  3626               	rlcf	(___lmul@multiplicand+2)^0,f,c
  1687   0025C8  3627               	rlcf	(___lmul@multiplicand+3)^0,f,c
  1688   0025CA  90D8               	bcf	status,0,c
  1689   0025CC  3223               	rrcf	(___lmul@multiplier+3)^0,f,c
  1690   0025CE  3222               	rrcf	(___lmul@multiplier+2)^0,f,c
  1691   0025D0  3221               	rrcf	(___lmul@multiplier+1)^0,f,c
  1692   0025D2  3220               	rrcf	___lmul@multiplier^0,f,c
  1693   0025D4  5020               	movf	___lmul@multiplier^0,w,c
  1694   0025D6  1021               	iorwf	(___lmul@multiplier+1)^0,w,c
  1695   0025D8  1022               	iorwf	(___lmul@multiplier+2)^0,w,c
  1696   0025DA  1023               	iorwf	(___lmul@multiplier+3)^0,w,c
  1697   0025DC  A4D8               	btfss	status,2,c
  1698   0025DE  EFF3  F012         	goto	u2931
  1699   0025E2  EFF5  F012         	goto	u2930
  1700   0025E6                     u2931:
  1701   0025E6  EFD1  F012         	goto	l3942
  1702   0025EA                     u2930:
  1703   0025EA  C028  F020         	movff	___lmul@product,?___lmul
  1704   0025EE  C029  F021         	movff	___lmul@product+1,?___lmul+1
  1705   0025F2  C02A  F022         	movff	___lmul@product+2,?___lmul+2
  1706   0025F6  C02B  F023         	movff	___lmul@product+3,?___lmul+3
  1707   0025FA  0012               	return		;funcret
  1708   0025FC                     __end_of___lmul:
  1709                           	callstack 0
  1710                           
  1711 ;; *************** function _Application_initialize *****************
  1712 ;; Defined at:
  1713 ;;		line 70 in file "app.c"
  1714 ;; Parameters:    Size  Location     Type
  1715 ;;		None
  1716 ;; Auto vars:     Size  Location     Type
  1717 ;;		None
  1718 ;; Return value:  Size  Location     Type
  1719 ;;                  1    wreg      void 
  1720 ;; Registers used:
  1721 ;;		wreg, fsr0l, fsr0h, fsr1l, fsr1h, fsr2l, fsr2h, status,2, status,0, tblptrl, tblptrh, tblptru, prodl, prodh, cstack
  1722 ;; Tracked objects:
  1723 ;;		On entry : 0/0
  1724 ;;		On exit  : 0/0
  1725 ;;		Unchanged: 0/0
  1726 ;; Data sizes:     COMRAM   BANK0   BANK1   BANK2   BANK3   BANK4   BANK5   BANK6   BANK7   BANK8   BANK9  BANK10  BANK1
      +1  BANK12  BANK13  BANK14  BANK15
  1727 ;;      Params:         0       0       0       0       0       0       0       0       0       0       0       0       
      +0       0       0       0       0
  1728 ;;      Locals:         0       0       0       0       0       0       0       0       0       0       0       0       
      +0       0       0       0       0
  1729 ;;      Temps:          0       0       0       0       0       0       0       0       0       0       0       0       
      +0       0       0       0       0
  1730 ;;      Totals:         0       0       0       0       0       0       0       0       0       0       0       0       
      +0       0       0       0       0
  1731 ;;Total ram usage:        0 bytes
  1732 ;; Hardware stack levels used: 1
  1733 ;; Hardware stack levels required when called: 14
  1734 ;; This function calls:
  1735 ;;		_Interrupt_INTx_Init
  1736 ;;		_Seven_Segm_Display_Number
  1737 ;;		_ecu_layer_initialize
  1738 ;;		_lcd_4bit_send_char_data_pos
  1739 ;;		_lcd_4bit_send_command
  1740 ;;		_start_message
  1741 ;; This function is called by:
  1742 ;;		_main
  1743 ;; This function uses a non-reentrant model
  1744 ;;
  1745                           
  1746                           	psect	text4
  1747   002090                     __ptext4:
  1748                           	callstack 0
  1749   002090                     _Application_initialize:
  1750                           	callstack 16
  1751   002090                     
  1752                           ;app.c: 71:     ecu_layer_initialize();
  1753   002090  EC67  F016         	call	_ecu_layer_initialize	;wreg free
  1754                           
  1755                           ;app.c: 72:     ret = lcd_4bit_send_command(&lcd, 0X01);
  1756   002094  0E5A               	movlw	low _lcd
  1757   002096  6E2B               	movwf	lcd_4bit_send_command@Lcd^0,c
  1758   002098  0E01               	movlw	1
  1759   00209A  6E2C               	movwf	lcd_4bit_send_command@command^0,c
  1760   00209C  ECBB  F013         	call	_lcd_4bit_send_command	;wreg free
  1761   0020A0  0100               	movlb	0	; () banked
  1762   0020A2  6FA2               	movwf	_ret& (0+255),b
  1763                           
  1764                           ;app.c: 73:     ret = lcd_4bit_send_char_data_pos(&lcd, player_one_row, 1, '|');
  1765   0020A4  0E5A               	movlw	low _lcd
  1766   0020A6  6FDF               	movwf	lcd_4bit_send_char_data_pos@Lcd& (0+255),b
  1767   0020A8  C0A1  F0E0         	movff	_player_one_row,lcd_4bit_send_char_data_pos@row
  1768   0020AC  0E01               	movlw	1
  1769   0020AE  6FE1               	movwf	lcd_4bit_send_char_data_pos@column& (0+255),b
  1770   0020B0  0E7C               	movlw	124
  1771   0020B2  6FE2               	movwf	lcd_4bit_send_char_data_pos@data& (0+255),b
  1772   0020B4  ECFB  F014         	call	_lcd_4bit_send_char_data_pos	;wreg free
  1773   0020B8  0100               	movlb	0	; () banked
  1774   0020BA  6FA2               	movwf	_ret& (0+255),b
  1775                           
  1776                           ;app.c: 74:     ret = lcd_4bit_send_char_data_pos(&lcd, player_two_row, 20, '|');
  1777   0020BC  0E5A               	movlw	low _lcd
  1778   0020BE  6FDF               	movwf	lcd_4bit_send_char_data_pos@Lcd& (0+255),b
  1779   0020C0  C0A0  F0E0         	movff	_player_two_row,lcd_4bit_send_char_data_pos@row
  1780   0020C4  0E14               	movlw	20
  1781   0020C6  6FE1               	movwf	lcd_4bit_send_char_data_pos@column& (0+255),b
  1782   0020C8  0E7C               	movlw	124
  1783   0020CA  6FE2               	movwf	lcd_4bit_send_char_data_pos@data& (0+255),b
  1784   0020CC  ECFB  F014         	call	_lcd_4bit_send_char_data_pos	;wreg free
  1785   0020D0  0100               	movlb	0	; () banked
  1786   0020D2  6FA2               	movwf	_ret& (0+255),b
  1787                           
  1788                           ;app.c: 75:     ret = lcd_4bit_send_char_data_pos(&lcd, ball_y, ball_x, 'o');
  1789   0020D4  0E5A               	movlw	low _lcd
  1790   0020D6  6FDF               	movwf	lcd_4bit_send_char_data_pos@Lcd& (0+255),b
  1791   0020D8  C09E  F0E0         	movff	_ball_y,lcd_4bit_send_char_data_pos@row
  1792   0020DC  C09F  F0E1         	movff	_ball_x,lcd_4bit_send_char_data_pos@column
  1793   0020E0  0E6F               	movlw	111
  1794   0020E2  6FE2               	movwf	lcd_4bit_send_char_data_pos@data& (0+255),b
  1795   0020E4  ECFB  F014         	call	_lcd_4bit_send_char_data_pos	;wreg free
  1796   0020E8  0100               	movlb	0	; () banked
  1797   0020EA  6FA2               	movwf	_ret& (0+255),b
  1798                           
  1799                           ;app.c: 76:     ret = Seven_Segm_Display_Number(&seg2, player_two_row);
  1800   0020EC  0EAF               	movlw	low _seg2
  1801   0020EE  6E28               	movwf	Seven_Segm_Display_Number@_Seven_Seg^0,c
  1802   0020F0  C0A0  F029         	movff	_player_two_row,Seven_Segm_Display_Number@number
  1803   0020F4  ECA4  F011         	call	_Seven_Segm_Display_Number	;wreg free
  1804   0020F8  0100               	movlb	0	; () banked
  1805   0020FA  6FA2               	movwf	_ret& (0+255),b
  1806                           
  1807                           ;app.c: 77:     ret = Seven_Segm_Display_Number(&seg1, player_one_row);
  1808   0020FC  0EB4               	movlw	low _seg1
  1809   0020FE  6E28               	movwf	Seven_Segm_Display_Number@_Seven_Seg^0,c
  1810   002100  C0A1  F029         	movff	_player_one_row,Seven_Segm_Display_Number@number
  1811   002104  ECA4  F011         	call	_Seven_Segm_Display_Number	;wreg free
  1812   002108  0100               	movlb	0	; () banked
  1813   00210A  6FA2               	movwf	_ret& (0+255),b
  1814                           
  1815                           ;app.c: 78:     ret = Interrupt_INTx_Init(&Player1);
  1816   00210C  0EA9               	movlw	low _Player1
  1817   00210E  6E2D               	movwf	Interrupt_INTx_Init@obj^0,c
  1818   002110  EC2F  F013         	call	_Interrupt_INTx_Init	;wreg free
  1819   002114  0100               	movlb	0	; () banked
  1820   002116  6FA2               	movwf	_ret& (0+255),b
  1821                           
  1822                           ;app.c: 79:     ret = Interrupt_INTx_Init(&Player2);
  1823   002118  0EA3               	movlw	low _Player2
  1824   00211A  6E2D               	movwf	Interrupt_INTx_Init@obj^0,c
  1825   00211C  EC2F  F013         	call	_Interrupt_INTx_Init	;wreg free
  1826   002120  0100               	movlb	0	; () banked
  1827   002122  6FA2               	movwf	_ret& (0+255),b
  1828   002124                     
  1829                           ; BSR set to: 0
  1830                           ;app.c: 80:     start_message();
  1831   002124  EC96  F00D         	call	_start_message	;wreg free
  1832   002128  0012               	return		;funcret
  1833   00212A                     __end_of_Application_initialize:
  1834                           	callstack 0
  1835                           
  1836 ;; *************** function _start_message *****************
  1837 ;; Defined at:
  1838 ;;		line 124 in file "app.c"
  1839 ;; Parameters:    Size  Location     Type
  1840 ;;		None
  1841 ;; Auto vars:     Size  Location     Type
  1842 ;;  message        20    0[BANK1 ] unsigned char [20]
  1843 ;;  i               2   20[BANK1 ] int 
  1844 ;; Return value:  Size  Location     Type
  1845 ;;                  1    wreg      void 
  1846 ;; Registers used:
  1847 ;;		wreg, fsr0l, fsr0h, fsr1l, fsr1h, fsr2l, fsr2h, status,2, status,0, tblptrl, tblptrh, tblptru, prodl, prodh, cstack
  1848 ;; Tracked objects:
  1849 ;;		On entry : 0/0
  1850 ;;		On exit  : 0/0
  1851 ;;		Unchanged: 0/0
  1852 ;; Data sizes:     COMRAM   BANK0   BANK1   BANK2   BANK3   BANK4   BANK5   BANK6   BANK7   BANK8   BANK9  BANK10  BANK1
      +1  BANK12  BANK13  BANK14  BANK15
  1853 ;;      Params:         0       0       0       0       0       0       0       0       0       0       0       0       
      +0       0       0       0       0
  1854 ;;      Locals:         0       0      22       0       0       0       0       0       0       0       0       0       
      +0       0       0       0       0
  1855 ;;      Temps:          0       2       0       0       0       0       0       0       0       0       0       0       
      +0       0       0       0       0
  1856 ;;      Totals:         0       2      22       0       0       0       0       0       0       0       0       0       
      +0       0       0       0       0
  1857 ;;Total ram usage:       24 bytes
  1858 ;; Hardware stack levels used: 1
  1859 ;; Hardware stack levels required when called: 13
  1860 ;; This function calls:
  1861 ;;		_lcd_4bit_send_string_pos
  1862 ;;		_sprintf
  1863 ;; This function is called by:
  1864 ;;		_Application_initialize
  1865 ;; This function uses a non-reentrant model
  1866 ;;
  1867                           
  1868                           	psect	text5
  1869   001B2C                     __ptext5:
  1870                           	callstack 0
  1871   001B2C                     _start_message:
  1872                           	callstack 16
  1873   001B2C                     
  1874                           ;app.c: 125:     for (int i = 3; i > 0; i--) {
  1875   001B2C  0E00               	movlw	0
  1876   001B2E  0101               	movlb	1	; () banked
  1877   001B30  6F15               	movwf	(start_message@i+1)& (0+255),b
  1878   001B32  0E03               	movlw	3
  1879   001B34  6F14               	movwf	start_message@i& (0+255),b
  1880   001B36                     l5730:
  1881                           
  1882                           ; BSR set to: 1
  1883                           ;app.c: 126:         char message[20];;app.c: 127:         sprintf(message, "Game starts
      +                           in %d", i);
  1884   001B36  0E00               	movlw	low start_message@message
  1885   001B38  0100               	movlb	0	; () banked
  1886   001B3A  6FE4               	movwf	sprintf@s& (0+255),b
  1887   001B3C  0E01               	movlw	high start_message@message
  1888   001B3E  6FE5               	movwf	(sprintf@s+1)& (0+255),b
  1889   001B40  0E39               	movlw	low STR_4
  1890   001B42  6FE6               	movwf	sprintf@fmt& (0+255),b
  1891   001B44  C114  F0E7         	movff	start_message@i,?_sprintf+3
  1892   001B48  C115  F0E8         	movff	start_message@i+1,?_sprintf+4
  1893   001B4C  EC1C  F015         	call	_sprintf	;wreg free
  1894   001B50                     
  1895                           ;app.c: 128:         ret = lcd_4bit_send_string_pos(&lcd, 4, 4, (uint8*)message);
  1896   001B50  0E5A               	movlw	low _lcd
  1897   001B52  0100               	movlb	0	; () banked
  1898   001B54  6FDF               	movwf	lcd_4bit_send_string_pos@Lcd& (0+255),b
  1899   001B56  0E04               	movlw	4
  1900   001B58  6FE0               	movwf	lcd_4bit_send_string_pos@row& (0+255),b
  1901   001B5A  0E04               	movlw	4
  1902   001B5C  6FE1               	movwf	lcd_4bit_send_string_pos@column& (0+255),b
  1903   001B5E  0E00               	movlw	low start_message@message
  1904   001B60  6FE2               	movwf	lcd_4bit_send_string_pos@str& (0+255),b
  1905   001B62  0E01               	movlw	high start_message@message
  1906   001B64  6FE3               	movwf	(lcd_4bit_send_string_pos@str+1)& (0+255),b
  1907   001B66  ECDA  F014         	call	_lcd_4bit_send_string_pos	;wreg free
  1908   001B6A  0100               	movlb	0	; () banked
  1909   001B6C  6FA2               	movwf	_ret& (0+255),b
  1910   001B6E                     
  1911                           ; BSR set to: 0
  1912                           ;app.c: 129:         _delay((unsigned long)((1000)*(8000000/4000.0)));
  1913   001B6E  0E0B               	movlw	11
  1914   001B70  0100               	movlb	0	; () banked
  1915   001B72  6FF7               	movwf	(??_start_message+1)& (0+255),b
  1916   001B74  0E26               	movlw	38
  1917   001B76  6FF6               	movwf	??_start_message& (0+255),b
  1918   001B78  0E5D               	movlw	93
  1919   001B7A                     u5747:
  1920   001B7A  2EE8               	decfsz	wreg,f,c
  1921   001B7C  D7FE               	bra	u5747
  1922   001B7E  2FF6               	decfsz	??_start_message& (0+255),f,b
  1923   001B80  D7FC               	bra	u5747
  1924   001B82  2FF7               	decfsz	(??_start_message+1)& (0+255),f,b
  1925   001B84  D7FA               	bra	u5747
  1926   001B86  D000               	nop2	
  1927   001B88                     
  1928                           ;app.c: 130:         ret = lcd_4bit_send_string_pos(&lcd, 4, 4, (uint8*)"               
      +                           ");
  1929   001B88  0E5A               	movlw	low _lcd
  1930   001B8A  0100               	movlb	0	; () banked
  1931   001B8C  6FDF               	movwf	lcd_4bit_send_string_pos@Lcd& (0+255),b
  1932   001B8E  0E04               	movlw	4
  1933   001B90  6FE0               	movwf	lcd_4bit_send_string_pos@row& (0+255),b
  1934   001B92  0E04               	movlw	4
  1935   001B94  6FE1               	movwf	lcd_4bit_send_string_pos@column& (0+255),b
  1936   001B96  0E15               	movlw	low (STR_8+4)
  1937   001B98  6FE2               	movwf	lcd_4bit_send_string_pos@str& (0+255),b
  1938   001B9A  51E2               	movf	lcd_4bit_send_string_pos@str& (0+255),w,b
  1939   001B9C  A4D8               	btfss	status,2,c
  1940   001B9E  0E10               	movlw	high __smallconst
  1941   001BA0  6FE3               	movwf	(lcd_4bit_send_string_pos@str+1)& (0+255),b
  1942   001BA2  ECDA  F014         	call	_lcd_4bit_send_string_pos	;wreg free
  1943   001BA6  0100               	movlb	0	; () banked
  1944   001BA8  6FA2               	movwf	_ret& (0+255),b
  1945   001BAA                     
  1946                           ; BSR set to: 0
  1947                           ;app.c: 131:     }
  1948   001BAA  0101               	movlb	1	; () banked
  1949   001BAC  0714               	decf	start_message@i& (0+255),f,b
  1950   001BAE  A0D8               	btfss	status,0,c
  1951   001BB0  0715               	decf	(start_message@i+1)& (0+255),f,b
  1952   001BB2                     
  1953                           ; BSR set to: 1
  1954   001BB2  BF15               	btfsc	(start_message@i+1)& (0+255),7,b
  1955   001BB4  EFE6  F00D         	goto	u5050
  1956   001BB8  5115               	movf	(start_message@i+1)& (0+255),w,b
  1957   001BBA  E106               	bnz	u5051
  1958   001BBC  0514               	decf	start_message@i& (0+255),w,b
  1959   001BBE  B0D8               	btfsc	status,0,c
  1960   001BC0  EFE4  F00D         	goto	u5051
  1961   001BC4  EFE6  F00D         	goto	u5050
  1962   001BC8                     u5051:
  1963   001BC8  EF9B  F00D         	goto	l5730
  1964   001BCC                     u5050:
  1965   001BCC                     
  1966                           ; BSR set to: 1
  1967                           ;app.c: 133:     ret = lcd_4bit_send_string_pos(&lcd, 4, 1, (uint8*)"         GO !     "
      +                          );
  1968   001BCC  0E5A               	movlw	low _lcd
  1969   001BCE  0100               	movlb	0	; () banked
  1970   001BD0  6FDF               	movwf	lcd_4bit_send_string_pos@Lcd& (0+255),b
  1971   001BD2  0E04               	movlw	4
  1972   001BD4  6FE0               	movwf	lcd_4bit_send_string_pos@row& (0+255),b
  1973   001BD6  0E01               	movlw	1
  1974   001BD8  6FE1               	movwf	lcd_4bit_send_string_pos@column& (0+255),b
  1975   001BDA  0E26               	movlw	low STR_6
  1976   001BDC  6FE2               	movwf	lcd_4bit_send_string_pos@str& (0+255),b
  1977   001BDE  51E2               	movf	lcd_4bit_send_string_pos@str& (0+255),w,b
  1978   001BE0  A4D8               	btfss	status,2,c
  1979   001BE2  0E10               	movlw	high __smallconst
  1980   001BE4  6FE3               	movwf	(lcd_4bit_send_string_pos@str+1)& (0+255),b
  1981   001BE6  ECDA  F014         	call	_lcd_4bit_send_string_pos	;wreg free
  1982   001BEA  0100               	movlb	0	; () banked
  1983   001BEC  6FA2               	movwf	_ret& (0+255),b
  1984   001BEE                     
  1985                           ; BSR set to: 0
  1986                           ;app.c: 134:     _delay((unsigned long)((500)*(8000000/4000.0)));
  1987   001BEE  0E06               	movlw	6
  1988   001BF0  0100               	movlb	0	; () banked
  1989   001BF2  6FF7               	movwf	(??_start_message+1)& (0+255),b
  1990   001BF4  0E13               	movlw	19
  1991   001BF6  6FF6               	movwf	??_start_message& (0+255),b
  1992   001BF8  0EAD               	movlw	173
  1993   001BFA                     u5757:
  1994   001BFA  2EE8               	decfsz	wreg,f,c
  1995   001BFC  D7FE               	bra	u5757
  1996   001BFE  2FF6               	decfsz	??_start_message& (0+255),f,b
  1997   001C00  D7FC               	bra	u5757
  1998   001C02  2FF7               	decfsz	(??_start_message+1)& (0+255),f,b
  1999   001C04  D7FA               	bra	u5757
  2000   001C06  D000               	nop2	
  2001   001C08                     
  2002                           ;app.c: 135:     ret = lcd_4bit_send_string_pos(&lcd, 4, 4, (uint8*)"                ");
  2003   001C08  0E5A               	movlw	low _lcd
  2004   001C0A  0100               	movlb	0	; () banked
  2005   001C0C  6FDF               	movwf	lcd_4bit_send_string_pos@Lcd& (0+255),b
  2006   001C0E  0E04               	movlw	4
  2007   001C10  6FE0               	movwf	lcd_4bit_send_string_pos@row& (0+255),b
  2008   001C12  0E04               	movlw	4
  2009   001C14  6FE1               	movwf	lcd_4bit_send_string_pos@column& (0+255),b
  2010   001C16  0E15               	movlw	low (STR_8+4)
  2011   001C18  6FE2               	movwf	lcd_4bit_send_string_pos@str& (0+255),b
  2012   001C1A  51E2               	movf	lcd_4bit_send_string_pos@str& (0+255),w,b
  2013   001C1C  A4D8               	btfss	status,2,c
  2014   001C1E  0E10               	movlw	high __smallconst
  2015   001C20  6FE3               	movwf	(lcd_4bit_send_string_pos@str+1)& (0+255),b
  2016   001C22  ECDA  F014         	call	_lcd_4bit_send_string_pos	;wreg free
  2017   001C26  0100               	movlb	0	; () banked
  2018   001C28  6FA2               	movwf	_ret& (0+255),b
  2019   001C2A                     
  2020                           ; BSR set to: 0
  2021   001C2A  0012               	return		;funcret
  2022   001C2C                     __end_of_start_message:
  2023                           	callstack 0
  2024                           
  2025 ;; *************** function _sprintf *****************
  2026 ;; Defined at:
  2027 ;;		line 9 in file "D:\IDE MCU\pic\sources\c99\common\nf_sprintf.c"
  2028 ;; Parameters:    Size  Location     Type
  2029 ;;  s               2   11[BANK0 ] PTR unsigned char 
  2030 ;;		 -> start_message@message(20), 
  2031 ;;  fmt             1   13[BANK0 ] PTR const unsigned char 
  2032 ;;		 -> STR_4(18), STR_3(3), STR_2(3), STR_1(3), 
  2033 ;; Auto vars:     Size  Location     Type
  2034 ;;  f              12   17[BANK0 ] struct _IO_FILE
  2035 ;;  ret             2    0        int 
  2036 ;;  ap              1   16[BANK0 ] PTR void [1]
  2037 ;;		 -> ?_sprintf(2), 
  2038 ;; Return value:  Size  Location     Type
  2039 ;;                  2   11[BANK0 ] int 
  2040 ;; Registers used:
  2041 ;;		wreg, fsr1l, fsr1h, fsr2l, fsr2h, status,2, status,0, tblptrl, tblptrh, tblptru, cstack
  2042 ;; Tracked objects:
  2043 ;;		On entry : 0/0
  2044 ;;		On exit  : 0/0
  2045 ;;		Unchanged: 0/0
  2046 ;; Data sizes:     COMRAM   BANK0   BANK1   BANK2   BANK3   BANK4   BANK5   BANK6   BANK7   BANK8   BANK9  BANK10  BANK1
      +1  BANK12  BANK13  BANK14  BANK15
  2047 ;;      Params:         0       5       0       0       0       0       0       0       0       0       0       0       
      +0       0       0       0       0
  2048 ;;      Locals:         0      13       0       0       0       0       0       0       0       0       0       0       
      +0       0       0       0       0
  2049 ;;      Temps:          0       0       0       0       0       0       0       0       0       0       0       0       
      +0       0       0       0       0
  2050 ;;      Totals:         0      18       0       0       0       0       0       0       0       0       0       0       
      +0       0       0       0       0
  2051 ;;Total ram usage:       18 bytes
  2052 ;; Hardware stack levels used: 1
  2053 ;; Hardware stack levels required when called: 12
  2054 ;; This function calls:
  2055 ;;		_vfprintf
  2056 ;; This function is called by:
  2057 ;;		_start_message
  2058 ;;		_convert_byte_to_string
  2059 ;;		_convert_short_to_string
  2060 ;;		_convert_int_to_string
  2061 ;; This function uses a non-reentrant model
  2062 ;;
  2063                           
  2064                           	psect	text6
  2065   002A38                     __ptext6:
  2066                           	callstack 0
  2067   002A38                     _sprintf:
  2068                           	callstack 16
  2069   002A38  0EE7               	movlw	low (?_sprintf+3)
  2070   002A3A  0100               	movlb	0	; () banked
  2071   002A3C  6FE9               	movwf	sprintf@ap& (0+255),b
  2072   002A3E  C0E4  F0EA         	movff	sprintf@s,sprintf@f
  2073   002A42  C0E5  F0EB         	movff	sprintf@s+1,sprintf@f+1
  2074   002A46                     
  2075                           ; BSR set to: 0
  2076   002A46  0E00               	movlw	0
  2077   002A48  6FEE               	movwf	(sprintf@f+4)& (0+255),b
  2078   002A4A  0E00               	movlw	0
  2079   002A4C  6FED               	movwf	(sprintf@f+3)& (0+255),b
  2080   002A4E                     
  2081                           ; BSR set to: 0
  2082   002A4E  0E00               	movlw	0
  2083   002A50  6FF5               	movwf	(sprintf@f+11)& (0+255),b
  2084   002A52  0E00               	movlw	0
  2085   002A54  6FF4               	movwf	(sprintf@f+10)& (0+255),b
  2086   002A56                     
  2087                           ; BSR set to: 0
  2088   002A56  0EEA               	movlw	low sprintf@f
  2089   002A58  6FE0               	movwf	vfprintf@fp& (0+255),b
  2090   002A5A  C0E6  F0E1         	movff	sprintf@fmt,vfprintf@fmt
  2091   002A5E  0EE9               	movlw	low sprintf@ap
  2092   002A60  6FE2               	movwf	vfprintf@ap& (0+255),b
  2093   002A62  ECB9  F014         	call	_vfprintf	;wreg free
  2094   002A66  0100               	movlb	0	; () banked
  2095   002A68  51ED               	movf	(sprintf@f+3)& (0+255),w,b
  2096   002A6A  25E4               	addwf	sprintf@s& (0+255),w,b
  2097   002A6C  6ED9               	movwf	fsr2l,c
  2098   002A6E  51EE               	movf	(sprintf@f+4)& (0+255),w,b
  2099   002A70  21E5               	addwfc	(sprintf@s+1)& (0+255),w,b
  2100   002A72  6EDA               	movwf	fsr2h,c
  2101   002A74  6ADF               	clrf	indf2,c
  2102   002A76                     
  2103                           ; BSR set to: 0
  2104   002A76  0012               	return		;funcret
  2105   002A78                     __end_of_sprintf:
  2106                           	callstack 0
  2107                           
  2108 ;; *************** function _vfprintf *****************
  2109 ;; Defined at:
  2110 ;;		line 1817 in file "D:\IDE MCU\pic\sources\c99\common\doprnt.c"
  2111 ;; Parameters:    Size  Location     Type
  2112 ;;  fp              1    7[BANK0 ] PTR struct _IO_FILE
  2113 ;;		 -> sprintf@f(12), 
  2114 ;;  fmt             1    8[BANK0 ] PTR const unsigned char 
  2115 ;;		 -> STR_4(18), STR_3(3), STR_2(3), STR_1(3), 
  2116 ;;  ap              1    9[BANK0 ] PTR PTR void 
  2117 ;;		 -> sprintf@ap(1), 
  2118 ;; Auto vars:     Size  Location     Type
  2119 ;;  cfmt            1   10[BANK0 ] PTR unsigned char 
  2120 ;;		 -> STR_4(18), STR_3(3), STR_2(3), STR_1(3), 
  2121 ;; Return value:  Size  Location     Type
  2122 ;;                  2    7[BANK0 ] int 
  2123 ;; Registers used:
  2124 ;;		wreg, fsr1l, fsr1h, fsr2l, fsr2h, status,2, status,0, tblptrl, tblptrh, tblptru, cstack
  2125 ;; Tracked objects:
  2126 ;;		On entry : 0/0
  2127 ;;		On exit  : 0/0
  2128 ;;		Unchanged: 0/0
  2129 ;; Data sizes:     COMRAM   BANK0   BANK1   BANK2   BANK3   BANK4   BANK5   BANK6   BANK7   BANK8   BANK9  BANK10  BANK1
      +1  BANK12  BANK13  BANK14  BANK15
  2130 ;;      Params:         0       3       0       0       0       0       0       0       0       0       0       0       
      +0       0       0       0       0
  2131 ;;      Locals:         0       1       0       0       0       0       0       0       0       0       0       0       
      +0       0       0       0       0
  2132 ;;      Temps:          0       0       0       0       0       0       0       0       0       0       0       0       
      +0       0       0       0       0
  2133 ;;      Totals:         0       4       0       0       0       0       0       0       0       0       0       0       
      +0       0       0       0       0
  2134 ;;Total ram usage:        4 bytes
  2135 ;; Hardware stack levels used: 1
  2136 ;; Hardware stack levels required when called: 11
  2137 ;; This function calls:
  2138 ;;		_vfpfcnvrt
  2139 ;; This function is called by:
  2140 ;;		_sprintf
  2141 ;; This function uses a non-reentrant model
  2142 ;;
  2143                           
  2144                           	psect	text7
  2145   002972                     __ptext7:
  2146                           	callstack 0
  2147   002972                     _vfprintf:
  2148                           	callstack 16
  2149   002972                     
  2150                           ;D:\IDE MCU\pic\sources\c99\common\doprnt.c: 1817: int vfprintf(FILE *fp, const char *fm
      +                          t, va_list ap);D:\IDE MCU\pic\sources\c99\common\doprnt.c: 1818: {;D:\IDE MCU\pic\source
      +                          s\c99\common\doprnt.c: 1820:     char *cfmt;;D:\IDE MCU\pic\sources\c99\common\doprnt.c:
      +                           1822:     cfmt = (char *)fmt;
  2151   002972  C0E1  F0E3         	movff	vfprintf@fmt,vfprintf@cfmt
  2152                           
  2153                           ;D:\IDE MCU\pic\sources\c99\common\doprnt.c: 1826:     while (*cfmt) {
  2154   002976  EFC5  F014         	goto	l5440
  2155   00297A                     l5438:
  2156                           
  2157                           ;D:\IDE MCU\pic\sources\c99\common\doprnt.c: 1830:    vfpfcnvrt(fp, &cfmt, ap);
  2158   00297A  C0E0  F02A         	movff	vfprintf@fp,vfpfcnvrt@fp
  2159   00297E  0EE3               	movlw	low vfprintf@cfmt
  2160   002980  6E2B               	movwf	vfpfcnvrt@fmt^0,c
  2161   002982  C0E2  F02C         	movff	vfprintf@ap,vfpfcnvrt@ap
  2162   002986  EC82  F00A         	call	_vfpfcnvrt	;wreg free
  2163   00298A                     l5440:
  2164                           
  2165                           ;D:\IDE MCU\pic\sources\c99\common\doprnt.c: 1826:     while (*cfmt) {
  2166   00298A  C0E3  FFF6         	movff	vfprintf@cfmt,tblptrl
  2167   00298E                     	if	1	;There is more than 1 active tblptr byte
  2168   00298E  0E10               	movlw	high __smallconst
  2169   002990  6EF7               	movwf	tblptrh,c
  2170   002992                     	endif
  2171   002992                     	if	1	;Program memory is < 0x10000, tblptru is always zero
  2172   002992  6AF8               	clrf	tblptru,c
  2173   002994                     	endif
  2174   002994                     	if	0	;tblptru may be non-zero
  2175   002994                     	endif
  2176   002994  0008               	tblrd		*
  2177   002996  50F5               	movf	tablat,w,c
  2178   002998  0900               	iorlw	0
  2179   00299A  A4D8               	btfss	status,2,c
  2180   00299C  EFD2  F014         	goto	u4811
  2181   0029A0  EFD4  F014         	goto	u4810
  2182   0029A4                     u4811:
  2183   0029A4  EFBD  F014         	goto	l5438
  2184   0029A8                     u4810:
  2185   0029A8                     
  2186                           ;D:\IDE MCU\pic\sources\c99\common\doprnt.c: 1835:  return 0;
  2187   0029A8  0E00               	movlw	0
  2188   0029AA  0100               	movlb	0	; () banked
  2189   0029AC  6FE1               	movwf	(?_vfprintf+1)& (0+255),b
  2190   0029AE  0E00               	movlw	0
  2191   0029B0  6FE0               	movwf	?_vfprintf& (0+255),b
  2192   0029B2                     
  2193                           ; BSR set to: 0
  2194   0029B2  0012               	return		;funcret
  2195   0029B4                     __end_of_vfprintf:
  2196                           	callstack 0
  2197                           
  2198 ;; *************** function _vfpfcnvrt *****************
  2199 ;; Defined at:
  2200 ;;		line 1177 in file "D:\IDE MCU\pic\sources\c99\common\doprnt.c"
  2201 ;; Parameters:    Size  Location     Type
  2202 ;;  fp              1   41[COMRAM] PTR struct _IO_FILE
  2203 ;;		 -> sprintf@f(12), 
  2204 ;;  fmt             1   42[COMRAM] PTR PTR unsigned char 
  2205 ;;		 -> vfprintf@cfmt(1), 
  2206 ;;  ap              1   43[COMRAM] PTR PTR void 
  2207 ;;		 -> sprintf@ap(1), 
  2208 ;; Auto vars:     Size  Location     Type
  2209 ;;  convarg         4    2[BANK0 ] struct .
  2210 ;;  c               1    6[BANK0 ] unsigned char 
  2211 ;;  cp              1    1[BANK0 ] PTR unsigned char 
  2212 ;;		 -> STR_4(18), STR_3(3), STR_2(3), STR_1(3), 
  2213 ;;  done            1    0[BANK0 ] _Bool 
  2214 ;; Return value:  Size  Location     Type
  2215 ;;                  1    wreg      void 
  2216 ;; Registers used:
  2217 ;;		wreg, fsr1l, fsr1h, fsr2l, fsr2h, status,2, status,0, tblptrl, tblptrh, tblptru, cstack
  2218 ;; Tracked objects:
  2219 ;;		On entry : 0/0
  2220 ;;		On exit  : 0/0
  2221 ;;		Unchanged: 0/0
  2222 ;; Data sizes:     COMRAM   BANK0   BANK1   BANK2   BANK3   BANK4   BANK5   BANK6   BANK7   BANK8   BANK9  BANK10  BANK1
      +1  BANK12  BANK13  BANK14  BANK15
  2223 ;;      Params:         3       0       0       0       0       0       0       0       0       0       0       0       
      +0       0       0       0       0
  2224 ;;      Locals:         0       7       0       0       0       0       0       0       0       0       0       0       
      +0       0       0       0       0
  2225 ;;      Temps:          1       0       0       0       0       0       0       0       0       0       0       0       
      +0       0       0       0       0
  2226 ;;      Totals:         4       7       0       0       0       0       0       0       0       0       0       0       
      +0       0       0       0       0
  2227 ;;Total ram usage:       11 bytes
  2228 ;; Hardware stack levels used: 1
  2229 ;; Hardware stack levels required when called: 10
  2230 ;; This function calls:
  2231 ;;		___awdiv
  2232 ;;		___awmod
  2233 ;;		_abs
  2234 ;;		_fputc
  2235 ;; This function is called by:
  2236 ;;		_vfprintf
  2237 ;; This function uses a non-reentrant model
  2238 ;;
  2239                           
  2240                           	psect	text8
  2241   001504                     __ptext8:
  2242                           	callstack 0
  2243   001504                     _vfpfcnvrt:
  2244                           	callstack 16
  2245   001504                     
  2246                           ;D:\IDE MCU\pic\sources\c99\common\doprnt.c: 1177: vfpfcnvrt(FILE *fp, char *fmt[], va_l
      +                          ist ap);D:\IDE MCU\pic\sources\c99\common\doprnt.c: 1178: {;D:\IDE MCU\pic\sources\c99\c
      +                          ommon\doprnt.c: 1179:     char c, *cp;;D:\IDE MCU\pic\sources\c99\common\doprnt.c: 1180:
      +                               _Bool done;;D:\IDE MCU\pic\sources\c99\common\doprnt.c: 1188:  } convarg;;D:\IDE MC
      +                          U\pic\sources\c99\common\doprnt.c: 1201:     if ((*fmt)[0] == '%') {
  2247   001504  502B               	movf	vfpfcnvrt@fmt^0,w,c
  2248   001506  6ED9               	movwf	fsr2l,c
  2249   001508  6ADA               	clrf	fsr2h,c
  2250   00150A  CFDF FFF6          	movff	indf2,tblptrl
  2251   00150E                     	if	1	;There is more than 1 active tblptr byte
  2252   00150E  0E10               	movlw	high __smallconst
  2253   001510  6EF7               	movwf	tblptrh,c
  2254   001512                     	endif
  2255   001512                     	if	1	;Program memory is < 0x10000, tblptru is always zero
  2256   001512  6AF8               	clrf	tblptru,c
  2257   001514                     	endif
  2258   001514                     	if	0	;tblptru may be non-zero
  2259   001514                     	endif
  2260   001514  0008               	tblrd		*
  2261   001516  50F5               	movf	tablat,w,c
  2262   001518  0A25               	xorlw	37
  2263   00151A  A4D8               	btfss	status,2,c
  2264   00151C  EF92  F00A         	goto	u4621
  2265   001520  EF94  F00A         	goto	u4620
  2266   001524                     u4621:
  2267   001524  EF52  F00B         	goto	l5346
  2268   001528                     u4620:
  2269   001528                     
  2270                           ;D:\IDE MCU\pic\sources\c99\common\doprnt.c: 1202:         ++*fmt;
  2271   001528  502B               	movf	vfpfcnvrt@fmt^0,w,c
  2272   00152A  6ED9               	movwf	fsr2l,c
  2273   00152C  6ADA               	clrf	fsr2h,c
  2274   00152E  2ADF               	incf	indf2,f,c
  2275   001530                     
  2276                           ;D:\IDE MCU\pic\sources\c99\common\doprnt.c: 1204:         flags = width = 0;
  2277   001530  0E00               	movlw	0
  2278   001532  6E2F               	movwf	(_width+1)^0,c
  2279   001534  0E00               	movlw	0
  2280   001536  6E2E               	movwf	_width^0,c
  2281   001538  C02E  F048         	movff	_width,_flags
  2282   00153C                     
  2283                           ;D:\IDE MCU\pic\sources\c99\common\doprnt.c: 1205:         prec = -1;
  2284   00153C  6830               	setf	_prec^0,c
  2285   00153E  6831               	setf	(_prec+1)^0,c
  2286   001540                     
  2287                           ;D:\IDE MCU\pic\sources\c99\common\doprnt.c: 1291:   cp = *fmt;
  2288   001540  502B               	movf	vfpfcnvrt@fmt^0,w,c
  2289   001542  6ED9               	movwf	fsr2l,c
  2290   001544  6ADA               	clrf	fsr2h,c
  2291   001546  50DF               	movf	indf2,w,c
  2292   001548  0100               	movlb	0	; () banked
  2293   00154A  6FDA               	movwf	vfpfcnvrt@cp& (0+255),b
  2294   00154C                     
  2295                           ; BSR set to: 0
  2296                           ;D:\IDE MCU\pic\sources\c99\common\doprnt.c: 1361:   if (*cp == 'd' || *cp == 'i') {
  2297   00154C  C0DA  FFF6         	movff	vfpfcnvrt@cp,tblptrl
  2298   001550                     	if	1	;There is more than 1 active tblptr byte
  2299   001550  0E10               	movlw	high __smallconst
  2300   001552  6EF7               	movwf	tblptrh,c
  2301   001554                     	endif
  2302   001554                     	if	1	;Program memory is < 0x10000, tblptru is always zero
  2303   001554  6AF8               	clrf	tblptru,c
  2304   001556                     	endif
  2305   001556                     	if	0	;tblptru may be non-zero
  2306   001556                     	endif
  2307   001556  0008               	tblrd		*
  2308   001558  50F5               	movf	tablat,w,c
  2309   00155A  0A64               	xorlw	100
  2310   00155C  B4D8               	btfsc	status,2,c
  2311   00155E  EFB3  F00A         	goto	u4631
  2312   001562  EFB5  F00A         	goto	u4630
  2313   001566                     u4631:
  2314   001566  EFC4  F00A         	goto	l5316
  2315   00156A                     u4630:
  2316   00156A                     
  2317                           ; BSR set to: 0
  2318   00156A  C0DA  FFF6         	movff	vfpfcnvrt@cp,tblptrl
  2319   00156E                     	if	1	;There is more than 1 active tblptr byte
  2320   00156E  0E10               	movlw	high __smallconst
  2321   001570  6EF7               	movwf	tblptrh,c
  2322   001572                     	endif
  2323   001572                     	if	1	;Program memory is < 0x10000, tblptru is always zero
  2324   001572  6AF8               	clrf	tblptru,c
  2325   001574                     	endif
  2326   001574                     	if	0	;tblptru may be non-zero
  2327   001574                     	endif
  2328   001574  0008               	tblrd		*
  2329   001576  50F5               	movf	tablat,w,c
  2330   001578  0A69               	xorlw	105
  2331   00157A  A4D8               	btfss	status,2,c
  2332   00157C  EFC2  F00A         	goto	u4641
  2333   001580  EFC4  F00A         	goto	u4640
  2334   001584                     u4641:
  2335   001584  EF4C  F00B         	goto	l5342
  2336   001588                     u4640:
  2337   001588                     l5316:
  2338                           
  2339                           ; BSR set to: 0
  2340                           ;D:\IDE MCU\pic\sources\c99\common\doprnt.c: 1404:    convarg.sint = (vfpf_sint_t)(int)(
      +                          *(int *)__va_arg(*(int **)ap, (int)0));
  2341   001588  502C               	movf	vfpfcnvrt@ap^0,w,c
  2342   00158A  6ED9               	movwf	fsr2l,c
  2343   00158C  6ADA               	clrf	fsr2h,c
  2344   00158E  0E02               	movlw	2
  2345   001590  26DF               	addwf	indf2,f,c
  2346   001592  5CDF               	subwf	indf2,w,c
  2347   001594  6ED9               	movwf	fsr2l,c
  2348   001596  6ADA               	clrf	fsr2h,c
  2349   001598  CFDE F0DB          	movff	postinc2,vfpfcnvrt@convarg
  2350   00159C  CFDE F0DC          	movff	postinc2,vfpfcnvrt@convarg+1
  2351   0015A0                     
  2352                           ; BSR set to: 0
  2353                           ;D:\IDE MCU\pic\sources\c99\common\doprnt.c: 1406:    *fmt = cp+1;
  2354   0015A0  502B               	movf	vfpfcnvrt@fmt^0,w,c
  2355   0015A2  6ED9               	movwf	fsr2l,c
  2356   0015A4  6ADA               	clrf	fsr2h,c
  2357   0015A6  29DA               	incf	vfpfcnvrt@cp& (0+255),w,b
  2358   0015A8  6EDF               	movwf	indf2,c
  2359   0015AA                     
  2360                           ; BSR set to: 0
  2361                           ;D:\IDE MCU\pic\sources\c99\common\doprnt.c: 1408:    c = sizeof(dbuf);
  2362   0015AA  0E20               	movlw	32
  2363   0015AC  6FDF               	movwf	vfpfcnvrt@c& (0+255),b
  2364                           
  2365                           ;D:\IDE MCU\pic\sources\c99\common\doprnt.c: 1409:    done = convarg.sint < 0;
  2366   0015AE  BFDC               	btfsc	(vfpfcnvrt@convarg+1)& (0+255),7,b
  2367   0015B0  EFDC  F00A         	goto	u4651
  2368   0015B4  EFDF  F00A         	goto	u4650
  2369   0015B8                     u4651:
  2370   0015B8  0E01               	movlw	1
  2371   0015BA  EFE0  F00A         	goto	u4660
  2372   0015BE                     u4650:
  2373   0015BE  0E00               	movlw	0
  2374   0015C0                     u4660:
  2375   0015C0  6FD9               	movwf	vfpfcnvrt@done& (0+255),b
  2376   0015C2                     l5322:
  2377                           
  2378                           ; BSR set to: 0
  2379                           ;D:\IDE MCU\pic\sources\c99\common\doprnt.c: 1411:     dbuf[--c] = abs(convarg.sint % 10
      +                          ) + '0';
  2380   0015C2  07DF               	decf	vfpfcnvrt@c& (0+255),f,b
  2381   0015C4  51DF               	movf	vfpfcnvrt@c& (0+255),w,b
  2382   0015C6  0FB9               	addlw	low _dbuf
  2383   0015C8  6ED9               	movwf	fsr2l,c
  2384   0015CA  6ADA               	clrf	fsr2h,c
  2385   0015CC  C0DB  F020         	movff	vfpfcnvrt@convarg,___awmod@dividend
  2386   0015D0  C0DC  F021         	movff	vfpfcnvrt@convarg+1,___awmod@dividend+1
  2387   0015D4  0E00               	movlw	0
  2388   0015D6  6E23               	movwf	(___awmod@divisor+1)^0,c
  2389   0015D8  0E0A               	movlw	10
  2390   0015DA  6E22               	movwf	___awmod@divisor^0,c
  2391   0015DC  EC4F  F00F         	call	___awmod	;wreg free
  2392   0015E0  C020  F026         	movff	?___awmod,abs@a
  2393   0015E4  C021  F027         	movff	?___awmod+1,abs@a+1
  2394   0015E8  ECB5  F015         	call	_abs	;wreg free
  2395   0015EC  5026               	movf	?_abs^0,w,c
  2396   0015EE  0F30               	addlw	48
  2397   0015F0  6EDF               	movwf	indf2,c
  2398   0015F2                     
  2399                           ;D:\IDE MCU\pic\sources\c99\common\doprnt.c: 1412:     convarg.sint /= 10;
  2400   0015F2  C0DB  F020         	movff	vfpfcnvrt@convarg,___awdiv@dividend
  2401   0015F6  C0DC  F021         	movff	vfpfcnvrt@convarg+1,___awdiv@dividend+1
  2402   0015FA  0E00               	movlw	0
  2403   0015FC  6E23               	movwf	(___awdiv@divisor+1)^0,c
  2404   0015FE  0E0A               	movlw	10
  2405   001600  6E22               	movwf	___awdiv@divisor^0,c
  2406   001602  EC90  F00E         	call	___awdiv	;wreg free
  2407   001606  C020  F0DB         	movff	?___awdiv,vfpfcnvrt@convarg
  2408   00160A  C021  F0DC         	movff	?___awdiv+1,vfpfcnvrt@convarg+1
  2409   00160E                     
  2410                           ;D:\IDE MCU\pic\sources\c99\common\doprnt.c: 1416:    } while (convarg.sint != 0 && c !=
      +                           0);
  2411   00160E  0100               	movlb	0	; () banked
  2412   001610  51DB               	movf	vfpfcnvrt@convarg& (0+255),w,b
  2413   001612  11DC               	iorwf	(vfpfcnvrt@convarg+1)& (0+255),w,b
  2414   001614  B4D8               	btfsc	status,2,c
  2415   001616  EF0F  F00B         	goto	u4671
  2416   00161A  EF11  F00B         	goto	u4670
  2417   00161E                     u4671:
  2418   00161E  EF19  F00B         	goto	l5330
  2419   001622                     u4670:
  2420   001622                     
  2421                           ; BSR set to: 0
  2422   001622  51DF               	movf	vfpfcnvrt@c& (0+255),w,b
  2423   001624  A4D8               	btfss	status,2,c
  2424   001626  EF17  F00B         	goto	u4681
  2425   00162A  EF19  F00B         	goto	u4680
  2426   00162E                     u4681:
  2427   00162E  EFE1  F00A         	goto	l5322
  2428   001632                     u4680:
  2429   001632                     l5330:
  2430                           
  2431                           ; BSR set to: 0
  2432                           ;D:\IDE MCU\pic\sources\c99\common\doprnt.c: 1417:    if (c != 0 && done) {
  2433   001632  51DF               	movf	vfpfcnvrt@c& (0+255),w,b
  2434   001634  B4D8               	btfsc	status,2,c
  2435   001636  EF1F  F00B         	goto	u4691
  2436   00163A  EF21  F00B         	goto	u4690
  2437   00163E                     u4691:
  2438   00163E  EF41  F00B         	goto	l5340
  2439   001642                     u4690:
  2440   001642                     
  2441                           ; BSR set to: 0
  2442   001642  51D9               	movf	vfpfcnvrt@done& (0+255),w,b
  2443   001644  B4D8               	btfsc	status,2,c
  2444   001646  EF27  F00B         	goto	u4701
  2445   00164A  EF29  F00B         	goto	u4700
  2446   00164E                     u4701:
  2447   00164E  EF41  F00B         	goto	l5340
  2448   001652                     u4700:
  2449   001652                     
  2450                           ; BSR set to: 0
  2451                           ;D:\IDE MCU\pic\sources\c99\common\doprnt.c: 1418:     dbuf[--c] = '-';
  2452   001652  07DF               	decf	vfpfcnvrt@c& (0+255),f,b
  2453   001654  51DF               	movf	vfpfcnvrt@c& (0+255),w,b
  2454   001656  0FB9               	addlw	low _dbuf
  2455   001658  6ED9               	movwf	fsr2l,c
  2456   00165A  6ADA               	clrf	fsr2h,c
  2457   00165C  0E2D               	movlw	45
  2458   00165E  6EDF               	movwf	indf2,c
  2459   001660  EF41  F00B         	goto	l5340
  2460   001664                     l5336:
  2461                           
  2462                           ; BSR set to: 0
  2463                           ;D:\IDE MCU\pic\sources\c99\common\doprnt.c: 1424:     fputc(dbuf[c++], fp);
  2464   001664  51DF               	movf	vfpfcnvrt@c& (0+255),w,b
  2465   001666  0FB9               	addlw	low _dbuf
  2466   001668  6ED9               	movwf	fsr2l,c
  2467   00166A  6ADA               	clrf	fsr2h,c
  2468   00166C  50DF               	movf	indf2,w,c
  2469   00166E  6E2D               	movwf	??_vfpfcnvrt^0,c
  2470   001670  502D               	movf	??_vfpfcnvrt^0,w,c
  2471   001672  6E20               	movwf	fputc@c^0,c
  2472   001674  6A21               	clrf	(fputc@c+1)^0,c
  2473   001676  C02A  F022         	movff	vfpfcnvrt@fp,fputc@fp
  2474   00167A  ECF2  F00E         	call	_fputc	;wreg free
  2475   00167E  0100               	movlb	0	; () banked
  2476   001680  2BDF               	incf	vfpfcnvrt@c& (0+255),f,b
  2477   001682                     l5340:
  2478                           
  2479                           ; BSR set to: 0
  2480                           ;D:\IDE MCU\pic\sources\c99\common\doprnt.c: 1423:    while (c != sizeof(dbuf)) {
  2481   001682  0E20               	movlw	32
  2482   001684  19DF               	xorwf	vfpfcnvrt@c& (0+255),w,b
  2483   001686  A4D8               	btfss	status,2,c
  2484   001688  EF48  F00B         	goto	u4711
  2485   00168C  EF4A  F00B         	goto	u4710
  2486   001690                     u4711:
  2487   001690  EF32  F00B         	goto	l5336
  2488   001694                     u4710:
  2489   001694  EF64  F00B         	goto	l1530
  2490   001698                     l5342:
  2491                           
  2492                           ;D:\IDE MCU\pic\sources\c99\common\doprnt.c: 1806:         ++*fmt;
  2493   001698  502B               	movf	vfpfcnvrt@fmt^0,w,c
  2494   00169A  6ED9               	movwf	fsr2l,c
  2495   00169C  6ADA               	clrf	fsr2h,c
  2496   00169E  2ADF               	incf	indf2,f,c
  2497   0016A0  EF64  F00B         	goto	l1530
  2498   0016A4                     l5346:
  2499                           
  2500                           ;D:\IDE MCU\pic\sources\c99\common\doprnt.c: 1811:     fputc((int)(*fmt)[0], fp);
  2501   0016A4  502B               	movf	vfpfcnvrt@fmt^0,w,c
  2502   0016A6  6ED9               	movwf	fsr2l,c
  2503   0016A8  6ADA               	clrf	fsr2h,c
  2504   0016AA  CFDF FFF6          	movff	indf2,tblptrl
  2505   0016AE                     	if	1	;There is more than 1 active tblptr byte
  2506   0016AE  0E10               	movlw	high __smallconst
  2507   0016B0  6EF7               	movwf	tblptrh,c
  2508   0016B2                     	endif
  2509   0016B2                     	if	1	;Program memory is < 0x10000, tblptru is always zero
  2510   0016B2  6AF8               	clrf	tblptru,c
  2511   0016B4                     	endif
  2512   0016B4                     	if	0	;tblptru may be non-zero
  2513   0016B4                     	endif
  2514   0016B4  0008               	tblrd		*
  2515   0016B6  50F5               	movf	tablat,w,c
  2516   0016B8  6E20               	movwf	fputc@c^0,c
  2517   0016BA  6A21               	clrf	(fputc@c+1)^0,c
  2518   0016BC  C02A  F022         	movff	vfpfcnvrt@fp,fputc@fp
  2519   0016C0  ECF2  F00E         	call	_fputc	;wreg free
  2520   0016C4  EF4C  F00B         	goto	l5342
  2521   0016C8                     l1530:
  2522   0016C8  0012               	return		;funcret
  2523   0016CA                     __end_of_vfpfcnvrt:
  2524                           	callstack 0
  2525                           
  2526 ;; *************** function _fputc *****************
  2527 ;; Defined at:
  2528 ;;		line 8 in file "D:\IDE MCU\pic\sources\c99\common\nf_fputc.c"
  2529 ;; Parameters:    Size  Location     Type
  2530 ;;  c               2   31[COMRAM] int 
  2531 ;;  fp              1   33[COMRAM] PTR struct _IO_FILE
  2532 ;;		 -> sprintf@f(12), 
  2533 ;; Auto vars:     Size  Location     Type
  2534 ;;		None
  2535 ;; Return value:  Size  Location     Type
  2536 ;;                  2   31[COMRAM] int 
  2537 ;; Registers used:
  2538 ;;		wreg, fsr1l, fsr1h, fsr2l, fsr2h, status,2, status,0, cstack
  2539 ;; Tracked objects:
  2540 ;;		On entry : 0/0
  2541 ;;		On exit  : 0/0
  2542 ;;		Unchanged: 0/0
  2543 ;; Data sizes:     COMRAM   BANK0   BANK1   BANK2   BANK3   BANK4   BANK5   BANK6   BANK7   BANK8   BANK9  BANK10  BANK1
      +1  BANK12  BANK13  BANK14  BANK15
  2544 ;;      Params:         3       0       0       0       0       0       0       0       0       0       0       0       
      +0       0       0       0       0
  2545 ;;      Locals:         0       0       0       0       0       0       0       0       0       0       0       0       
      +0       0       0       0       0
  2546 ;;      Temps:          5       0       0       0       0       0       0       0       0       0       0       0       
      +0       0       0       0       0
  2547 ;;      Totals:         8       0       0       0       0       0       0       0       0       0       0       0       
      +0       0       0       0       0
  2548 ;;Total ram usage:        8 bytes
  2549 ;; Hardware stack levels used: 1
  2550 ;; Hardware stack levels required when called: 9
  2551 ;; This function calls:
  2552 ;;		_putch
  2553 ;; This function is called by:
  2554 ;;		_vfpfcnvrt
  2555 ;; This function uses a non-reentrant model
  2556 ;;
  2557                           
  2558                           	psect	text9
  2559   001DE4                     __ptext9:
  2560                           	callstack 0
  2561   001DE4                     _fputc:
  2562                           	callstack 16
  2563   001DE4  5022               	movf	fputc@fp^0,w,c
  2564   001DE6  B4D8               	btfsc	status,2,c
  2565   001DE8  EFF8  F00E         	goto	u4491
  2566   001DEC  EFFA  F00E         	goto	u4490
  2567   001DF0                     u4491:
  2568   001DF0  EF02  F00F         	goto	l5246
  2569   001DF4                     u4490:
  2570   001DF4  5022               	movf	fputc@fp^0,w,c
  2571   001DF6  A4D8               	btfss	status,2,c
  2572   001DF8  EF00  F00F         	goto	u4501
  2573   001DFC  EF02  F00F         	goto	u4500
  2574   001E00                     u4501:
  2575   001E00  EF07  F00F         	goto	l5248
  2576   001E04                     u4500:
  2577   001E04                     l5246:
  2578   001E04  5020               	movf	fputc@c^0,w,c
  2579   001E06  ECB6  F016         	call	_putch
  2580   001E0A  EF4E  F00F         	goto	l1555
  2581   001E0E                     l5248:
  2582   001E0E  5022               	movf	fputc@fp^0,w,c
  2583   001E10  6ED9               	movwf	fsr2l,c
  2584   001E12  6ADA               	clrf	fsr2h,c
  2585   001E14  0E0A               	movlw	10
  2586   001E16  26D9               	addwf	fsr2l,f,c
  2587   001E18  50DE               	movf	postinc2,w,c
  2588   001E1A  10DE               	iorwf	postinc2,w,c
  2589   001E1C  B4D8               	btfsc	status,2,c
  2590   001E1E  EF13  F00F         	goto	u4511
  2591   001E22  EF15  F00F         	goto	u4510
  2592   001E26                     u4511:
  2593   001E26  EF2E  F00F         	goto	l5252
  2594   001E2A                     u4510:
  2595   001E2A  5022               	movf	fputc@fp^0,w,c
  2596   001E2C  6ED9               	movwf	fsr2l,c
  2597   001E2E  6ADA               	clrf	fsr2h,c
  2598   001E30  0E0A               	movlw	10
  2599   001E32  26D9               	addwf	fsr2l,f,c
  2600   001E34  5022               	movf	fputc@fp^0,w,c
  2601   001E36  6EE1               	movwf	fsr1l,c
  2602   001E38  6AE2               	clrf	fsr1h,c
  2603   001E3A  0E03               	movlw	3
  2604   001E3C  26E1               	addwf	fsr1l,f,c
  2605   001E3E  50DE               	movf	postinc2,w,c
  2606   001E40  5CE6               	subwf	postinc1,w,c
  2607   001E42  50E6               	movf	postinc1,w,c
  2608   001E44  0A80               	xorlw	128
  2609   001E46  6E27               	movwf	(??_fputc+4)^0,c
  2610   001E48  50DE               	movf	postinc2,w,c
  2611   001E4A  0A80               	xorlw	128
  2612   001E4C  5827               	subwfb	(??_fputc+4)^0,w,c
  2613   001E4E  B0D8               	btfsc	status,0,c
  2614   001E50  EF2C  F00F         	goto	u4521
  2615   001E54  EF2E  F00F         	goto	u4520
  2616   001E58                     u4521:
  2617   001E58  EF4E  F00F         	goto	l1555
  2618   001E5C                     u4520:
  2619   001E5C                     l5252:
  2620   001E5C  5022               	movf	fputc@fp^0,w,c
  2621   001E5E  6ED9               	movwf	fsr2l,c
  2622   001E60  6ADA               	clrf	fsr2h,c
  2623   001E62  0E03               	movlw	3
  2624   001E64  26D9               	addwf	fsr2l,f,c
  2625   001E66  CFDE F023          	movff	postinc2,??_fputc
  2626   001E6A  CFDD F024          	movff	postdec2,??_fputc+1
  2627   001E6E  5022               	movf	fputc@fp^0,w,c
  2628   001E70  6ED9               	movwf	fsr2l,c
  2629   001E72  6ADA               	clrf	fsr2h,c
  2630   001E74  CFDE F025          	movff	postinc2,??_fputc+2
  2631   001E78  CFDD F026          	movff	postdec2,??_fputc+3
  2632   001E7C  5023               	movf	??_fputc^0,w,c
  2633   001E7E  2425               	addwf	(??_fputc+2)^0,w,c
  2634   001E80  6ED9               	movwf	fsr2l,c
  2635   001E82  5024               	movf	(??_fputc+1)^0,w,c
  2636   001E84  2026               	addwfc	(??_fputc+3)^0,w,c
  2637   001E86  6EDA               	movwf	fsr2h,c
  2638   001E88  C020  FFDF         	movff	fputc@c,indf2
  2639   001E8C  5022               	movf	fputc@fp^0,w,c
  2640   001E8E  6ED9               	movwf	fsr2l,c
  2641   001E90  6ADA               	clrf	fsr2h,c
  2642   001E92  0E03               	movlw	3
  2643   001E94  26D9               	addwf	fsr2l,f,c
  2644   001E96  2ADE               	incf	postinc2,f,c
  2645   001E98  0E00               	movlw	0
  2646   001E9A  22DD               	addwfc	postdec2,f,c
  2647   001E9C                     l1555:
  2648   001E9C  0012               	return		;funcret
  2649   001E9E                     __end_of_fputc:
  2650                           	callstack 0
  2651                           
  2652 ;; *************** function _putch *****************
  2653 ;; Defined at:
  2654 ;;		line 7 in file "D:\IDE MCU\pic\sources\c99\common\putch.c"
  2655 ;; Parameters:    Size  Location     Type
  2656 ;;  c               1    wreg     unsigned char 
  2657 ;; Auto vars:     Size  Location     Type
  2658 ;;  c               1    0[COMRAM] unsigned char 
  2659 ;; Return value:  Size  Location     Type
  2660 ;;                  1    wreg      void 
  2661 ;; Registers used:
  2662 ;;		wreg
  2663 ;; Tracked objects:
  2664 ;;		On entry : 0/0
  2665 ;;		On exit  : 0/0
  2666 ;;		Unchanged: 0/0
  2667 ;; Data sizes:     COMRAM   BANK0   BANK1   BANK2   BANK3   BANK4   BANK5   BANK6   BANK7   BANK8   BANK9  BANK10  BANK1
      +1  BANK12  BANK13  BANK14  BANK15
  2668 ;;      Params:         0       0       0       0       0       0       0       0       0       0       0       0       
      +0       0       0       0       0
  2669 ;;      Locals:         0       0       0       0       0       0       0       0       0       0       0       0       
      +0       0       0       0       0
  2670 ;;      Temps:          0       0       0       0       0       0       0       0       0       0       0       0       
      +0       0       0       0       0
  2671 ;;      Totals:         0       0       0       0       0       0       0       0       0       0       0       0       
      +0       0       0       0       0
  2672 ;;Total ram usage:        0 bytes
  2673 ;; Hardware stack levels used: 1
  2674 ;; Hardware stack levels required when called: 8
  2675 ;; This function calls:
  2676 ;;		Nothing
  2677 ;; This function is called by:
  2678 ;;		_fputc
  2679 ;; This function uses a non-reentrant model
  2680 ;;
  2681                           
  2682                           	psect	text10
  2683   002D6C                     __ptext10:
  2684                           	callstack 0
  2685   002D6C                     _putch:
  2686                           	callstack 16
  2687   002D6C  0012               	return		;funcret
  2688   002D6E                     __end_of_putch:
  2689                           	callstack 0
  2690                           
  2691 ;; *************** function _abs *****************
  2692 ;; Defined at:
  2693 ;;		line 1 in file "D:\IDE MCU\pic\sources\c99\common\abs.c"
  2694 ;; Parameters:    Size  Location     Type
  2695 ;;  a               2   37[COMRAM] int 
  2696 ;; Auto vars:     Size  Location     Type
  2697 ;;		None
  2698 ;; Return value:  Size  Location     Type
  2699 ;;                  2   37[COMRAM] int 
  2700 ;; Registers used:
  2701 ;;		wreg, status,2, status,0
  2702 ;; Tracked objects:
  2703 ;;		On entry : 0/0
  2704 ;;		On exit  : 0/0
  2705 ;;		Unchanged: 0/0
  2706 ;; Data sizes:     COMRAM   BANK0   BANK1   BANK2   BANK3   BANK4   BANK5   BANK6   BANK7   BANK8   BANK9  BANK10  BANK1
      +1  BANK12  BANK13  BANK14  BANK15
  2707 ;;      Params:         2       0       0       0       0       0       0       0       0       0       0       0       
      +0       0       0       0       0
  2708 ;;      Locals:         0       0       0       0       0       0       0       0       0       0       0       0       
      +0       0       0       0       0
  2709 ;;      Temps:          2       0       0       0       0       0       0       0       0       0       0       0       
      +0       0       0       0       0
  2710 ;;      Totals:         4       0       0       0       0       0       0       0       0       0       0       0       
      +0       0       0       0       0
  2711 ;;Total ram usage:        4 bytes
  2712 ;; Hardware stack levels used: 1
  2713 ;; Hardware stack levels required when called: 8
  2714 ;; This function calls:
  2715 ;;		Nothing
  2716 ;; This function is called by:
  2717 ;;		_vfpfcnvrt
  2718 ;; This function uses a non-reentrant model
  2719 ;;
  2720                           
  2721                           	psect	text11
  2722   002B6A                     __ptext11:
  2723                           	callstack 0
  2724   002B6A                     _abs:
  2725                           	callstack 17
  2726   002B6A  BE27               	btfsc	(abs@a+1)^0,7,c
  2727   002B6C  EFBA  F015         	goto	u4531
  2728   002B70  EFBC  F015         	goto	u4530
  2729   002B74                     u4531:
  2730   002B74  EFC2  F015         	goto	l1540
  2731   002B78                     u4530:
  2732   002B78  C026  F026         	movff	abs@a,?_abs
  2733   002B7C  C027  F027         	movff	abs@a+1,?_abs+1
  2734   002B80  EFCE  F015         	goto	l1543
  2735   002B84                     l1540:
  2736   002B84  C026  F028         	movff	abs@a,??_abs
  2737   002B88  C027  F029         	movff	abs@a+1,??_abs+1
  2738   002B8C  1E28               	comf	??_abs^0,f,c
  2739   002B8E  1E29               	comf	(??_abs+1)^0,f,c
  2740   002B90  4A28               	infsnz	??_abs^0,f,c
  2741   002B92  2A29               	incf	(??_abs+1)^0,f,c
  2742   002B94  C028  F026         	movff	??_abs,?_abs
  2743   002B98  C029  F027         	movff	??_abs+1,?_abs+1
  2744   002B9C                     l1543:
  2745   002B9C  0012               	return		;funcret
  2746   002B9E                     __end_of_abs:
  2747                           	callstack 0
  2748                           
  2749 ;; *************** function ___awmod *****************
  2750 ;; Defined at:
  2751 ;;		line 7 in file "D:\IDE MCU\pic\sources\c99\common\awmod.c"
  2752 ;; Parameters:    Size  Location     Type
  2753 ;;  dividend        2   31[COMRAM] int 
  2754 ;;  divisor         2   33[COMRAM] int 
  2755 ;; Auto vars:     Size  Location     Type
  2756 ;;  sign            1   36[COMRAM] unsigned char 
  2757 ;;  counter         1   35[COMRAM] unsigned char 
  2758 ;; Return value:  Size  Location     Type
  2759 ;;                  2   31[COMRAM] int 
  2760 ;; Registers used:
  2761 ;;		wreg, status,2, status,0
  2762 ;; Tracked objects:
  2763 ;;		On entry : 0/0
  2764 ;;		On exit  : 0/0
  2765 ;;		Unchanged: 0/0
  2766 ;; Data sizes:     COMRAM   BANK0   BANK1   BANK2   BANK3   BANK4   BANK5   BANK6   BANK7   BANK8   BANK9  BANK10  BANK1
      +1  BANK12  BANK13  BANK14  BANK15
  2767 ;;      Params:         4       0       0       0       0       0       0       0       0       0       0       0       
      +0       0       0       0       0
  2768 ;;      Locals:         2       0       0       0       0       0       0       0       0       0       0       0       
      +0       0       0       0       0
  2769 ;;      Temps:          0       0       0       0       0       0       0       0       0       0       0       0       
      +0       0       0       0       0
  2770 ;;      Totals:         6       0       0       0       0       0       0       0       0       0       0       0       
      +0       0       0       0       0
  2771 ;;Total ram usage:        6 bytes
  2772 ;; Hardware stack levels used: 1
  2773 ;; Hardware stack levels required when called: 8
  2774 ;; This function calls:
  2775 ;;		Nothing
  2776 ;; This function is called by:
  2777 ;;		_vfpfcnvrt
  2778 ;; This function uses a non-reentrant model
  2779 ;;
  2780                           
  2781                           	psect	text12
  2782   001E9E                     __ptext12:
  2783                           	callstack 0
  2784   001E9E                     ___awmod:
  2785                           	callstack 17
  2786   001E9E  0E00               	movlw	0
  2787   001EA0  6E25               	movwf	___awmod@sign^0,c
  2788   001EA2  BE21               	btfsc	(___awmod@dividend+1)^0,7,c
  2789   001EA4  EF58  F00F         	goto	u4430
  2790   001EA8  EF56  F00F         	goto	u4431
  2791   001EAC                     u4431:
  2792   001EAC  EF5E  F00F         	goto	l5214
  2793   001EB0                     u4430:
  2794   001EB0  6C20               	negf	___awmod@dividend^0,c
  2795   001EB2  1E21               	comf	(___awmod@dividend+1)^0,f,c
  2796   001EB4  B0D8               	btfsc	status,0,c
  2797   001EB6  2A21               	incf	(___awmod@dividend+1)^0,f,c
  2798   001EB8  0E01               	movlw	1
  2799   001EBA  6E25               	movwf	___awmod@sign^0,c
  2800   001EBC                     l5214:
  2801   001EBC  BE23               	btfsc	(___awmod@divisor+1)^0,7,c
  2802   001EBE  EF65  F00F         	goto	u4440
  2803   001EC2  EF63  F00F         	goto	u4441
  2804   001EC6                     u4441:
  2805   001EC6  EF69  F00F         	goto	l5218
  2806   001ECA                     u4440:
  2807   001ECA  6C22               	negf	___awmod@divisor^0,c
  2808   001ECC  1E23               	comf	(___awmod@divisor+1)^0,f,c
  2809   001ECE  B0D8               	btfsc	status,0,c
  2810   001ED0  2A23               	incf	(___awmod@divisor+1)^0,f,c
  2811   001ED2                     l5218:
  2812   001ED2  5022               	movf	___awmod@divisor^0,w,c
  2813   001ED4  1023               	iorwf	(___awmod@divisor+1)^0,w,c
  2814   001ED6  B4D8               	btfsc	status,2,c
  2815   001ED8  EF70  F00F         	goto	u4451
  2816   001EDC  EF72  F00F         	goto	u4450
  2817   001EE0                     u4451:
  2818   001EE0  EF96  F00F         	goto	l5234
  2819   001EE4                     u4450:
  2820   001EE4  0E01               	movlw	1
  2821   001EE6  6E24               	movwf	___awmod@counter^0,c
  2822   001EE8  EF7A  F00F         	goto	l5224
  2823   001EEC                     l5222:
  2824   001EEC  90D8               	bcf	status,0,c
  2825   001EEE  3622               	rlcf	___awmod@divisor^0,f,c
  2826   001EF0  3623               	rlcf	(___awmod@divisor+1)^0,f,c
  2827   001EF2  2A24               	incf	___awmod@counter^0,f,c
  2828   001EF4                     l5224:
  2829   001EF4  AE23               	btfss	(___awmod@divisor+1)^0,7,c
  2830   001EF6  EF7F  F00F         	goto	u4461
  2831   001EFA  EF81  F00F         	goto	u4460
  2832   001EFE                     u4461:
  2833   001EFE  EF76  F00F         	goto	l5222
  2834   001F02                     u4460:
  2835   001F02                     l5226:
  2836   001F02  5022               	movf	___awmod@divisor^0,w,c
  2837   001F04  5C20               	subwf	___awmod@dividend^0,w,c
  2838   001F06  5023               	movf	(___awmod@divisor+1)^0,w,c
  2839   001F08  5821               	subwfb	(___awmod@dividend+1)^0,w,c
  2840   001F0A  A0D8               	btfss	status,0,c
  2841   001F0C  EF8A  F00F         	goto	u4471
  2842   001F10  EF8C  F00F         	goto	u4470
  2843   001F14                     u4471:
  2844   001F14  EF90  F00F         	goto	l5230
  2845   001F18                     u4470:
  2846   001F18  5022               	movf	___awmod@divisor^0,w,c
  2847   001F1A  5E20               	subwf	___awmod@dividend^0,f,c
  2848   001F1C  5023               	movf	(___awmod@divisor+1)^0,w,c
  2849   001F1E  5A21               	subwfb	(___awmod@dividend+1)^0,f,c
  2850   001F20                     l5230:
  2851   001F20  90D8               	bcf	status,0,c
  2852   001F22  3223               	rrcf	(___awmod@divisor+1)^0,f,c
  2853   001F24  3222               	rrcf	___awmod@divisor^0,f,c
  2854   001F26  2E24               	decfsz	___awmod@counter^0,f,c
  2855   001F28  EF81  F00F         	goto	l5226
  2856   001F2C                     l5234:
  2857   001F2C  5025               	movf	___awmod@sign^0,w,c
  2858   001F2E  B4D8               	btfsc	status,2,c
  2859   001F30  EF9C  F00F         	goto	u4481
  2860   001F34  EF9E  F00F         	goto	u4480
  2861   001F38                     u4481:
  2862   001F38  EFA2  F00F         	goto	l5238
  2863   001F3C                     u4480:
  2864   001F3C  6C20               	negf	___awmod@dividend^0,c
  2865   001F3E  1E21               	comf	(___awmod@dividend+1)^0,f,c
  2866   001F40  B0D8               	btfsc	status,0,c
  2867   001F42  2A21               	incf	(___awmod@dividend+1)^0,f,c
  2868   001F44                     l5238:
  2869   001F44  C020  F020         	movff	___awmod@dividend,?___awmod
  2870   001F48  C021  F021         	movff	___awmod@dividend+1,?___awmod+1
  2871   001F4C  0012               	return		;funcret
  2872   001F4E                     __end_of___awmod:
  2873                           	callstack 0
  2874                           
  2875 ;; *************** function ___awdiv *****************
  2876 ;; Defined at:
  2877 ;;		line 7 in file "D:\IDE MCU\pic\sources\c99\common\awdiv.c"
  2878 ;; Parameters:    Size  Location     Type
  2879 ;;  dividend        2   31[COMRAM] int 
  2880 ;;  divisor         2   33[COMRAM] int 
  2881 ;; Auto vars:     Size  Location     Type
  2882 ;;  quotient        2   37[COMRAM] int 
  2883 ;;  sign            1   36[COMRAM] unsigned char 
  2884 ;;  counter         1   35[COMRAM] unsigned char 
  2885 ;; Return value:  Size  Location     Type
  2886 ;;                  2   31[COMRAM] int 
  2887 ;; Registers used:
  2888 ;;		wreg, status,2, status,0
  2889 ;; Tracked objects:
  2890 ;;		On entry : 0/0
  2891 ;;		On exit  : 0/0
  2892 ;;		Unchanged: 0/0
  2893 ;; Data sizes:     COMRAM   BANK0   BANK1   BANK2   BANK3   BANK4   BANK5   BANK6   BANK7   BANK8   BANK9  BANK10  BANK1
      +1  BANK12  BANK13  BANK14  BANK15
  2894 ;;      Params:         4       0       0       0       0       0       0       0       0       0       0       0       
      +0       0       0       0       0
  2895 ;;      Locals:         4       0       0       0       0       0       0       0       0       0       0       0       
      +0       0       0       0       0
  2896 ;;      Temps:          0       0       0       0       0       0       0       0       0       0       0       0       
      +0       0       0       0       0
  2897 ;;      Totals:         8       0       0       0       0       0       0       0       0       0       0       0       
      +0       0       0       0       0
  2898 ;;Total ram usage:        8 bytes
  2899 ;; Hardware stack levels used: 1
  2900 ;; Hardware stack levels required when called: 8
  2901 ;; This function calls:
  2902 ;;		Nothing
  2903 ;; This function is called by:
  2904 ;;		_vfpfcnvrt
  2905 ;; This function uses a non-reentrant model
  2906 ;;
  2907                           
  2908                           	psect	text13
  2909   001D20                     __ptext13:
  2910                           	callstack 0
  2911   001D20                     ___awdiv:
  2912                           	callstack 17
  2913   001D20  0E00               	movlw	0
  2914   001D22  6E25               	movwf	___awdiv@sign^0,c
  2915   001D24  BE23               	btfsc	(___awdiv@divisor+1)^0,7,c
  2916   001D26  EF99  F00E         	goto	u4370
  2917   001D2A  EF97  F00E         	goto	u4371
  2918   001D2E                     u4371:
  2919   001D2E  EF9F  F00E         	goto	l5170
  2920   001D32                     u4370:
  2921   001D32  6C22               	negf	___awdiv@divisor^0,c
  2922   001D34  1E23               	comf	(___awdiv@divisor+1)^0,f,c
  2923   001D36  B0D8               	btfsc	status,0,c
  2924   001D38  2A23               	incf	(___awdiv@divisor+1)^0,f,c
  2925   001D3A  0E01               	movlw	1
  2926   001D3C  6E25               	movwf	___awdiv@sign^0,c
  2927   001D3E                     l5170:
  2928   001D3E  BE21               	btfsc	(___awdiv@dividend+1)^0,7,c
  2929   001D40  EFA6  F00E         	goto	u4380
  2930   001D44  EFA4  F00E         	goto	u4381
  2931   001D48                     u4381:
  2932   001D48  EFAC  F00E         	goto	l5176
  2933   001D4C                     u4380:
  2934   001D4C  6C20               	negf	___awdiv@dividend^0,c
  2935   001D4E  1E21               	comf	(___awdiv@dividend+1)^0,f,c
  2936   001D50  B0D8               	btfsc	status,0,c
  2937   001D52  2A21               	incf	(___awdiv@dividend+1)^0,f,c
  2938   001D54  0E01               	movlw	1
  2939   001D56  1A25               	xorwf	___awdiv@sign^0,f,c
  2940   001D58                     l5176:
  2941   001D58  0E00               	movlw	0
  2942   001D5A  6E27               	movwf	(___awdiv@quotient+1)^0,c
  2943   001D5C  0E00               	movlw	0
  2944   001D5E  6E26               	movwf	___awdiv@quotient^0,c
  2945   001D60  5022               	movf	___awdiv@divisor^0,w,c
  2946   001D62  1023               	iorwf	(___awdiv@divisor+1)^0,w,c
  2947   001D64  B4D8               	btfsc	status,2,c
  2948   001D66  EFB7  F00E         	goto	u4391
  2949   001D6A  EFB9  F00E         	goto	u4390
  2950   001D6E                     u4391:
  2951   001D6E  EFE1  F00E         	goto	l5198
  2952   001D72                     u4390:
  2953   001D72  0E01               	movlw	1
  2954   001D74  6E24               	movwf	___awdiv@counter^0,c
  2955   001D76  EFC1  F00E         	goto	l5184
  2956   001D7A                     l5182:
  2957   001D7A  90D8               	bcf	status,0,c
  2958   001D7C  3622               	rlcf	___awdiv@divisor^0,f,c
  2959   001D7E  3623               	rlcf	(___awdiv@divisor+1)^0,f,c
  2960   001D80  2A24               	incf	___awdiv@counter^0,f,c
  2961   001D82                     l5184:
  2962   001D82  AE23               	btfss	(___awdiv@divisor+1)^0,7,c
  2963   001D84  EFC6  F00E         	goto	u4401
  2964   001D88  EFC8  F00E         	goto	u4400
  2965   001D8C                     u4401:
  2966   001D8C  EFBD  F00E         	goto	l5182
  2967   001D90                     u4400:
  2968   001D90                     l5186:
  2969   001D90  90D8               	bcf	status,0,c
  2970   001D92  3626               	rlcf	___awdiv@quotient^0,f,c
  2971   001D94  3627               	rlcf	(___awdiv@quotient+1)^0,f,c
  2972   001D96  5022               	movf	___awdiv@divisor^0,w,c
  2973   001D98  5C20               	subwf	___awdiv@dividend^0,w,c
  2974   001D9A  5023               	movf	(___awdiv@divisor+1)^0,w,c
  2975   001D9C  5821               	subwfb	(___awdiv@dividend+1)^0,w,c
  2976   001D9E  A0D8               	btfss	status,0,c
  2977   001DA0  EFD4  F00E         	goto	u4411
  2978   001DA4  EFD6  F00E         	goto	u4410
  2979   001DA8                     u4411:
  2980   001DA8  EFDB  F00E         	goto	l5194
  2981   001DAC                     u4410:
  2982   001DAC  5022               	movf	___awdiv@divisor^0,w,c
  2983   001DAE  5E20               	subwf	___awdiv@dividend^0,f,c
  2984   001DB0  5023               	movf	(___awdiv@divisor+1)^0,w,c
  2985   001DB2  5A21               	subwfb	(___awdiv@dividend+1)^0,f,c
  2986   001DB4  8026               	bsf	___awdiv@quotient^0,0,c
  2987   001DB6                     l5194:
  2988   001DB6  90D8               	bcf	status,0,c
  2989   001DB8  3223               	rrcf	(___awdiv@divisor+1)^0,f,c
  2990   001DBA  3222               	rrcf	___awdiv@divisor^0,f,c
  2991   001DBC  2E24               	decfsz	___awdiv@counter^0,f,c
  2992   001DBE  EFC8  F00E         	goto	l5186
  2993   001DC2                     l5198:
  2994   001DC2  5025               	movf	___awdiv@sign^0,w,c
  2995   001DC4  B4D8               	btfsc	status,2,c
  2996   001DC6  EFE7  F00E         	goto	u4421
  2997   001DCA  EFE9  F00E         	goto	u4420
  2998   001DCE                     u4421:
  2999   001DCE  EFED  F00E         	goto	l5202
  3000   001DD2                     u4420:
  3001   001DD2  6C26               	negf	___awdiv@quotient^0,c
  3002   001DD4  1E27               	comf	(___awdiv@quotient+1)^0,f,c
  3003   001DD6  B0D8               	btfsc	status,0,c
  3004   001DD8  2A27               	incf	(___awdiv@quotient+1)^0,f,c
  3005   001DDA                     l5202:
  3006   001DDA  C026  F020         	movff	___awdiv@quotient,?___awdiv
  3007   001DDE  C027  F021         	movff	___awdiv@quotient+1,?___awdiv+1
  3008   001DE2  0012               	return		;funcret
  3009   001DE4                     __end_of___awdiv:
  3010                           	callstack 0
  3011                           
  3012 ;; *************** function _lcd_4bit_send_string_pos *****************
  3013 ;; Defined at:
  3014 ;;		line 168 in file "ECU_LAYER/Chr_Lcd/ecu_chr_lcd.c"
  3015 ;; Parameters:    Size  Location     Type
  3016 ;;  Lcd             1    6[BANK0 ] PTR const struct .
  3017 ;;		 -> lcd(6), 
  3018 ;;  row             1    7[BANK0 ] unsigned char 
  3019 ;;  column          1    8[BANK0 ] unsigned char 
  3020 ;;  str             2    9[BANK0 ] PTR unsigned char 
  3021 ;;		 -> STR_11(17), STR_10(21), STR_9(17), STR_8(21), 
  3022 ;;		 -> STR_7(17), STR_6(19), STR_5(17), start_message@message(20), 
  3023 ;; Auto vars:     Size  Location     Type
  3024 ;;  ret             1   11[BANK0 ] unsigned char 
  3025 ;; Return value:  Size  Location     Type
  3026 ;;                  1    wreg      unsigned char 
  3027 ;; Registers used:
  3028 ;;		wreg, fsr0l, fsr0h, fsr2l, fsr2h, status,2, status,0, tblptrl, tblptrh, tblptru, prodl, prodh, cstack
  3029 ;; Tracked objects:
  3030 ;;		On entry : 0/0
  3031 ;;		On exit  : 0/0
  3032 ;;		Unchanged: 0/0
  3033 ;; Data sizes:     COMRAM   BANK0   BANK1   BANK2   BANK3   BANK4   BANK5   BANK6   BANK7   BANK8   BANK9  BANK10  BANK1
      +1  BANK12  BANK13  BANK14  BANK15
  3034 ;;      Params:         0       5       0       0       0       0       0       0       0       0       0       0       
      +0       0       0       0       0
  3035 ;;      Locals:         0       1       0       0       0       0       0       0       0       0       0       0       
      +0       0       0       0       0
  3036 ;;      Temps:          0       0       0       0       0       0       0       0       0       0       0       0       
      +0       0       0       0       0
  3037 ;;      Totals:         0       6       0       0       0       0       0       0       0       0       0       0       
      +0       0       0       0       0
  3038 ;;Total ram usage:        6 bytes
  3039 ;; Hardware stack levels used: 1
  3040 ;; Hardware stack levels required when called: 12
  3041 ;; This function calls:
  3042 ;;		_lcd_4bit_send_string
  3043 ;;		_lcd_4bit_set_cursor
  3044 ;; This function is called by:
  3045 ;;		_start_message
  3046 ;;		_ball_move
  3047 ;; This function uses a non-reentrant model
  3048 ;;
  3049                           
  3050                           	psect	text14
  3051   0029B4                     __ptext14:
  3052                           	callstack 0
  3053   0029B4                     _lcd_4bit_send_string_pos:
  3054                           	callstack 17
  3055   0029B4                     
  3056                           ;ECU_LAYER/Chr_Lcd/ecu_chr_lcd.c: 170:     if (((void*)0) == Lcd) {
  3057   0029B4  0100               	movlb	0	; () banked
  3058   0029B6  51DF               	movf	lcd_4bit_send_string_pos@Lcd& (0+255),w,b
  3059   0029B8  A4D8               	btfss	status,2,c
  3060   0029BA  EFE1  F014         	goto	u4841
  3061   0029BE  EFE3  F014         	goto	u4840
  3062   0029C2                     u4841:
  3063   0029C2  EFE7  F014         	goto	l5494
  3064   0029C6                     u4840:
  3065   0029C6                     
  3066                           ; BSR set to: 0
  3067                           ;ECU_LAYER/Chr_Lcd/ecu_chr_lcd.c: 171:         ret = (Std_ReturnType)0X00;
  3068   0029C6  0E00               	movlw	0
  3069   0029C8  6FE4               	movwf	lcd_4bit_send_string_pos@ret& (0+255),b
  3070                           
  3071                           ;ECU_LAYER/Chr_Lcd/ecu_chr_lcd.c: 172:     } else {
  3072   0029CA  EFF9  F014         	goto	l5498
  3073   0029CE                     l5494:
  3074                           
  3075                           ; BSR set to: 0
  3076   0029CE  C0DF  F0D9         	movff	lcd_4bit_send_string_pos@Lcd,lcd_4bit_set_cursor@Lcd
  3077   0029D2  C0E0  F0DA         	movff	lcd_4bit_send_string_pos@row,lcd_4bit_set_cursor@row
  3078   0029D6  C0E1  F0DB         	movff	lcd_4bit_send_string_pos@column,lcd_4bit_set_cursor@column
  3079   0029DA  ECA7  F00F         	call	_lcd_4bit_set_cursor	;wreg free
  3080   0029DE                     
  3081                           ;ECU_LAYER/Chr_Lcd/ecu_chr_lcd.c: 174:         ret = lcd_4bit_send_string(Lcd, str);
  3082   0029DE  C0DF  F0D9         	movff	lcd_4bit_send_string_pos@Lcd,lcd_4bit_send_string@Lcd
  3083   0029E2  C0E2  F0DA         	movff	lcd_4bit_send_string_pos@str,lcd_4bit_send_string@str
  3084   0029E6  C0E3  F0DB         	movff	lcd_4bit_send_string_pos@str+1,lcd_4bit_send_string@str+1
  3085   0029EA  ECE1  F010         	call	_lcd_4bit_send_string	;wreg free
  3086   0029EE  0100               	movlb	0	; () banked
  3087   0029F0  6FE4               	movwf	lcd_4bit_send_string_pos@ret& (0+255),b
  3088   0029F2                     l5498:
  3089                           
  3090                           ; BSR set to: 0
  3091                           ;ECU_LAYER/Chr_Lcd/ecu_chr_lcd.c: 176:     return ret;
  3092   0029F2  51E4               	movf	lcd_4bit_send_string_pos@ret& (0+255),w,b
  3093   0029F4                     
  3094                           ; BSR set to: 0
  3095   0029F4  0012               	return		;funcret
  3096   0029F6                     __end_of_lcd_4bit_send_string_pos:
  3097                           	callstack 0
  3098                           
  3099 ;; *************** function _lcd_4bit_send_string *****************
  3100 ;; Defined at:
  3101 ;;		line 148 in file "ECU_LAYER/Chr_Lcd/ecu_chr_lcd.c"
  3102 ;; Parameters:    Size  Location     Type
  3103 ;;  Lcd             1    0[BANK0 ] PTR const struct .
  3104 ;;		 -> lcd(6), 
  3105 ;;  str             2    1[BANK0 ] PTR unsigned char 
  3106 ;;		 -> STR_11(17), STR_10(21), STR_9(17), STR_8(21), 
  3107 ;;		 -> STR_7(17), STR_6(19), STR_5(17), start_message@message(20), 
  3108 ;; Auto vars:     Size  Location     Type
  3109 ;;  ret             1    3[BANK0 ] unsigned char 
  3110 ;; Return value:  Size  Location     Type
  3111 ;;                  1    wreg      unsigned char 
  3112 ;; Registers used:
  3113 ;;		wreg, fsr0l, fsr0h, fsr2l, fsr2h, status,2, status,0, tblptrl, tblptrh, tblptru, prodl, prodh, cstack
  3114 ;; Tracked objects:
  3115 ;;		On entry : 0/0
  3116 ;;		On exit  : 0/0
  3117 ;;		Unchanged: 0/0
  3118 ;; Data sizes:     COMRAM   BANK0   BANK1   BANK2   BANK3   BANK4   BANK5   BANK6   BANK7   BANK8   BANK9  BANK10  BANK1
      +1  BANK12  BANK13  BANK14  BANK15
  3119 ;;      Params:         0       3       0       0       0       0       0       0       0       0       0       0       
      +0       0       0       0       0
  3120 ;;      Locals:         0       1       0       0       0       0       0       0       0       0       0       0       
      +0       0       0       0       0
  3121 ;;      Temps:          0       0       0       0       0       0       0       0       0       0       0       0       
      +0       0       0       0       0
  3122 ;;      Totals:         0       4       0       0       0       0       0       0       0       0       0       0       
      +0       0       0       0       0
  3123 ;;Total ram usage:        4 bytes
  3124 ;; Hardware stack levels used: 1
  3125 ;; Hardware stack levels required when called: 11
  3126 ;; This function calls:
  3127 ;;		_lcd_4bit_send_char_data
  3128 ;; This function is called by:
  3129 ;;		_lcd_4bit_send_string_pos
  3130 ;; This function uses a non-reentrant model
  3131 ;;
  3132                           
  3133                           	psect	text15
  3134   0021C2                     __ptext15:
  3135                           	callstack 0
  3136   0021C2                     _lcd_4bit_send_string:
  3137                           	callstack 17
  3138   0021C2                     
  3139                           ;ECU_LAYER/Chr_Lcd/ecu_chr_lcd.c: 149:     Std_ReturnType ret = (Std_ReturnType)0X01;
  3140   0021C2  0E01               	movlw	1
  3141   0021C4  0100               	movlb	0	; () banked
  3142   0021C6  6FDC               	movwf	lcd_4bit_send_string@ret& (0+255),b
  3143                           
  3144                           ;ECU_LAYER/Chr_Lcd/ecu_chr_lcd.c: 150:     if (((void*)0) == Lcd) {
  3145   0021C8  51D9               	movf	lcd_4bit_send_string@Lcd& (0+255),w,b
  3146   0021CA  A4D8               	btfss	status,2,c
  3147   0021CC  EFEA  F010         	goto	u4741
  3148   0021D0  EFEC  F010         	goto	u4740
  3149   0021D4                     u4741:
  3150   0021D4  EF0A  F011         	goto	l5394
  3151   0021D8                     u4740:
  3152   0021D8                     
  3153                           ; BSR set to: 0
  3154                           ;ECU_LAYER/Chr_Lcd/ecu_chr_lcd.c: 151:         ret = (Std_ReturnType)0X00;
  3155   0021D8  0E00               	movlw	0
  3156   0021DA  6FDC               	movwf	lcd_4bit_send_string@ret& (0+255),b
  3157                           
  3158                           ;ECU_LAYER/Chr_Lcd/ecu_chr_lcd.c: 152:     } else {
  3159   0021DC  EF23  F011         	goto	l5396
  3160   0021E0                     l5390:
  3161                           
  3162                           ;ECU_LAYER/Chr_Lcd/ecu_chr_lcd.c: 154:             ret = lcd_4bit_send_char_data(Lcd, *s
      +                          tr++);
  3163   0021E0  C0D9  F02B         	movff	lcd_4bit_send_string@Lcd,lcd_4bit_send_char_data@Lcd
  3164   0021E4  C0DA  FFF6         	movff	lcd_4bit_send_string@str,tblptrl
  3165   0021E8  C0DB  FFF7         	movff	lcd_4bit_send_string@str+1,tblptrh
  3166   0021EC  0E00               	movlw	low (__smallconst shr (0+16))
  3167   0021EE  6EF8               	movwf	tblptru,c
  3168   0021F0  0E0F               	movlw	(high __ramtop+-1)
  3169   0021F2  64F7               	cpfsgt	tblptrh,c
  3170   0021F4  D003               	bra	u4757
  3171   0021F6  0008               	tblrd		*
  3172   0021F8  50F5               	movf	tablat,w,c
  3173   0021FA  D005               	bra	u4750
  3174   0021FC                     u4757:
  3175   0021FC  CFF6 FFE9          	movff	tblptrl,fsr0l
  3176   002200  CFF7 FFEA          	movff	tblptrh,fsr0h
  3177   002204  50EF               	movf	indf0,w,c
  3178   002206                     u4750:
  3179   002206  6E2C               	movwf	lcd_4bit_send_char_data@data^0,c
  3180   002208  EC8D  F013         	call	_lcd_4bit_send_char_data	;wreg free
  3181   00220C  0100               	movlb	0	; () banked
  3182   00220E  6FDC               	movwf	lcd_4bit_send_string@ret& (0+255),b
  3183   002210                     
  3184                           ; BSR set to: 0
  3185   002210  4BDA               	infsnz	lcd_4bit_send_string@str& (0+255),f,b
  3186   002212  2BDB               	incf	(lcd_4bit_send_string@str+1)& (0+255),f,b
  3187   002214                     l5394:
  3188                           
  3189                           ; BSR set to: 0
  3190                           ;ECU_LAYER/Chr_Lcd/ecu_chr_lcd.c: 153:         while (*str) {
  3191   002214  C0DA  FFF6         	movff	lcd_4bit_send_string@str,tblptrl
  3192   002218  C0DB  FFF7         	movff	lcd_4bit_send_string@str+1,tblptrh
  3193   00221C  0E00               	movlw	low (__smallconst shr (0+16))
  3194   00221E  6EF8               	movwf	tblptru,c
  3195   002220  0E0F               	movlw	(high __ramtop+-1)
  3196   002222  64F7               	cpfsgt	tblptrh,c
  3197   002224  D003               	bra	u4767
  3198   002226  0008               	tblrd		*
  3199   002228  50F5               	movf	tablat,w,c
  3200   00222A  D005               	bra	u4760
  3201   00222C                     u4767:
  3202   00222C  CFF6 FFE9          	movff	tblptrl,fsr0l
  3203   002230  CFF7 FFEA          	movff	tblptrh,fsr0h
  3204   002234  50EF               	movf	indf0,w,c
  3205   002236                     u4760:
  3206   002236  0900               	iorlw	0
  3207   002238  A4D8               	btfss	status,2,c
  3208   00223A  EF21  F011         	goto	u4771
  3209   00223E  EF23  F011         	goto	u4770
  3210   002242                     u4771:
  3211   002242  EFF0  F010         	goto	l5390
  3212   002246                     u4770:
  3213   002246                     l5396:
  3214                           
  3215                           ;ECU_LAYER/Chr_Lcd/ecu_chr_lcd.c: 157:     return ret;
  3216   002246  0100               	movlb	0	; () banked
  3217   002248  51DC               	movf	lcd_4bit_send_string@ret& (0+255),w,b
  3218   00224A                     
  3219                           ; BSR set to: 0
  3220   00224A  0012               	return		;funcret
  3221   00224C                     __end_of_lcd_4bit_send_string:
  3222                           	callstack 0
  3223                           
  3224 ;; *************** function _lcd_4bit_send_char_data_pos *****************
  3225 ;; Defined at:
  3226 ;;		line 131 in file "ECU_LAYER/Chr_Lcd/ecu_chr_lcd.c"
  3227 ;; Parameters:    Size  Location     Type
  3228 ;;  Lcd             1    6[BANK0 ] PTR const struct .
  3229 ;;		 -> lcd(6), 
  3230 ;;  row             1    7[BANK0 ] unsigned char 
  3231 ;;  column          1    8[BANK0 ] unsigned char 
  3232 ;;  data            1    9[BANK0 ] unsigned char 
  3233 ;; Auto vars:     Size  Location     Type
  3234 ;;  ret             1   10[BANK0 ] unsigned char 
  3235 ;; Return value:  Size  Location     Type
  3236 ;;                  1    wreg      unsigned char 
  3237 ;; Registers used:
  3238 ;;		wreg, fsr2l, fsr2h, status,2, status,0, prodl, prodh, cstack
  3239 ;; Tracked objects:
  3240 ;;		On entry : 0/0
  3241 ;;		On exit  : 0/0
  3242 ;;		Unchanged: 0/0
  3243 ;; Data sizes:     COMRAM   BANK0   BANK1   BANK2   BANK3   BANK4   BANK5   BANK6   BANK7   BANK8   BANK9  BANK10  BANK1
      +1  BANK12  BANK13  BANK14  BANK15
  3244 ;;      Params:         0       4       0       0       0       0       0       0       0       0       0       0       
      +0       0       0       0       0
  3245 ;;      Locals:         0       1       0       0       0       0       0       0       0       0       0       0       
      +0       0       0       0       0
  3246 ;;      Temps:          0       0       0       0       0       0       0       0       0       0       0       0       
      +0       0       0       0       0
  3247 ;;      Totals:         0       5       0       0       0       0       0       0       0       0       0       0       
      +0       0       0       0       0
  3248 ;;Total ram usage:        5 bytes
  3249 ;; Hardware stack levels used: 1
  3250 ;; Hardware stack levels required when called: 12
  3251 ;; This function calls:
  3252 ;;		_lcd_4bit_send_char_data
  3253 ;;		_lcd_4bit_set_cursor
  3254 ;; This function is called by:
  3255 ;;		_Application_initialize
  3256 ;;		_ball_move
  3257 ;;		_lcd_4bit_send_custom_ch
  3258 ;; This function uses a non-reentrant model
  3259 ;;
  3260                           
  3261                           	psect	text16
  3262   0029F6                     __ptext16:
  3263                           	callstack 0
  3264   0029F6                     _lcd_4bit_send_char_data_pos:
  3265                           	callstack 17
  3266   0029F6                     
  3267                           ;ECU_LAYER/Chr_Lcd/ecu_chr_lcd.c: 133:     if (((void*)0) == Lcd) {
  3268   0029F6  0100               	movlb	0	; () banked
  3269   0029F8  51DF               	movf	lcd_4bit_send_char_data_pos@Lcd& (0+255),w,b
  3270   0029FA  A4D8               	btfss	status,2,c
  3271   0029FC  EF02  F015         	goto	u4971
  3272   002A00  EF04  F015         	goto	u4970
  3273   002A04                     u4971:
  3274   002A04  EF08  F015         	goto	l5640
  3275   002A08                     u4970:
  3276   002A08                     
  3277                           ; BSR set to: 0
  3278                           ;ECU_LAYER/Chr_Lcd/ecu_chr_lcd.c: 134:         ret = (Std_ReturnType)0X00;
  3279   002A08  0E00               	movlw	0
  3280   002A0A  6FE3               	movwf	lcd_4bit_send_char_data_pos@ret& (0+255),b
  3281                           
  3282                           ;ECU_LAYER/Chr_Lcd/ecu_chr_lcd.c: 135:     } else {
  3283   002A0C  EF1A  F015         	goto	l5642
  3284   002A10                     l5640:
  3285                           
  3286                           ; BSR set to: 0
  3287                           ;ECU_LAYER/Chr_Lcd/ecu_chr_lcd.c: 136:         ret = lcd_4bit_set_cursor(Lcd, row, colum
      +                          n);
  3288   002A10  C0DF  F0D9         	movff	lcd_4bit_send_char_data_pos@Lcd,lcd_4bit_set_cursor@Lcd
  3289   002A14  C0E0  F0DA         	movff	lcd_4bit_send_char_data_pos@row,lcd_4bit_set_cursor@row
  3290   002A18  C0E1  F0DB         	movff	lcd_4bit_send_char_data_pos@column,lcd_4bit_set_cursor@column
  3291   002A1C  ECA7  F00F         	call	_lcd_4bit_set_cursor	;wreg free
  3292   002A20  0100               	movlb	0	; () banked
  3293   002A22  6FE3               	movwf	lcd_4bit_send_char_data_pos@ret& (0+255),b
  3294                           
  3295                           ;ECU_LAYER/Chr_Lcd/ecu_chr_lcd.c: 137:         ret = lcd_4bit_send_char_data(Lcd, data);
  3296   002A24  C0DF  F02B         	movff	lcd_4bit_send_char_data_pos@Lcd,lcd_4bit_send_char_data@Lcd
  3297   002A28  C0E2  F02C         	movff	lcd_4bit_send_char_data_pos@data,lcd_4bit_send_char_data@data
  3298   002A2C  EC8D  F013         	call	_lcd_4bit_send_char_data	;wreg free
  3299   002A30  0100               	movlb	0	; () banked
  3300   002A32  6FE3               	movwf	lcd_4bit_send_char_data_pos@ret& (0+255),b
  3301   002A34                     l5642:
  3302                           
  3303                           ; BSR set to: 0
  3304                           ;ECU_LAYER/Chr_Lcd/ecu_chr_lcd.c: 139:     return ret;
  3305   002A34  51E3               	movf	lcd_4bit_send_char_data_pos@ret& (0+255),w,b
  3306   002A36                     
  3307                           ; BSR set to: 0
  3308   002A36  0012               	return		;funcret
  3309   002A38                     __end_of_lcd_4bit_send_char_data_pos:
  3310                           	callstack 0
  3311                           
  3312 ;; *************** function _lcd_4bit_set_cursor *****************
  3313 ;; Defined at:
  3314 ;;		line 433 in file "ECU_LAYER/Chr_Lcd/ecu_chr_lcd.c"
  3315 ;; Parameters:    Size  Location     Type
  3316 ;;  Lcd             1    0[BANK0 ] PTR const struct .
  3317 ;;		 -> lcd(6), 
  3318 ;;  row             1    1[BANK0 ] unsigned char 
  3319 ;;  column          1    2[BANK0 ] unsigned char 
  3320 ;; Auto vars:     Size  Location     Type
  3321 ;;  ret             1    5[BANK0 ] unsigned char 
  3322 ;; Return value:  Size  Location     Type
  3323 ;;                  1    wreg      unsigned char 
  3324 ;; Registers used:
  3325 ;;		wreg, fsr2l, fsr2h, status,2, status,0, prodl, prodh, cstack
  3326 ;; Tracked objects:
  3327 ;;		On entry : 0/0
  3328 ;;		On exit  : 0/0
  3329 ;;		Unchanged: 0/0
  3330 ;; Data sizes:     COMRAM   BANK0   BANK1   BANK2   BANK3   BANK4   BANK5   BANK6   BANK7   BANK8   BANK9  BANK10  BANK1
      +1  BANK12  BANK13  BANK14  BANK15
  3331 ;;      Params:         0       3       0       0       0       0       0       0       0       0       0       0       
      +0       0       0       0       0
  3332 ;;      Locals:         0       1       0       0       0       0       0       0       0       0       0       0       
      +0       0       0       0       0
  3333 ;;      Temps:          0       2       0       0       0       0       0       0       0       0       0       0       
      +0       0       0       0       0
  3334 ;;      Totals:         0       6       0       0       0       0       0       0       0       0       0       0       
      +0       0       0       0       0
  3335 ;;Total ram usage:        6 bytes
  3336 ;; Hardware stack levels used: 1
  3337 ;; Hardware stack levels required when called: 11
  3338 ;; This function calls:
  3339 ;;		_lcd_4bit_send_command
  3340 ;; This function is called by:
  3341 ;;		_lcd_4bit_send_char_data_pos
  3342 ;;		_lcd_4bit_send_string_pos
  3343 ;; This function uses a non-reentrant model
  3344 ;;
  3345                           
  3346                           	psect	text17
  3347   001F4E                     __ptext17:
  3348                           	callstack 0
  3349   001F4E                     _lcd_4bit_set_cursor:
  3350                           	callstack 17
  3351   001F4E                     
  3352                           ;ECU_LAYER/Chr_Lcd/ecu_chr_lcd.c: 434:     Std_ReturnType ret = (Std_ReturnType)0X01;
  3353   001F4E  0E01               	movlw	1
  3354   001F50  0100               	movlb	0	; () banked
  3355   001F52  6FDE               	movwf	lcd_4bit_set_cursor@ret& (0+255),b
  3356   001F54                     
  3357                           ; BSR set to: 0
  3358                           ;ECU_LAYER/Chr_Lcd/ecu_chr_lcd.c: 435:     column--;
  3359   001F54  07DB               	decf	lcd_4bit_set_cursor@column& (0+255),f,b
  3360                           
  3361                           ;ECU_LAYER/Chr_Lcd/ecu_chr_lcd.c: 436:     switch (row) {
  3362   001F56  EFD9  F00F         	goto	l5376
  3363   001F5A                     l5368:
  3364                           
  3365                           ; BSR set to: 0
  3366   001F5A  C0D9  F02B         	movff	lcd_4bit_set_cursor@Lcd,lcd_4bit_send_command@Lcd
  3367   001F5E  51DB               	movf	lcd_4bit_set_cursor@column& (0+255),w,b
  3368   001F60  0F80               	addlw	128
  3369   001F62  6E2C               	movwf	lcd_4bit_send_command@command^0,c
  3370   001F64  ECBB  F013         	call	_lcd_4bit_send_command	;wreg free
  3371   001F68  0100               	movlb	0	; () banked
  3372   001F6A  6FDE               	movwf	lcd_4bit_set_cursor@ret& (0+255),b
  3373                           
  3374                           ;ECU_LAYER/Chr_Lcd/ecu_chr_lcd.c: 438:             break;
  3375   001F6C  EFF6  F00F         	goto	l5378
  3376   001F70                     l5370:
  3377                           
  3378                           ; BSR set to: 0
  3379   001F70  C0D9  F02B         	movff	lcd_4bit_set_cursor@Lcd,lcd_4bit_send_command@Lcd
  3380   001F74  51DB               	movf	lcd_4bit_set_cursor@column& (0+255),w,b
  3381   001F76  0FC0               	addlw	192
  3382   001F78  6E2C               	movwf	lcd_4bit_send_command@command^0,c
  3383   001F7A  ECBB  F013         	call	_lcd_4bit_send_command	;wreg free
  3384   001F7E  0100               	movlb	0	; () banked
  3385   001F80  6FDE               	movwf	lcd_4bit_set_cursor@ret& (0+255),b
  3386                           
  3387                           ;ECU_LAYER/Chr_Lcd/ecu_chr_lcd.c: 440:             break;
  3388   001F82  EFF6  F00F         	goto	l5378
  3389   001F86                     l5372:
  3390                           
  3391                           ; BSR set to: 0
  3392   001F86  C0D9  F02B         	movff	lcd_4bit_set_cursor@Lcd,lcd_4bit_send_command@Lcd
  3393   001F8A  51DB               	movf	lcd_4bit_set_cursor@column& (0+255),w,b
  3394   001F8C  0F94               	addlw	148
  3395   001F8E  6E2C               	movwf	lcd_4bit_send_command@command^0,c
  3396   001F90  ECBB  F013         	call	_lcd_4bit_send_command	;wreg free
  3397   001F94  0100               	movlb	0	; () banked
  3398   001F96  6FDE               	movwf	lcd_4bit_set_cursor@ret& (0+255),b
  3399                           
  3400                           ;ECU_LAYER/Chr_Lcd/ecu_chr_lcd.c: 442:             break;
  3401   001F98  EFF6  F00F         	goto	l5378
  3402   001F9C                     l5374:
  3403                           
  3404                           ; BSR set to: 0
  3405   001F9C  C0D9  F02B         	movff	lcd_4bit_set_cursor@Lcd,lcd_4bit_send_command@Lcd
  3406   001FA0  51DB               	movf	lcd_4bit_set_cursor@column& (0+255),w,b
  3407   001FA2  0FD4               	addlw	212
  3408   001FA4  6E2C               	movwf	lcd_4bit_send_command@command^0,c
  3409   001FA6  ECBB  F013         	call	_lcd_4bit_send_command	;wreg free
  3410   001FAA  0100               	movlb	0	; () banked
  3411   001FAC  6FDE               	movwf	lcd_4bit_set_cursor@ret& (0+255),b
  3412                           
  3413                           ;ECU_LAYER/Chr_Lcd/ecu_chr_lcd.c: 444:             break;
  3414   001FAE  EFF6  F00F         	goto	l5378
  3415   001FB2                     l5376:
  3416                           
  3417                           ; BSR set to: 0
  3418   001FB2  51DA               	movf	lcd_4bit_set_cursor@row& (0+255),w,b
  3419   001FB4  6FDC               	movwf	??_lcd_4bit_set_cursor& (0+255),b
  3420   001FB6  6BDD               	clrf	(??_lcd_4bit_set_cursor+1)& (0+255),b
  3421                           
  3422                           ; Switch on 2 bytes has been partitioned into a top level switch of size 1, and 1 sub-sw
      +                          itches
  3423                           ; Switch size 1, requested type "simple"
  3424                           ; Number of cases is 1, Range of values is 0 to 0
  3425                           ; switch strategies available:
  3426                           ; Name         Instructions Cycles
  3427                           ; simple_byte            4     3 (average)
  3428                           ;	Chosen strategy is simple_byte
  3429   001FB8  51DD               	movf	(??_lcd_4bit_set_cursor+1)& (0+255),w,b
  3430   001FBA  0A00               	xorlw	0	; case 0
  3431   001FBC  B4D8               	btfsc	status,2,c
  3432   001FBE  EFE3  F00F         	goto	l6510
  3433   001FC2  EFF6  F00F         	goto	l5378
  3434   001FC6                     l6510:
  3435                           
  3436                           ; BSR set to: 0
  3437                           ; Switch size 1, requested type "simple"
  3438                           ; Number of cases is 4, Range of values is 1 to 4
  3439                           ; switch strategies available:
  3440                           ; Name         Instructions Cycles
  3441                           ; simple_byte           13     7 (average)
  3442                           ;	Chosen strategy is simple_byte
  3443   001FC6  51DC               	movf	??_lcd_4bit_set_cursor& (0+255),w,b
  3444   001FC8  0A01               	xorlw	1	; case 1
  3445   001FCA  B4D8               	btfsc	status,2,c
  3446   001FCC  EFAD  F00F         	goto	l5368
  3447   001FD0  0A03               	xorlw	3	; case 2
  3448   001FD2  B4D8               	btfsc	status,2,c
  3449   001FD4  EFB8  F00F         	goto	l5370
  3450   001FD8  0A01               	xorlw	1	; case 3
  3451   001FDA  B4D8               	btfsc	status,2,c
  3452   001FDC  EFC3  F00F         	goto	l5372
  3453   001FE0  0A07               	xorlw	7	; case 4
  3454   001FE2  B4D8               	btfsc	status,2,c
  3455   001FE4  EFCE  F00F         	goto	l5374
  3456   001FE8  EFF6  F00F         	goto	l5378
  3457   001FEC                     l5378:
  3458                           
  3459                           ; BSR set to: 0
  3460                           ;ECU_LAYER/Chr_Lcd/ecu_chr_lcd.c: 447:     return ret;
  3461   001FEC  51DE               	movf	lcd_4bit_set_cursor@ret& (0+255),w,b
  3462   001FEE                     
  3463                           ; BSR set to: 0
  3464   001FEE  0012               	return		;funcret
  3465   001FF0                     __end_of_lcd_4bit_set_cursor:
  3466                           	callstack 0
  3467                           
  3468 ;; *************** function _lcd_4bit_send_char_data *****************
  3469 ;; Defined at:
  3470 ;;		line 109 in file "ECU_LAYER/Chr_Lcd/ecu_chr_lcd.c"
  3471 ;; Parameters:    Size  Location     Type
  3472 ;;  Lcd             1   42[COMRAM] PTR const struct .
  3473 ;;		 -> lcd(6), 
  3474 ;;  data            1   43[COMRAM] unsigned char 
  3475 ;; Auto vars:     Size  Location     Type
  3476 ;;  ret             1   44[COMRAM] unsigned char 
  3477 ;; Return value:  Size  Location     Type
  3478 ;;                  1    wreg      unsigned char 
  3479 ;; Registers used:
  3480 ;;		wreg, fsr2l, fsr2h, status,2, status,0, prodl, prodh, cstack
  3481 ;; Tracked objects:
  3482 ;;		On entry : 0/0
  3483 ;;		On exit  : 0/0
  3484 ;;		Unchanged: 0/0
  3485 ;; Data sizes:     COMRAM   BANK0   BANK1   BANK2   BANK3   BANK4   BANK5   BANK6   BANK7   BANK8   BANK9  BANK10  BANK1
      +1  BANK12  BANK13  BANK14  BANK15
  3486 ;;      Params:         2       0       0       0       0       0       0       0       0       0       0       0       
      +0       0       0       0       0
  3487 ;;      Locals:         1       0       0       0       0       0       0       0       0       0       0       0       
      +0       0       0       0       0
  3488 ;;      Temps:          0       0       0       0       0       0       0       0       0       0       0       0       
      +0       0       0       0       0
  3489 ;;      Totals:         3       0       0       0       0       0       0       0       0       0       0       0       
      +0       0       0       0       0
  3490 ;;Total ram usage:        3 bytes
  3491 ;; Hardware stack levels used: 1
  3492 ;; Hardware stack levels required when called: 10
  3493 ;; This function calls:
  3494 ;;		_gpio_pin_write_logic
  3495 ;;		_lcd_4bits_command
  3496 ;;		_lcd_4bits_send_enable
  3497 ;; This function is called by:
  3498 ;;		_lcd_4bit_send_char_data_pos
  3499 ;;		_lcd_4bit_send_string
  3500 ;;		_lcd_4bit_send_custom_ch
  3501 ;; This function uses a non-reentrant model
  3502 ;;
  3503                           
  3504                           	psect	text18
  3505   00271A                     __ptext18:
  3506                           	callstack 0
  3507   00271A                     _lcd_4bit_send_char_data:
  3508                           	callstack 17
  3509   00271A                     
  3510                           ;ECU_LAYER/Chr_Lcd/ecu_chr_lcd.c: 111:     if (((void*)0) == Lcd) {
  3511   00271A  502B               	movf	lcd_4bit_send_char_data@Lcd^0,w,c
  3512   00271C  A4D8               	btfss	status,2,c
  3513   00271E  EF93  F013         	goto	u4551
  3514   002722  EF95  F013         	goto	u4550
  3515   002726                     u4551:
  3516   002726  EF99  F013         	goto	l5274
  3517   00272A                     u4550:
  3518   00272A                     
  3519                           ;ECU_LAYER/Chr_Lcd/ecu_chr_lcd.c: 112:         ret = (Std_ReturnType)0X00;
  3520   00272A  0E00               	movlw	0
  3521   00272C  6E2D               	movwf	lcd_4bit_send_char_data@ret^0,c
  3522                           
  3523                           ;ECU_LAYER/Chr_Lcd/ecu_chr_lcd.c: 113:     } else {
  3524   00272E  EFB9  F013         	goto	l5276
  3525   002732                     l5274:
  3526                           
  3527                           ;ECU_LAYER/Chr_Lcd/ecu_chr_lcd.c: 114:         ret = gpio_pin_write_logic(&(Lcd->lcd_rs)
      +                          , GPIO_HIGH);
  3528   002732  C02B  F020         	movff	lcd_4bit_send_char_data@Lcd,gpio_pin_write_logic@_pin_config
  3529   002736  0E01               	movlw	1
  3530   002738  6E21               	movwf	gpio_pin_write_logic@logic_^0,c
  3531   00273A  EC86  F00C         	call	_gpio_pin_write_logic	;wreg free
  3532   00273E  6E2D               	movwf	lcd_4bit_send_char_data@ret^0,c
  3533                           
  3534                           ;ECU_LAYER/Chr_Lcd/ecu_chr_lcd.c: 115:         ret = lcd_4bits_command(Lcd, data >> 4);
  3535   002740  C02B  F028         	movff	lcd_4bit_send_char_data@Lcd,lcd_4bits_command@Lcd
  3536   002744  382C               	swapf	lcd_4bit_send_char_data@data^0,w,c
  3537   002746  0B0F               	andlw	15
  3538   002748  6E29               	movwf	lcd_4bits_command@data_command^0,c
  3539   00274A  EC45  F014         	call	_lcd_4bits_command	;wreg free
  3540   00274E  6E2D               	movwf	lcd_4bit_send_char_data@ret^0,c
  3541                           
  3542                           ;ECU_LAYER/Chr_Lcd/ecu_chr_lcd.c: 116:         ret = lcd_4bits_send_enable(Lcd);
  3543   002750  C02B  F028         	movff	lcd_4bit_send_char_data@Lcd,lcd_4bits_send_enable@Lcd
  3544   002754  EC3C  F015         	call	_lcd_4bits_send_enable	;wreg free
  3545   002758  6E2D               	movwf	lcd_4bit_send_char_data@ret^0,c
  3546                           
  3547                           ;ECU_LAYER/Chr_Lcd/ecu_chr_lcd.c: 117:         ret = lcd_4bits_command(Lcd, data);
  3548   00275A  C02B  F028         	movff	lcd_4bit_send_char_data@Lcd,lcd_4bits_command@Lcd
  3549   00275E  C02C  F029         	movff	lcd_4bit_send_char_data@data,lcd_4bits_command@data_command
  3550   002762  EC45  F014         	call	_lcd_4bits_command	;wreg free
  3551   002766  6E2D               	movwf	lcd_4bit_send_char_data@ret^0,c
  3552                           
  3553                           ;ECU_LAYER/Chr_Lcd/ecu_chr_lcd.c: 118:         ret = lcd_4bits_send_enable(Lcd);
  3554   002768  C02B  F028         	movff	lcd_4bit_send_char_data@Lcd,lcd_4bits_send_enable@Lcd
  3555   00276C  EC3C  F015         	call	_lcd_4bits_send_enable	;wreg free
  3556   002770  6E2D               	movwf	lcd_4bit_send_char_data@ret^0,c
  3557   002772                     l5276:
  3558                           
  3559                           ;ECU_LAYER/Chr_Lcd/ecu_chr_lcd.c: 120:     return ret;
  3560   002772  502D               	movf	lcd_4bit_send_char_data@ret^0,w,c
  3561   002774  0012               	return		;funcret
  3562   002776                     __end_of_lcd_4bit_send_char_data:
  3563                           	callstack 0
  3564                           
  3565 ;; *************** function _ecu_layer_initialize *****************
  3566 ;; Defined at:
  3567 ;;		line 86 in file "ECU_LAYER/ecu_layer_init.c"
  3568 ;; Parameters:    Size  Location     Type
  3569 ;;		None
  3570 ;; Auto vars:     Size  Location     Type
  3571 ;;  ret             1    0        unsigned char 
  3572 ;; Return value:  Size  Location     Type
  3573 ;;                  1    wreg      void 
  3574 ;; Registers used:
  3575 ;;		wreg, fsr2l, fsr2h, status,2, status,0, prodl, prodh, cstack
  3576 ;; Tracked objects:
  3577 ;;		On entry : 0/0
  3578 ;;		On exit  : 0/0
  3579 ;;		Unchanged: 0/0
  3580 ;; Data sizes:     COMRAM   BANK0   BANK1   BANK2   BANK3   BANK4   BANK5   BANK6   BANK7   BANK8   BANK9  BANK10  BANK1
      +1  BANK12  BANK13  BANK14  BANK15
  3581 ;;      Params:         0       0       0       0       0       0       0       0       0       0       0       0       
      +0       0       0       0       0
  3582 ;;      Locals:         0       0       0       0       0       0       0       0       0       0       0       0       
      +0       0       0       0       0
  3583 ;;      Temps:          0       0       0       0       0       0       0       0       0       0       0       0       
      +0       0       0       0       0
  3584 ;;      Totals:         0       0       0       0       0       0       0       0       0       0       0       0       
      +0       0       0       0       0
  3585 ;;Total ram usage:        0 bytes
  3586 ;; Hardware stack levels used: 1
  3587 ;; Hardware stack levels required when called: 12
  3588 ;; This function calls:
  3589 ;;		_Seven_Segm_initailize
  3590 ;;		_lcd_4bit_initailize
  3591 ;; This function is called by:
  3592 ;;		_Application_initialize
  3593 ;; This function uses a non-reentrant model
  3594 ;;
  3595                           
  3596                           	psect	text19
  3597   002CCE                     __ptext19:
  3598                           	callstack 0
  3599   002CCE                     _ecu_layer_initialize:
  3600                           	callstack 17
  3601   002CCE  0E5A               	movlw	low _lcd
  3602   002CD0  0100               	movlb	0	; () banked
  3603   002CD2  6FD9               	movwf	lcd_4bit_initailize@Lcd& (0+255),b
  3604   002CD4  EC16  F00E         	call	_lcd_4bit_initailize	;wreg free
  3605   002CD8  0EB4               	movlw	low _seg1
  3606   002CDA  6E2B               	movwf	Seven_Segm_initailize@_Seven_Seg^0,c
  3607   002CDC  EC95  F014         	call	_Seven_Segm_initailize	;wreg free
  3608   002CE0  0EAF               	movlw	low _seg2
  3609   002CE2  6E2B               	movwf	Seven_Segm_initailize@_Seven_Seg^0,c
  3610   002CE4  EC95  F014         	call	_Seven_Segm_initailize	;wreg free
  3611   002CE8  0012               	return		;funcret
  3612   002CEA                     __end_of_ecu_layer_initialize:
  3613                           	callstack 0
  3614                           
  3615 ;; *************** function _lcd_4bit_initailize *****************
  3616 ;; Defined at:
  3617 ;;		line 56 in file "ECU_LAYER/Chr_Lcd/ecu_chr_lcd.c"
  3618 ;; Parameters:    Size  Location     Type
  3619 ;;  Lcd             1    0[BANK0 ] PTR const struct .
  3620 ;;		 -> lcd(6), 
  3621 ;; Auto vars:     Size  Location     Type
  3622 ;;  i               1    2[BANK0 ] unsigned char 
  3623 ;;  ret             1    3[BANK0 ] unsigned char 
  3624 ;; Return value:  Size  Location     Type
  3625 ;;                  1    wreg      unsigned char 
  3626 ;; Registers used:
  3627 ;;		wreg, fsr2l, fsr2h, status,2, status,0, prodl, prodh, cstack
  3628 ;; Tracked objects:
  3629 ;;		On entry : 0/0
  3630 ;;		On exit  : 0/0
  3631 ;;		Unchanged: 0/0
  3632 ;; Data sizes:     COMRAM   BANK0   BANK1   BANK2   BANK3   BANK4   BANK5   BANK6   BANK7   BANK8   BANK9  BANK10  BANK1
      +1  BANK12  BANK13  BANK14  BANK15
  3633 ;;      Params:         0       1       0       0       0       0       0       0       0       0       0       0       
      +0       0       0       0       0
  3634 ;;      Locals:         0       2       0       0       0       0       0       0       0       0       0       0       
      +0       0       0       0       0
  3635 ;;      Temps:          0       1       0       0       0       0       0       0       0       0       0       0       
      +0       0       0       0       0
  3636 ;;      Totals:         0       4       0       0       0       0       0       0       0       0       0       0       
      +0       0       0       0       0
  3637 ;;Total ram usage:        4 bytes
  3638 ;; Hardware stack levels used: 1
  3639 ;; Hardware stack levels required when called: 11
  3640 ;; This function calls:
  3641 ;;		_gpio_pin_initialize
  3642 ;;		_lcd_4bit_send_command
  3643 ;; This function is called by:
  3644 ;;		_ecu_layer_initialize
  3645 ;; This function uses a non-reentrant model
  3646 ;;
  3647                           
  3648                           	psect	text20
  3649   001C2C                     __ptext20:
  3650                           	callstack 0
  3651   001C2C                     _lcd_4bit_initailize:
  3652                           	callstack 17
  3653   001C2C                     
  3654                           ;ECU_LAYER/Chr_Lcd/ecu_chr_lcd.c: 58:     if (((void*)0) == Lcd) {
  3655   001C2C  0100               	movlb	0	; () banked
  3656   001C2E  51D9               	movf	lcd_4bit_initailize@Lcd& (0+255),w,b
  3657   001C30  A4D8               	btfss	status,2,c
  3658   001C32  EF1D  F00E         	goto	u4821
  3659   001C36  EF1F  F00E         	goto	u4820
  3660   001C3A                     u4821:
  3661   001C3A  EF23  F00E         	goto	l5450
  3662   001C3E                     u4820:
  3663   001C3E                     
  3664                           ; BSR set to: 0
  3665                           ;ECU_LAYER/Chr_Lcd/ecu_chr_lcd.c: 59:         ret = (Std_ReturnType)0X00;
  3666   001C3E  0E00               	movlw	0
  3667   001C40  6FDC               	movwf	lcd_4bit_initailize@ret& (0+255),b
  3668                           
  3669                           ;ECU_LAYER/Chr_Lcd/ecu_chr_lcd.c: 60:     } else {
  3670   001C42  EF8E  F00E         	goto	l5486
  3671   001C46                     l5450:
  3672                           
  3673                           ; BSR set to: 0
  3674                           ;ECU_LAYER/Chr_Lcd/ecu_chr_lcd.c: 61:         ret = gpio_pin_initialize(&(Lcd->lcd_en));
  3675   001C46  29D9               	incf	lcd_4bit_initailize@Lcd& (0+255),w,b
  3676   001C48  6E28               	movwf	gpio_pin_initialize@_pin_config^0,c
  3677   001C4A  EC5E  F013         	call	_gpio_pin_initialize	;wreg free
  3678   001C4E  0100               	movlb	0	; () banked
  3679   001C50  6FDC               	movwf	lcd_4bit_initailize@ret& (0+255),b
  3680                           
  3681                           ;ECU_LAYER/Chr_Lcd/ecu_chr_lcd.c: 62:         ret = gpio_pin_initialize(&(Lcd->lcd_rs));
  3682   001C52  C0D9  F028         	movff	lcd_4bit_initailize@Lcd,gpio_pin_initialize@_pin_config
  3683   001C56  EC5E  F013         	call	_gpio_pin_initialize	;wreg free
  3684   001C5A  0100               	movlb	0	; () banked
  3685   001C5C  6FDC               	movwf	lcd_4bit_initailize@ret& (0+255),b
  3686   001C5E                     
  3687                           ; BSR set to: 0
  3688                           ;ECU_LAYER/Chr_Lcd/ecu_chr_lcd.c: 63:         for (uint8 i = 0; i < 4; i++) {
  3689   001C5E  0E00               	movlw	0
  3690   001C60  6FDB               	movwf	lcd_4bit_initailize@i& (0+255),b
  3691   001C62                     l5458:
  3692                           
  3693                           ; BSR set to: 0
  3694   001C62  51D9               	movf	lcd_4bit_initailize@Lcd& (0+255),w,b
  3695   001C64  25DB               	addwf	lcd_4bit_initailize@i& (0+255),w,b
  3696   001C66  0F02               	addlw	2
  3697   001C68  6E28               	movwf	gpio_pin_initialize@_pin_config^0,c
  3698   001C6A  EC5E  F013         	call	_gpio_pin_initialize	;wreg free
  3699   001C6E                     
  3700                           ;ECU_LAYER/Chr_Lcd/ecu_chr_lcd.c: 65:         }
  3701   001C6E  0100               	movlb	0	; () banked
  3702   001C70  2BDB               	incf	lcd_4bit_initailize@i& (0+255),f,b
  3703   001C72                     
  3704                           ; BSR set to: 0
  3705   001C72  0E03               	movlw	3
  3706   001C74  65DB               	cpfsgt	lcd_4bit_initailize@i& (0+255),b
  3707   001C76  EF3F  F00E         	goto	u4831
  3708   001C7A  EF41  F00E         	goto	u4830
  3709   001C7E                     u4831:
  3710   001C7E  EF31  F00E         	goto	l5458
  3711   001C82                     u4830:
  3712   001C82                     
  3713                           ; BSR set to: 0
  3714                           ;ECU_LAYER/Chr_Lcd/ecu_chr_lcd.c: 66:         _delay((unsigned long)((20)*(8000000/4000.
      +                          0)));
  3715   001C82  0E34               	movlw	52
  3716   001C84  0100               	movlb	0	; () banked
  3717   001C86  6FDA               	movwf	??_lcd_4bit_initailize& (0+255),b
  3718   001C88  0EF1               	movlw	241
  3719   001C8A                     u5767:
  3720   001C8A  2EE8               	decfsz	wreg,f,c
  3721   001C8C  D7FE               	bra	u5767
  3722   001C8E  2FDA               	decfsz	??_lcd_4bit_initailize& (0+255),f,b
  3723   001C90  D7FC               	bra	u5767
  3724   001C92  D000               	nop2	
  3725   001C94  C0D9  F02B         	movff	lcd_4bit_initailize@Lcd,lcd_4bit_send_command@Lcd
  3726   001C98  0E38               	movlw	56
  3727   001C9A  6E2C               	movwf	lcd_4bit_send_command@command^0,c
  3728   001C9C  ECBB  F013         	call	_lcd_4bit_send_command	;wreg free
  3729   001CA0                     
  3730                           ;ECU_LAYER/Chr_Lcd/ecu_chr_lcd.c: 68:         _delay((unsigned long)((5)*(8000000/4000.0
      +                          )));
  3731   001CA0  0E0D               	movlw	13
  3732   001CA2  0100               	movlb	0	; () banked
  3733   001CA4  6FDA               	movwf	??_lcd_4bit_initailize& (0+255),b
  3734   001CA6  0EFB               	movlw	251
  3735   001CA8                     u5777:
  3736   001CA8  2EE8               	decfsz	wreg,f,c
  3737   001CAA  D7FE               	bra	u5777
  3738   001CAC  2FDA               	decfsz	??_lcd_4bit_initailize& (0+255),f,b
  3739   001CAE  D7FC               	bra	u5777
  3740   001CB0  D000               	nop2	
  3741   001CB2  C0D9  F02B         	movff	lcd_4bit_initailize@Lcd,lcd_4bit_send_command@Lcd
  3742   001CB6  0E38               	movlw	56
  3743   001CB8  6E2C               	movwf	lcd_4bit_send_command@command^0,c
  3744   001CBA  ECBB  F013         	call	_lcd_4bit_send_command	;wreg free
  3745   001CBE                     
  3746                           ;ECU_LAYER/Chr_Lcd/ecu_chr_lcd.c: 70:         _delay((unsigned long)((150)*(8000000/4000
      +                          000.0)));
  3747   001CBE  0E64               	movlw	100
  3748   001CC0                     u5787:
  3749   001CC0  2EE8               	decfsz	wreg,f,c
  3750   001CC2  D7FE               	bra	u5787
  3751   001CC4  C0D9  F02B         	movff	lcd_4bit_initailize@Lcd,lcd_4bit_send_command@Lcd
  3752   001CC8  0E38               	movlw	56
  3753   001CCA  6E2C               	movwf	lcd_4bit_send_command@command^0,c
  3754   001CCC  ECBB  F013         	call	_lcd_4bit_send_command	;wreg free
  3755   001CD0  C0D9  F02B         	movff	lcd_4bit_initailize@Lcd,lcd_4bit_send_command@Lcd
  3756   001CD4  0E01               	movlw	1
  3757   001CD6  6E2C               	movwf	lcd_4bit_send_command@command^0,c
  3758   001CD8  ECBB  F013         	call	_lcd_4bit_send_command	;wreg free
  3759   001CDC  C0D9  F02B         	movff	lcd_4bit_initailize@Lcd,lcd_4bit_send_command@Lcd
  3760   001CE0  0E02               	movlw	2
  3761   001CE2  6E2C               	movwf	lcd_4bit_send_command@command^0,c
  3762   001CE4  ECBB  F013         	call	_lcd_4bit_send_command	;wreg free
  3763   001CE8  C0D9  F02B         	movff	lcd_4bit_initailize@Lcd,lcd_4bit_send_command@Lcd
  3764   001CEC  0E06               	movlw	6
  3765   001CEE  6E2C               	movwf	lcd_4bit_send_command@command^0,c
  3766   001CF0  ECBB  F013         	call	_lcd_4bit_send_command	;wreg free
  3767   001CF4  C0D9  F02B         	movff	lcd_4bit_initailize@Lcd,lcd_4bit_send_command@Lcd
  3768   001CF8  0E0C               	movlw	12
  3769   001CFA  6E2C               	movwf	lcd_4bit_send_command@command^0,c
  3770   001CFC  ECBB  F013         	call	_lcd_4bit_send_command	;wreg free
  3771   001D00  C0D9  F02B         	movff	lcd_4bit_initailize@Lcd,lcd_4bit_send_command@Lcd
  3772   001D04  0E28               	movlw	40
  3773   001D06  6E2C               	movwf	lcd_4bit_send_command@command^0,c
  3774   001D08  ECBB  F013         	call	_lcd_4bit_send_command	;wreg free
  3775   001D0C                     
  3776                           ;ECU_LAYER/Chr_Lcd/ecu_chr_lcd.c: 78:         ret = lcd_4bit_send_command(Lcd, 0x80);
  3777   001D0C  C0D9  F02B         	movff	lcd_4bit_initailize@Lcd,lcd_4bit_send_command@Lcd
  3778   001D10  0E80               	movlw	128
  3779   001D12  6E2C               	movwf	lcd_4bit_send_command@command^0,c
  3780   001D14  ECBB  F013         	call	_lcd_4bit_send_command	;wreg free
  3781   001D18  0100               	movlb	0	; () banked
  3782   001D1A  6FDC               	movwf	lcd_4bit_initailize@ret& (0+255),b
  3783   001D1C                     l5486:
  3784                           
  3785                           ; BSR set to: 0
  3786                           ;ECU_LAYER/Chr_Lcd/ecu_chr_lcd.c: 80:     return ret;
  3787   001D1C  51DC               	movf	lcd_4bit_initailize@ret& (0+255),w,b
  3788   001D1E                     
  3789                           ; BSR set to: 0
  3790   001D1E  0012               	return		;funcret
  3791   001D20                     __end_of_lcd_4bit_initailize:
  3792                           	callstack 0
  3793                           
  3794 ;; *************** function _lcd_4bit_send_command *****************
  3795 ;; Defined at:
  3796 ;;		line 89 in file "ECU_LAYER/Chr_Lcd/ecu_chr_lcd.c"
  3797 ;; Parameters:    Size  Location     Type
  3798 ;;  Lcd             1   42[COMRAM] PTR const struct .
  3799 ;;		 -> lcd(6), 
  3800 ;;  command         1   43[COMRAM] unsigned char 
  3801 ;; Auto vars:     Size  Location     Type
  3802 ;;  ret             1   44[COMRAM] unsigned char 
  3803 ;; Return value:  Size  Location     Type
  3804 ;;                  1    wreg      unsigned char 
  3805 ;; Registers used:
  3806 ;;		wreg, fsr2l, fsr2h, status,2, status,0, prodl, prodh, cstack
  3807 ;; Tracked objects:
  3808 ;;		On entry : 0/0
  3809 ;;		On exit  : 0/0
  3810 ;;		Unchanged: 0/0
  3811 ;; Data sizes:     COMRAM   BANK0   BANK1   BANK2   BANK3   BANK4   BANK5   BANK6   BANK7   BANK8   BANK9  BANK10  BANK1
      +1  BANK12  BANK13  BANK14  BANK15
  3812 ;;      Params:         2       0       0       0       0       0       0       0       0       0       0       0       
      +0       0       0       0       0
  3813 ;;      Locals:         1       0       0       0       0       0       0       0       0       0       0       0       
      +0       0       0       0       0
  3814 ;;      Temps:          0       0       0       0       0       0       0       0       0       0       0       0       
      +0       0       0       0       0
  3815 ;;      Totals:         3       0       0       0       0       0       0       0       0       0       0       0       
      +0       0       0       0       0
  3816 ;;Total ram usage:        3 bytes
  3817 ;; Hardware stack levels used: 1
  3818 ;; Hardware stack levels required when called: 10
  3819 ;; This function calls:
  3820 ;;		_gpio_pin_write_logic
  3821 ;;		_lcd_4bits_command
  3822 ;;		_lcd_4bits_send_enable
  3823 ;; This function is called by:
  3824 ;;		_lcd_4bit_initailize
  3825 ;;		_lcd_4bit_set_cursor
  3826 ;;		_Application_initialize
  3827 ;;		_ball_move
  3828 ;;		_lcd_4bit_send_custom_ch
  3829 ;; This function uses a non-reentrant model
  3830 ;;
  3831                           
  3832                           	psect	text21
  3833   002776                     __ptext21:
  3834                           	callstack 0
  3835   002776                     _lcd_4bit_send_command:
  3836                           	callstack 17
  3837   002776                     
  3838                           ;ECU_LAYER/Chr_Lcd/ecu_chr_lcd.c: 91:     if (((void*)0) == Lcd) {
  3839   002776  502B               	movf	lcd_4bit_send_command@Lcd^0,w,c
  3840   002778  A4D8               	btfss	status,2,c
  3841   00277A  EFC1  F013         	goto	u4541
  3842   00277E  EFC3  F013         	goto	u4540
  3843   002782                     u4541:
  3844   002782  EFC7  F013         	goto	l5264
  3845   002786                     u4540:
  3846   002786                     
  3847                           ;ECU_LAYER/Chr_Lcd/ecu_chr_lcd.c: 92:         ret = (Std_ReturnType)0X00;
  3848   002786  0E00               	movlw	0
  3849   002788  6E2D               	movwf	lcd_4bit_send_command@ret^0,c
  3850                           
  3851                           ;ECU_LAYER/Chr_Lcd/ecu_chr_lcd.c: 93:     } else {
  3852   00278A  EFE7  F013         	goto	l5266
  3853   00278E                     l5264:
  3854                           
  3855                           ;ECU_LAYER/Chr_Lcd/ecu_chr_lcd.c: 94:         ret = gpio_pin_write_logic(&(Lcd->lcd_rs),
      +                           GPIO_LOW);
  3856   00278E  C02B  F020         	movff	lcd_4bit_send_command@Lcd,gpio_pin_write_logic@_pin_config
  3857   002792  0E00               	movlw	0
  3858   002794  6E21               	movwf	gpio_pin_write_logic@logic_^0,c
  3859   002796  EC86  F00C         	call	_gpio_pin_write_logic	;wreg free
  3860   00279A  6E2D               	movwf	lcd_4bit_send_command@ret^0,c
  3861                           
  3862                           ;ECU_LAYER/Chr_Lcd/ecu_chr_lcd.c: 95:         ret = lcd_4bits_command(Lcd, command >> 4)
      +                          ;
  3863   00279C  C02B  F028         	movff	lcd_4bit_send_command@Lcd,lcd_4bits_command@Lcd
  3864   0027A0  382C               	swapf	lcd_4bit_send_command@command^0,w,c
  3865   0027A2  0B0F               	andlw	15
  3866   0027A4  6E29               	movwf	lcd_4bits_command@data_command^0,c
  3867   0027A6  EC45  F014         	call	_lcd_4bits_command	;wreg free
  3868   0027AA  6E2D               	movwf	lcd_4bit_send_command@ret^0,c
  3869                           
  3870                           ;ECU_LAYER/Chr_Lcd/ecu_chr_lcd.c: 96:         ret = lcd_4bits_send_enable(Lcd);
  3871   0027AC  C02B  F028         	movff	lcd_4bit_send_command@Lcd,lcd_4bits_send_enable@Lcd
  3872   0027B0  EC3C  F015         	call	_lcd_4bits_send_enable	;wreg free
  3873   0027B4  6E2D               	movwf	lcd_4bit_send_command@ret^0,c
  3874                           
  3875                           ;ECU_LAYER/Chr_Lcd/ecu_chr_lcd.c: 97:         ret = lcd_4bits_command(Lcd, command);
  3876   0027B6  C02B  F028         	movff	lcd_4bit_send_command@Lcd,lcd_4bits_command@Lcd
  3877   0027BA  C02C  F029         	movff	lcd_4bit_send_command@command,lcd_4bits_command@data_command
  3878   0027BE  EC45  F014         	call	_lcd_4bits_command	;wreg free
  3879   0027C2  6E2D               	movwf	lcd_4bit_send_command@ret^0,c
  3880                           
  3881                           ;ECU_LAYER/Chr_Lcd/ecu_chr_lcd.c: 98:         ret = lcd_4bits_send_enable(Lcd);
  3882   0027C4  C02B  F028         	movff	lcd_4bit_send_command@Lcd,lcd_4bits_send_enable@Lcd
  3883   0027C8  EC3C  F015         	call	_lcd_4bits_send_enable	;wreg free
  3884   0027CC  6E2D               	movwf	lcd_4bit_send_command@ret^0,c
  3885   0027CE                     l5266:
  3886                           
  3887                           ;ECU_LAYER/Chr_Lcd/ecu_chr_lcd.c: 100:     return ret;
  3888   0027CE  502D               	movf	lcd_4bit_send_command@ret^0,w,c
  3889   0027D0  0012               	return		;funcret
  3890   0027D2                     __end_of_lcd_4bit_send_command:
  3891                           	callstack 0
  3892                           
  3893 ;; *************** function _lcd_4bits_send_enable *****************
  3894 ;; Defined at:
  3895 ;;		line 412 in file "ECU_LAYER/Chr_Lcd/ecu_chr_lcd.c"
  3896 ;; Parameters:    Size  Location     Type
  3897 ;;  Lcd             1   39[COMRAM] PTR const struct .
  3898 ;;		 -> lcd(6), 
  3899 ;; Auto vars:     Size  Location     Type
  3900 ;;  ret             1   40[COMRAM] unsigned char 
  3901 ;; Return value:  Size  Location     Type
  3902 ;;                  1    wreg      unsigned char 
  3903 ;; Registers used:
  3904 ;;		wreg, fsr2l, fsr2h, status,2, status,0, prodl, prodh, cstack
  3905 ;; Tracked objects:
  3906 ;;		On entry : 0/0
  3907 ;;		On exit  : 0/0
  3908 ;;		Unchanged: 0/0
  3909 ;; Data sizes:     COMRAM   BANK0   BANK1   BANK2   BANK3   BANK4   BANK5   BANK6   BANK7   BANK8   BANK9  BANK10  BANK1
      +1  BANK12  BANK13  BANK14  BANK15
  3910 ;;      Params:         1       0       0       0       0       0       0       0       0       0       0       0       
      +0       0       0       0       0
  3911 ;;      Locals:         1       0       0       0       0       0       0       0       0       0       0       0       
      +0       0       0       0       0
  3912 ;;      Temps:          0       0       0       0       0       0       0       0       0       0       0       0       
      +0       0       0       0       0
  3913 ;;      Totals:         2       0       0       0       0       0       0       0       0       0       0       0       
      +0       0       0       0       0
  3914 ;;Total ram usage:        2 bytes
  3915 ;; Hardware stack levels used: 1
  3916 ;; Hardware stack levels required when called: 9
  3917 ;; This function calls:
  3918 ;;		_gpio_pin_write_logic
  3919 ;; This function is called by:
  3920 ;;		_lcd_4bit_send_command
  3921 ;;		_lcd_4bit_send_char_data
  3922 ;; This function uses a non-reentrant model
  3923 ;;
  3924                           
  3925                           	psect	text22
  3926   002A78                     __ptext22:
  3927                           	callstack 0
  3928   002A78                     _lcd_4bits_send_enable:
  3929                           	callstack 17
  3930   002A78                     
  3931                           ;ECU_LAYER/Chr_Lcd/ecu_chr_lcd.c: 414:     if (((void*)0) == Lcd) {
  3932   002A78  5028               	movf	lcd_4bits_send_enable@Lcd^0,w,c
  3933   002A7A  A4D8               	btfss	status,2,c
  3934   002A7C  EF42  F015         	goto	u4361
  3935   002A80  EF44  F015         	goto	u4360
  3936   002A84                     u4361:
  3937   002A84  EF48  F015         	goto	l5152
  3938   002A88                     u4360:
  3939   002A88                     
  3940                           ;ECU_LAYER/Chr_Lcd/ecu_chr_lcd.c: 415:         ret = (Std_ReturnType)0X00;
  3941   002A88  0E00               	movlw	0
  3942   002A8A  6E29               	movwf	lcd_4bits_send_enable@ret^0,c
  3943                           
  3944                           ;ECU_LAYER/Chr_Lcd/ecu_chr_lcd.c: 416:     } else {
  3945   002A8C  EF59  F015         	goto	l5158
  3946   002A90                     l5152:
  3947   002A90  2828               	incf	lcd_4bits_send_enable@Lcd^0,w,c
  3948   002A92  6E20               	movwf	gpio_pin_write_logic@_pin_config^0,c
  3949   002A94  0E01               	movlw	1
  3950   002A96  6E21               	movwf	gpio_pin_write_logic@logic_^0,c
  3951   002A98  EC86  F00C         	call	_gpio_pin_write_logic	;wreg free
  3952   002A9C                     
  3953                           ;ECU_LAYER/Chr_Lcd/ecu_chr_lcd.c: 418:         _delay((unsigned long)((5)*(8000000/40000
      +                          00.0)));
  3954   002A9C  0E03               	movlw	3
  3955   002A9E                     u5797:
  3956   002A9E  2EE8               	decfsz	wreg,f,c
  3957   002AA0  D7FE               	bra	u5797
  3958   002AA2  0000               	nop	
  3959   002AA4                     
  3960                           ;ECU_LAYER/Chr_Lcd/ecu_chr_lcd.c: 419:         ret = gpio_pin_write_logic(&(Lcd->lcd_en)
      +                          , GPIO_LOW);
  3961   002AA4  2828               	incf	lcd_4bits_send_enable@Lcd^0,w,c
  3962   002AA6  6E20               	movwf	gpio_pin_write_logic@_pin_config^0,c
  3963   002AA8  0E00               	movlw	0
  3964   002AAA  6E21               	movwf	gpio_pin_write_logic@logic_^0,c
  3965   002AAC  EC86  F00C         	call	_gpio_pin_write_logic	;wreg free
  3966   002AB0  6E29               	movwf	lcd_4bits_send_enable@ret^0,c
  3967   002AB2                     l5158:
  3968                           
  3969                           ;ECU_LAYER/Chr_Lcd/ecu_chr_lcd.c: 421:     return ret;
  3970   002AB2  5029               	movf	lcd_4bits_send_enable@ret^0,w,c
  3971   002AB4  0012               	return		;funcret
  3972   002AB6                     __end_of_lcd_4bits_send_enable:
  3973                           	callstack 0
  3974                           
  3975 ;; *************** function _lcd_4bits_command *****************
  3976 ;; Defined at:
  3977 ;;		line 424 in file "ECU_LAYER/Chr_Lcd/ecu_chr_lcd.c"
  3978 ;; Parameters:    Size  Location     Type
  3979 ;;  Lcd             1   39[COMRAM] PTR const struct .
  3980 ;;		 -> lcd(6), 
  3981 ;;  data_command    1   40[COMRAM] unsigned char 
  3982 ;; Auto vars:     Size  Location     Type
  3983 ;;  ret             1   41[COMRAM] unsigned char 
  3984 ;; Return value:  Size  Location     Type
  3985 ;;                  1    wreg      unsigned char 
  3986 ;; Registers used:
  3987 ;;		wreg, fsr2l, fsr2h, status,2, status,0, prodl, prodh, cstack
  3988 ;; Tracked objects:
  3989 ;;		On entry : 0/0
  3990 ;;		On exit  : 0/0
  3991 ;;		Unchanged: 0/0
  3992 ;; Data sizes:     COMRAM   BANK0   BANK1   BANK2   BANK3   BANK4   BANK5   BANK6   BANK7   BANK8   BANK9  BANK10  BANK1
      +1  BANK12  BANK13  BANK14  BANK15
  3993 ;;      Params:         2       0       0       0       0       0       0       0       0       0       0       0       
      +0       0       0       0       0
  3994 ;;      Locals:         1       0       0       0       0       0       0       0       0       0       0       0       
      +0       0       0       0       0
  3995 ;;      Temps:          0       0       0       0       0       0       0       0       0       0       0       0       
      +0       0       0       0       0
  3996 ;;      Totals:         3       0       0       0       0       0       0       0       0       0       0       0       
      +0       0       0       0       0
  3997 ;;Total ram usage:        3 bytes
  3998 ;; Hardware stack levels used: 1
  3999 ;; Hardware stack levels required when called: 9
  4000 ;; This function calls:
  4001 ;;		_gpio_pin_write_logic
  4002 ;; This function is called by:
  4003 ;;		_lcd_4bit_send_command
  4004 ;;		_lcd_4bit_send_char_data
  4005 ;; This function uses a non-reentrant model
  4006 ;;
  4007                           
  4008                           	psect	text23
  4009   00288A                     __ptext23:
  4010                           	callstack 0
  4011   00288A                     _lcd_4bits_command:
  4012                           	callstack 17
  4013   00288A  5028               	movf	lcd_4bits_command@Lcd^0,w,c
  4014   00288C  0F02               	addlw	2
  4015   00288E  6E20               	movwf	gpio_pin_write_logic@_pin_config^0,c
  4016   002890  5029               	movf	lcd_4bits_command@data_command^0,w,c
  4017   002892  0B01               	andlw	1
  4018   002894  6E21               	movwf	gpio_pin_write_logic@logic_^0,c
  4019   002896  EC86  F00C         	call	_gpio_pin_write_logic	;wreg free
  4020   00289A  5028               	movf	lcd_4bits_command@Lcd^0,w,c
  4021   00289C  0F03               	addlw	3
  4022   00289E  6E20               	movwf	gpio_pin_write_logic@_pin_config^0,c
  4023   0028A0  90D8               	bcf	status,0,c
  4024   0028A2  3029               	rrcf	lcd_4bits_command@data_command^0,w,c
  4025   0028A4  0B01               	andlw	1
  4026   0028A6  6E21               	movwf	gpio_pin_write_logic@logic_^0,c
  4027   0028A8  EC86  F00C         	call	_gpio_pin_write_logic	;wreg free
  4028   0028AC  5028               	movf	lcd_4bits_command@Lcd^0,w,c
  4029   0028AE  0F04               	addlw	4
  4030   0028B0  6E20               	movwf	gpio_pin_write_logic@_pin_config^0,c
  4031   0028B2  4029               	rrncf	lcd_4bits_command@data_command^0,w,c
  4032   0028B4  42E8               	rrncf	wreg,f,c
  4033   0028B6  0B3F               	andlw	63
  4034   0028B8  0B01               	andlw	1
  4035   0028BA  6E21               	movwf	gpio_pin_write_logic@logic_^0,c
  4036   0028BC  EC86  F00C         	call	_gpio_pin_write_logic	;wreg free
  4037   0028C0                     
  4038                           ;ECU_LAYER/Chr_Lcd/ecu_chr_lcd.c: 429:     ret = gpio_pin_write_logic(&(Lcd->lcd_data[3]
      +                          ), (data_command >> 3) & (uint8) 0x01);
  4039   0028C0  5028               	movf	lcd_4bits_command@Lcd^0,w,c
  4040   0028C2  0F05               	addlw	5
  4041   0028C4  6E20               	movwf	gpio_pin_write_logic@_pin_config^0,c
  4042   0028C6  3829               	swapf	lcd_4bits_command@data_command^0,w,c
  4043   0028C8  46E8               	rlncf	wreg,f,c
  4044   0028CA  0B1F               	andlw	31
  4045   0028CC  0B01               	andlw	1
  4046   0028CE  6E21               	movwf	gpio_pin_write_logic@logic_^0,c
  4047   0028D0  EC86  F00C         	call	_gpio_pin_write_logic	;wreg free
  4048   0028D4  6E2A               	movwf	lcd_4bits_command@ret^0,c
  4049                           
  4050                           ;ECU_LAYER/Chr_Lcd/ecu_chr_lcd.c: 430:     return ret;
  4051   0028D6  502A               	movf	lcd_4bits_command@ret^0,w,c
  4052   0028D8  0012               	return		;funcret
  4053   0028DA                     __end_of_lcd_4bits_command:
  4054                           	callstack 0
  4055                           
  4056 ;; *************** function _Seven_Segm_initailize *****************
  4057 ;; Defined at:
  4058 ;;		line 21 in file "ECU_LAYER/Seven_Seg/Seven_Seg.c"
  4059 ;; Parameters:    Size  Location     Type
  4060 ;;  _Seven_Seg      1   42[COMRAM] PTR struct .
  4061 ;;		 -> seg2(5), seg1(5), 
  4062 ;; Auto vars:     Size  Location     Type
  4063 ;;  ret             1   43[COMRAM] unsigned char 
  4064 ;; Return value:  Size  Location     Type
  4065 ;;                  1    wreg      unsigned char 
  4066 ;; Registers used:
  4067 ;;		wreg, fsr2l, fsr2h, status,2, status,0, prodl, prodh, cstack
  4068 ;; Tracked objects:
  4069 ;;		On entry : 0/0
  4070 ;;		On exit  : 0/0
  4071 ;;		Unchanged: 0/0
  4072 ;; Data sizes:     COMRAM   BANK0   BANK1   BANK2   BANK3   BANK4   BANK5   BANK6   BANK7   BANK8   BANK9  BANK10  BANK1
      +1  BANK12  BANK13  BANK14  BANK15
  4073 ;;      Params:         1       0       0       0       0       0       0       0       0       0       0       0       
      +0       0       0       0       0
  4074 ;;      Locals:         1       0       0       0       0       0       0       0       0       0       0       0       
      +0       0       0       0       0
  4075 ;;      Temps:          0       0       0       0       0       0       0       0       0       0       0       0       
      +0       0       0       0       0
  4076 ;;      Totals:         2       0       0       0       0       0       0       0       0       0       0       0       
      +0       0       0       0       0
  4077 ;;Total ram usage:        2 bytes
  4078 ;; Hardware stack levels used: 1
  4079 ;; Hardware stack levels required when called: 10
  4080 ;; This function calls:
  4081 ;;		_gpio_pin_initialize
  4082 ;; This function is called by:
  4083 ;;		_ecu_layer_initialize
  4084 ;; This function uses a non-reentrant model
  4085 ;;
  4086                           
  4087                           	psect	text24
  4088   00292A                     __ptext24:
  4089                           	callstack 0
  4090   00292A                     _Seven_Segm_initailize:
  4091                           	callstack 18
  4092   00292A                     
  4093                           ;ECU_LAYER/Seven_Seg/Seven_Seg.c: 24:     if (((void*)0) == _Seven_Seg) {
  4094   00292A  502B               	movf	Seven_Segm_initailize@_Seven_Seg^0,w,c
  4095   00292C  A4D8               	btfss	status,2,c
  4096   00292E  EF9B  F014         	goto	u4851
  4097   002932  EF9D  F014         	goto	u4850
  4098   002936                     u4851:
  4099   002936  EFA1  F014         	goto	l5518
  4100   00293A                     u4850:
  4101   00293A                     
  4102                           ;ECU_LAYER/Seven_Seg/Seven_Seg.c: 25:         ret = (Std_ReturnType)0X00;
  4103   00293A  0E00               	movlw	0
  4104   00293C  6E2C               	movwf	Seven_Segm_initailize@ret^0,c
  4105                           
  4106                           ;ECU_LAYER/Seven_Seg/Seven_Seg.c: 26:     } else {
  4107   00293E  EFB7  F014         	goto	l5520
  4108   002942                     l5518:
  4109                           
  4110                           ;ECU_LAYER/Seven_Seg/Seven_Seg.c: 27:         ret = gpio_pin_initialize(&_Seven_Seg->seg
      +                          ment_pins[SEGMENT_PIN0]);
  4111   002942  C02B  F028         	movff	Seven_Segm_initailize@_Seven_Seg,gpio_pin_initialize@_pin_config
  4112   002946  EC5E  F013         	call	_gpio_pin_initialize	;wreg free
  4113   00294A  6E2C               	movwf	Seven_Segm_initailize@ret^0,c
  4114                           
  4115                           ;ECU_LAYER/Seven_Seg/Seven_Seg.c: 28:         ret = gpio_pin_initialize(&_Seven_Seg->seg
      +                          ment_pins[SEGMENT_PIN1]);
  4116   00294C  282B               	incf	Seven_Segm_initailize@_Seven_Seg^0,w,c
  4117   00294E  6E28               	movwf	gpio_pin_initialize@_pin_config^0,c
  4118   002950  EC5E  F013         	call	_gpio_pin_initialize	;wreg free
  4119   002954  6E2C               	movwf	Seven_Segm_initailize@ret^0,c
  4120                           
  4121                           ;ECU_LAYER/Seven_Seg/Seven_Seg.c: 29:         ret = gpio_pin_initialize(&_Seven_Seg->seg
      +                          ment_pins[SEGMENT_PIN2]);
  4122   002956  502B               	movf	Seven_Segm_initailize@_Seven_Seg^0,w,c
  4123   002958  0F02               	addlw	2
  4124   00295A  6E28               	movwf	gpio_pin_initialize@_pin_config^0,c
  4125   00295C  EC5E  F013         	call	_gpio_pin_initialize	;wreg free
  4126   002960  6E2C               	movwf	Seven_Segm_initailize@ret^0,c
  4127                           
  4128                           ;ECU_LAYER/Seven_Seg/Seven_Seg.c: 30:         ret = gpio_pin_initialize(&_Seven_Seg->seg
      +                          ment_pins[SEGMENT_PIN3]);
  4129   002962  502B               	movf	Seven_Segm_initailize@_Seven_Seg^0,w,c
  4130   002964  0F03               	addlw	3
  4131   002966  6E28               	movwf	gpio_pin_initialize@_pin_config^0,c
  4132   002968  EC5E  F013         	call	_gpio_pin_initialize	;wreg free
  4133   00296C  6E2C               	movwf	Seven_Segm_initailize@ret^0,c
  4134   00296E                     l5520:
  4135                           
  4136                           ;ECU_LAYER/Seven_Seg/Seven_Seg.c: 33:     return ret;
  4137   00296E  502C               	movf	Seven_Segm_initailize@ret^0,w,c
  4138   002970  0012               	return		;funcret
  4139   002972                     __end_of_Seven_Segm_initailize:
  4140                           	callstack 0
  4141                           
  4142 ;; *************** function _Seven_Segm_Display_Number *****************
  4143 ;; Defined at:
  4144 ;;		line 51 in file "ECU_LAYER/Seven_Seg/Seven_Seg.c"
  4145 ;; Parameters:    Size  Location     Type
  4146 ;;  _Seven_Seg      1   39[COMRAM] PTR struct .
  4147 ;;		 -> seg2(5), seg1(5), 
  4148 ;;  number          1   40[COMRAM] unsigned char 
  4149 ;; Auto vars:     Size  Location     Type
  4150 ;;  ret             1   41[COMRAM] unsigned char 
  4151 ;; Return value:  Size  Location     Type
  4152 ;;                  1    wreg      unsigned char 
  4153 ;; Registers used:
  4154 ;;		wreg, fsr2l, fsr2h, status,2, status,0, prodl, prodh, cstack
  4155 ;; Tracked objects:
  4156 ;;		On entry : 0/0
  4157 ;;		On exit  : 0/0
  4158 ;;		Unchanged: 0/0
  4159 ;; Data sizes:     COMRAM   BANK0   BANK1   BANK2   BANK3   BANK4   BANK5   BANK6   BANK7   BANK8   BANK9  BANK10  BANK1
      +1  BANK12  BANK13  BANK14  BANK15
  4160 ;;      Params:         2       0       0       0       0       0       0       0       0       0       0       0       
      +0       0       0       0       0
  4161 ;;      Locals:         1       0       0       0       0       0       0       0       0       0       0       0       
      +0       0       0       0       0
  4162 ;;      Temps:          0       0       0       0       0       0       0       0       0       0       0       0       
      +0       0       0       0       0
  4163 ;;      Totals:         3       0       0       0       0       0       0       0       0       0       0       0       
      +0       0       0       0       0
  4164 ;;Total ram usage:        3 bytes
  4165 ;; Hardware stack levels used: 1
  4166 ;; Hardware stack levels required when called: 9
  4167 ;; This function calls:
  4168 ;;		_gpio_pin_write_logic
  4169 ;; This function is called by:
  4170 ;;		_Application_initialize
  4171 ;; This function uses a non-reentrant model
  4172 ;;
  4173                           
  4174                           	psect	text25
  4175   002348                     __ptext25:
  4176                           	callstack 0
  4177   002348                     _Seven_Segm_Display_Number:
  4178                           	callstack 20
  4179   002348                     
  4180                           ;ECU_LAYER/Seven_Seg/Seven_Seg.c: 54:     if (((void*)0) == _Seven_Seg || (number < 0 ||
      +                           number > 9)) {
  4181   002348  5028               	movf	Seven_Segm_Display_Number@_Seven_Seg^0,w,c
  4182   00234A  B4D8               	btfsc	status,2,c
  4183   00234C  EFAA  F011         	goto	u5021
  4184   002350  EFAC  F011         	goto	u5020
  4185   002354                     u5021:
  4186   002354  EFB4  F011         	goto	l5692
  4187   002358                     u5020:
  4188   002358  0E09               	movlw	9
  4189   00235A  6429               	cpfsgt	Seven_Segm_Display_Number@number^0,c
  4190   00235C  EFB2  F011         	goto	u5031
  4191   002360  EFB4  F011         	goto	u5030
  4192   002364                     u5031:
  4193   002364  EFB8  F011         	goto	l5694
  4194   002368                     u5030:
  4195   002368                     l5692:
  4196                           
  4197                           ;ECU_LAYER/Seven_Seg/Seven_Seg.c: 55:         ret = (Std_ReturnType)0X00;
  4198   002368  0E00               	movlw	0
  4199   00236A  6E2A               	movwf	Seven_Segm_Display_Number@ret^0,c
  4200                           
  4201                           ;ECU_LAYER/Seven_Seg/Seven_Seg.c: 56:     } else {
  4202   00236C  EFDF  F011         	goto	l5696
  4203   002370                     l5694:
  4204                           
  4205                           ;ECU_LAYER/Seven_Seg/Seven_Seg.c: 57:         ret = gpio_pin_write_logic(&_Seven_Seg->se
      +                          gment_pins[SEGMENT_PIN0], (number >> 0) & (uint8)1);
  4206   002370  C028  F020         	movff	Seven_Segm_Display_Number@_Seven_Seg,gpio_pin_write_logic@_pin_config
  4207   002374  5029               	movf	Seven_Segm_Display_Number@number^0,w,c
  4208   002376  0B01               	andlw	1
  4209   002378  6E21               	movwf	gpio_pin_write_logic@logic_^0,c
  4210   00237A  EC86  F00C         	call	_gpio_pin_write_logic	;wreg free
  4211   00237E  6E2A               	movwf	Seven_Segm_Display_Number@ret^0,c
  4212                           
  4213                           ;ECU_LAYER/Seven_Seg/Seven_Seg.c: 58:         ret = gpio_pin_write_logic(&_Seven_Seg->se
      +                          gment_pins[SEGMENT_PIN1], (number >> 1) & (uint8)1);
  4214   002380  2828               	incf	Seven_Segm_Display_Number@_Seven_Seg^0,w,c
  4215   002382  6E20               	movwf	gpio_pin_write_logic@_pin_config^0,c
  4216   002384  90D8               	bcf	status,0,c
  4217   002386  3029               	rrcf	Seven_Segm_Display_Number@number^0,w,c
  4218   002388  0B01               	andlw	1
  4219   00238A  6E21               	movwf	gpio_pin_write_logic@logic_^0,c
  4220   00238C  EC86  F00C         	call	_gpio_pin_write_logic	;wreg free
  4221   002390  6E2A               	movwf	Seven_Segm_Display_Number@ret^0,c
  4222                           
  4223                           ;ECU_LAYER/Seven_Seg/Seven_Seg.c: 59:         ret = gpio_pin_write_logic(&_Seven_Seg->se
      +                          gment_pins[SEGMENT_PIN2], (number >> 2) & (uint8)1);
  4224   002392  5028               	movf	Seven_Segm_Display_Number@_Seven_Seg^0,w,c
  4225   002394  0F02               	addlw	2
  4226   002396  6E20               	movwf	gpio_pin_write_logic@_pin_config^0,c
  4227   002398  4029               	rrncf	Seven_Segm_Display_Number@number^0,w,c
  4228   00239A  42E8               	rrncf	wreg,f,c
  4229   00239C  0B3F               	andlw	63
  4230   00239E  0B01               	andlw	1
  4231   0023A0  6E21               	movwf	gpio_pin_write_logic@logic_^0,c
  4232   0023A2  EC86  F00C         	call	_gpio_pin_write_logic	;wreg free
  4233   0023A6  6E2A               	movwf	Seven_Segm_Display_Number@ret^0,c
  4234                           
  4235                           ;ECU_LAYER/Seven_Seg/Seven_Seg.c: 60:         ret = gpio_pin_write_logic(&_Seven_Seg->se
      +                          gment_pins[SEGMENT_PIN3], (number >> 3) & (uint8)1);
  4236   0023A8  5028               	movf	Seven_Segm_Display_Number@_Seven_Seg^0,w,c
  4237   0023AA  0F03               	addlw	3
  4238   0023AC  6E20               	movwf	gpio_pin_write_logic@_pin_config^0,c
  4239   0023AE  3829               	swapf	Seven_Segm_Display_Number@number^0,w,c
  4240   0023B0  46E8               	rlncf	wreg,f,c
  4241   0023B2  0B1F               	andlw	31
  4242   0023B4  0B01               	andlw	1
  4243   0023B6  6E21               	movwf	gpio_pin_write_logic@logic_^0,c
  4244   0023B8  EC86  F00C         	call	_gpio_pin_write_logic	;wreg free
  4245   0023BC  6E2A               	movwf	Seven_Segm_Display_Number@ret^0,c
  4246   0023BE                     l5696:
  4247                           
  4248                           ;ECU_LAYER/Seven_Seg/Seven_Seg.c: 63:     return ret;
  4249   0023BE  502A               	movf	Seven_Segm_Display_Number@ret^0,w,c
  4250   0023C0  0012               	return		;funcret
  4251   0023C2                     __end_of_Seven_Segm_Display_Number:
  4252                           	callstack 0
  4253                           
  4254 ;; *************** function _Interrupt_INTx_Init *****************
  4255 ;; Defined at:
  4256 ;;		line 44 in file "MCAL_LAYER/Interrupt/mcal_external_interrupt.c"
  4257 ;; Parameters:    Size  Location     Type
  4258 ;;  obj             1   44[COMRAM] PTR const struct .
  4259 ;;		 -> Player2(6), Player1(6), 
  4260 ;; Auto vars:     Size  Location     Type
  4261 ;;  ret             1    0[BANK0 ] unsigned char 
  4262 ;; Return value:  Size  Location     Type
  4263 ;;                  1    wreg      unsigned char 
  4264 ;; Registers used:
  4265 ;;		wreg, fsr2l, fsr2h, status,2, status,0, prodl, prodh, cstack
  4266 ;; Tracked objects:
  4267 ;;		On entry : 0/0
  4268 ;;		On exit  : 0/0
  4269 ;;		Unchanged: 0/0
  4270 ;; Data sizes:     COMRAM   BANK0   BANK1   BANK2   BANK3   BANK4   BANK5   BANK6   BANK7   BANK8   BANK9  BANK10  BANK1
      +1  BANK12  BANK13  BANK14  BANK15
  4271 ;;      Params:         1       0       0       0       0       0       0       0       0       0       0       0       
      +0       0       0       0       0
  4272 ;;      Locals:         0       1       0       0       0       0       0       0       0       0       0       0       
      +0       0       0       0       0
  4273 ;;      Temps:          0       0       0       0       0       0       0       0       0       0       0       0       
      +0       0       0       0       0
  4274 ;;      Totals:         1       1       0       0       0       0       0       0       0       0       0       0       
      +0       0       0       0       0
  4275 ;;Total ram usage:        2 bytes
  4276 ;; Hardware stack levels used: 1
  4277 ;; Hardware stack levels required when called: 11
  4278 ;; This function calls:
  4279 ;;		_Interrupt_INTx_Disable
  4280 ;;		_Interrupt_INTx_Edge_Init
  4281 ;;		_Interrupt_INTx_Enable
  4282 ;;		_Interrupt_INTx_Pin_Init
  4283 ;;		_Interrupt_Set_Interrupt_Handler
  4284 ;; This function is called by:
  4285 ;;		_Application_initialize
  4286 ;; This function uses a non-reentrant model
  4287 ;;
  4288                           
  4289                           	psect	text26
  4290   00265E                     __ptext26:
  4291                           	callstack 0
  4292   00265E                     _Interrupt_INTx_Init:
  4293                           	callstack 18
  4294   00265E                     
  4295                           ;MCAL_LAYER/Interrupt/mcal_external_interrupt.c: 45:     Std_ReturnType ret = (Std_Retur
      +                          nType)0X01;
  4296   00265E  0E01               	movlw	1
  4297   002660  0100               	movlb	0	; () banked
  4298   002662  6FD9               	movwf	Interrupt_INTx_Init@ret& (0+255),b
  4299                           
  4300                           ;MCAL_LAYER/Interrupt/mcal_external_interrupt.c: 46:     if (((void*)0) == obj) {
  4301   002664  502D               	movf	Interrupt_INTx_Init@obj^0,w,c
  4302   002666  A4D8               	btfss	status,2,c
  4303   002668  EF38  F013         	goto	u5041
  4304   00266C  EF3A  F013         	goto	u5040
  4305   002670                     u5041:
  4306   002670  EF3E  F013         	goto	l5712
  4307   002674                     u5040:
  4308   002674                     
  4309                           ; BSR set to: 0
  4310                           ;MCAL_LAYER/Interrupt/mcal_external_interrupt.c: 47:         ret = (Std_ReturnType)0X00;
  4311   002674  0E00               	movlw	0
  4312   002676  6FD9               	movwf	Interrupt_INTx_Init@ret& (0+255),b
  4313                           
  4314                           ;MCAL_LAYER/Interrupt/mcal_external_interrupt.c: 48:     } else {
  4315   002678  EF5C  F013         	goto	l5720
  4316   00267C                     l5712:
  4317                           
  4318                           ; BSR set to: 0
  4319                           ;MCAL_LAYER/Interrupt/mcal_external_interrupt.c: 50:         ret |= Interrupt_INTx_Disab
      +                          le(obj);
  4320   00267C  C02D  F020         	movff	Interrupt_INTx_Init@obj,Interrupt_INTx_Disable@obj
  4321   002680  EC92  F012         	call	_Interrupt_INTx_Disable	;wreg free
  4322   002684  0100               	movlb	0	; () banked
  4323   002686  13D9               	iorwf	Interrupt_INTx_Init@ret& (0+255),f,b
  4324                           
  4325                           ;MCAL_LAYER/Interrupt/mcal_external_interrupt.c: 51:         ret |= Interrupt_INTx_Edge_
      +                          Init(obj);
  4326   002688  C02D  F020         	movff	Interrupt_INTx_Init@obj,Interrupt_INTx_Edge_Init@obj
  4327   00268C  ECF8  F00B         	call	_Interrupt_INTx_Edge_Init	;wreg free
  4328   002690  0100               	movlb	0	; () banked
  4329   002692  13D9               	iorwf	Interrupt_INTx_Init@ret& (0+255),f,b
  4330   002694                     
  4331                           ; BSR set to: 0
  4332                           ;MCAL_LAYER/Interrupt/mcal_external_interrupt.c: 59:         ret |= Interrupt_INTx_Pin_I
      +                          nit(obj);
  4333   002694  C02D  F02B         	movff	Interrupt_INTx_Init@obj,Interrupt_INTx_Pin_Init@obj
  4334   002698  EC53  F016         	call	_Interrupt_INTx_Pin_Init	;wreg free
  4335   00269C  0100               	movlb	0	; () banked
  4336   00269E  13D9               	iorwf	Interrupt_INTx_Init@ret& (0+255),f,b
  4337   0026A0                     
  4338                           ; BSR set to: 0
  4339                           ;MCAL_LAYER/Interrupt/mcal_external_interrupt.c: 60:         ret |= Interrupt_Set_Interr
      +                          upt_Handler(obj);
  4340   0026A0  C02D  F023         	movff	Interrupt_INTx_Init@obj,Interrupt_Set_Interrupt_Handler@obj
  4341   0026A4  ECF8  F00F         	call	_Interrupt_Set_Interrupt_Handler	;wreg free
  4342   0026A8  0100               	movlb	0	; () banked
  4343   0026AA  13D9               	iorwf	Interrupt_INTx_Init@ret& (0+255),f,b
  4344   0026AC                     
  4345                           ; BSR set to: 0
  4346                           ;MCAL_LAYER/Interrupt/mcal_external_interrupt.c: 63:         ret |= Interrupt_INTx_Enabl
      +                          e(obj);
  4347   0026AC  C02D  F020         	movff	Interrupt_INTx_Init@obj,Interrupt_INTx_Enable@obj
  4348   0026B0  ECE1  F011         	call	_Interrupt_INTx_Enable	;wreg free
  4349   0026B4  0100               	movlb	0	; () banked
  4350   0026B6  13D9               	iorwf	Interrupt_INTx_Init@ret& (0+255),f,b
  4351   0026B8                     l5720:
  4352                           
  4353                           ; BSR set to: 0
  4354                           ;MCAL_LAYER/Interrupt/mcal_external_interrupt.c: 65:     return ret;
  4355   0026B8  51D9               	movf	Interrupt_INTx_Init@ret& (0+255),w,b
  4356   0026BA                     
  4357                           ; BSR set to: 0
  4358   0026BA  0012               	return		;funcret
  4359   0026BC                     __end_of_Interrupt_INTx_Init:
  4360                           	callstack 0
  4361                           
  4362 ;; *************** function _Interrupt_Set_Interrupt_Handler *****************
  4363 ;; Defined at:
  4364 ;;		line 428 in file "MCAL_LAYER/Interrupt/mcal_external_interrupt.c"
  4365 ;; Parameters:    Size  Location     Type
  4366 ;;  obj             1   34[COMRAM] PTR const struct .
  4367 ;;		 -> Player2(6), Player1(6), 
  4368 ;; Auto vars:     Size  Location     Type
  4369 ;;  ret             1   37[COMRAM] unsigned char 
  4370 ;; Return value:  Size  Location     Type
  4371 ;;                  1    wreg      unsigned char 
  4372 ;; Registers used:
  4373 ;;		wreg, fsr2l, fsr2h, status,2, status,0, cstack
  4374 ;; Tracked objects:
  4375 ;;		On entry : 0/0
  4376 ;;		On exit  : 0/0
  4377 ;;		Unchanged: 0/0
  4378 ;; Data sizes:     COMRAM   BANK0   BANK1   BANK2   BANK3   BANK4   BANK5   BANK6   BANK7   BANK8   BANK9  BANK10  BANK1
      +1  BANK12  BANK13  BANK14  BANK15
  4379 ;;      Params:         1       0       0       0       0       0       0       0       0       0       0       0       
      +0       0       0       0       0
  4380 ;;      Locals:         1       0       0       0       0       0       0       0       0       0       0       0       
      +0       0       0       0       0
  4381 ;;      Temps:          2       0       0       0       0       0       0       0       0       0       0       0       
      +0       0       0       0       0
  4382 ;;      Totals:         4       0       0       0       0       0       0       0       0       0       0       0       
      +0       0       0       0       0
  4383 ;;Total ram usage:        4 bytes
  4384 ;; Hardware stack levels used: 1
  4385 ;; Hardware stack levels required when called: 9
  4386 ;; This function calls:
  4387 ;;		_INT0_Set_Interrupt_Handler
  4388 ;;		_INT1_Set_Interrupt_Handler
  4389 ;;		_INT2_Set_Interrupt_Handler
  4390 ;; This function is called by:
  4391 ;;		_Interrupt_INTx_Init
  4392 ;; This function uses a non-reentrant model
  4393 ;;
  4394                           
  4395                           	psect	text27
  4396   001FF0                     __ptext27:
  4397                           	callstack 0
  4398   001FF0                     _Interrupt_Set_Interrupt_Handler:
  4399                           	callstack 19
  4400   001FF0                     
  4401                           ;MCAL_LAYER/Interrupt/mcal_external_interrupt.c: 430:     if (((void*)0) == obj) {
  4402   001FF0  5023               	movf	Interrupt_Set_Interrupt_Handler@obj^0,w,c
  4403   001FF2  A4D8               	btfss	status,2,c
  4404   001FF4  EFFE  F00F         	goto	u4951
  4405   001FF8  EF00  F010         	goto	u4950
  4406   001FFC                     u4951:
  4407   001FFC  EF28  F010         	goto	l5608
  4408   002000                     u4950:
  4409   002000                     l5596:
  4410                           
  4411                           ;MCAL_LAYER/Interrupt/mcal_external_interrupt.c: 431:         ret = (Std_ReturnType)0X00
      +                          ;
  4412   002000  0E00               	movlw	0
  4413   002002  6E26               	movwf	Interrupt_Set_Interrupt_Handler@ret^0,c
  4414                           
  4415                           ;MCAL_LAYER/Interrupt/mcal_external_interrupt.c: 432:     } else {
  4416   002004  EF46  F010         	goto	l5610
  4417   002008                     l5598:
  4418                           
  4419                           ;MCAL_LAYER/Interrupt/mcal_external_interrupt.c: 436:                 ret = INT0_Set_Int
      +                          errupt_Handler(obj->External_CallBack);
  4420   002008  5023               	movf	Interrupt_Set_Interrupt_Handler@obj^0,w,c
  4421   00200A  6ED9               	movwf	fsr2l,c
  4422   00200C  6ADA               	clrf	fsr2h,c
  4423   00200E  CFDE F020          	movff	postinc2,INT0_Set_Interrupt_Handler@Interrupt_Handler
  4424   002012  CFDD F021          	movff	postdec2,INT0_Set_Interrupt_Handler@Interrupt_Handler+1
  4425   002016  EC3E  F016         	call	_INT0_Set_Interrupt_Handler	;wreg free
  4426   00201A  6E26               	movwf	Interrupt_Set_Interrupt_Handler@ret^0,c
  4427                           
  4428                           ;MCAL_LAYER/Interrupt/mcal_external_interrupt.c: 437:                 break;
  4429   00201C  EF46  F010         	goto	l5610
  4430   002020                     l5600:
  4431                           
  4432                           ;MCAL_LAYER/Interrupt/mcal_external_interrupt.c: 439:                 ret = INT1_Set_Int
      +                          errupt_Handler(obj->External_CallBack);
  4433   002020  5023               	movf	Interrupt_Set_Interrupt_Handler@obj^0,w,c
  4434   002022  6ED9               	movwf	fsr2l,c
  4435   002024  6ADA               	clrf	fsr2h,c
  4436   002026  CFDE F020          	movff	postinc2,INT1_Set_Interrupt_Handler@Interrupt_Handler
  4437   00202A  CFDD F021          	movff	postdec2,INT1_Set_Interrupt_Handler@Interrupt_Handler+1
  4438   00202E  EC29  F016         	call	_INT1_Set_Interrupt_Handler	;wreg free
  4439   002032  6E26               	movwf	Interrupt_Set_Interrupt_Handler@ret^0,c
  4440                           
  4441                           ;MCAL_LAYER/Interrupt/mcal_external_interrupt.c: 440:                 break;
  4442   002034  EF46  F010         	goto	l5610
  4443   002038                     l5602:
  4444                           
  4445                           ;MCAL_LAYER/Interrupt/mcal_external_interrupt.c: 442:                 ret = INT2_Set_Int
      +                          errupt_Handler(obj->External_CallBack);
  4446   002038  5023               	movf	Interrupt_Set_Interrupt_Handler@obj^0,w,c
  4447   00203A  6ED9               	movwf	fsr2l,c
  4448   00203C  6ADA               	clrf	fsr2h,c
  4449   00203E  CFDE F020          	movff	postinc2,INT2_Set_Interrupt_Handler@Interrupt_Handler
  4450   002042  CFDD F021          	movff	postdec2,INT2_Set_Interrupt_Handler@Interrupt_Handler+1
  4451   002046  EC14  F016         	call	_INT2_Set_Interrupt_Handler	;wreg free
  4452   00204A  6E26               	movwf	Interrupt_Set_Interrupt_Handler@ret^0,c
  4453                           
  4454                           ;MCAL_LAYER/Interrupt/mcal_external_interrupt.c: 443:                 break;
  4455   00204C  EF46  F010         	goto	l5610
  4456   002050                     l5608:
  4457   002050  5023               	movf	Interrupt_Set_Interrupt_Handler@obj^0,w,c
  4458   002052  6ED9               	movwf	fsr2l,c
  4459   002054  6ADA               	clrf	fsr2h,c
  4460   002056  0E03               	movlw	3
  4461   002058  26D9               	addwf	fsr2l,f,c
  4462   00205A  50DF               	movf	indf2,w,c
  4463   00205C  6E24               	movwf	??_Interrupt_Set_Interrupt_Handler^0,c
  4464   00205E  6A25               	clrf	(??_Interrupt_Set_Interrupt_Handler+1)^0,c
  4465                           
  4466                           ; Switch on 2 bytes has been partitioned into a top level switch of size 1, and 1 sub-sw
      +                          itches
  4467                           ; Switch size 1, requested type "simple"
  4468                           ; Number of cases is 1, Range of values is 0 to 0
  4469                           ; switch strategies available:
  4470                           ; Name         Instructions Cycles
  4471                           ; simple_byte            4     3 (average)
  4472                           ;	Chosen strategy is simple_byte
  4473   002060  5025               	movf	(??_Interrupt_Set_Interrupt_Handler+1)^0,w,c
  4474   002062  0A00               	xorlw	0	; case 0
  4475   002064  B4D8               	btfsc	status,2,c
  4476   002066  EF37  F010         	goto	l6512
  4477   00206A  EF00  F010         	goto	l5596
  4478   00206E                     l6512:
  4479                           
  4480                           ; Switch size 1, requested type "simple"
  4481                           ; Number of cases is 3, Range of values is 0 to 2
  4482                           ; switch strategies available:
  4483                           ; Name         Instructions Cycles
  4484                           ; simple_byte           10     6 (average)
  4485                           ;	Chosen strategy is simple_byte
  4486   00206E  5024               	movf	??_Interrupt_Set_Interrupt_Handler^0,w,c
  4487   002070  0A00               	xorlw	0	; case 0
  4488   002072  B4D8               	btfsc	status,2,c
  4489   002074  EF04  F010         	goto	l5598
  4490   002078  0A01               	xorlw	1	; case 1
  4491   00207A  B4D8               	btfsc	status,2,c
  4492   00207C  EF10  F010         	goto	l5600
  4493   002080  0A03               	xorlw	3	; case 2
  4494   002082  B4D8               	btfsc	status,2,c
  4495   002084  EF1C  F010         	goto	l5602
  4496   002088  EF00  F010         	goto	l5596
  4497   00208C                     l5610:
  4498                           
  4499                           ;MCAL_LAYER/Interrupt/mcal_external_interrupt.c: 449:     return ret;
  4500   00208C  5026               	movf	Interrupt_Set_Interrupt_Handler@ret^0,w,c
  4501   00208E  0012               	return		;funcret
  4502   002090                     __end_of_Interrupt_Set_Interrupt_Handler:
  4503                           	callstack 0
  4504                           
  4505 ;; *************** function _INT2_Set_Interrupt_Handler *****************
  4506 ;; Defined at:
  4507 ;;		line 411 in file "MCAL_LAYER/Interrupt/mcal_external_interrupt.c"
  4508 ;; Parameters:    Size  Location     Type
  4509 ;;  Interrupt_Ha    2   31[COMRAM] PTR FTN()void 
  4510 ;;		 -> Player_two_move(1), Player_one_move(1), 
  4511 ;; Auto vars:     Size  Location     Type
  4512 ;;  ret             1   33[COMRAM] unsigned char 
  4513 ;; Return value:  Size  Location     Type
  4514 ;;                  1    wreg      unsigned char 
  4515 ;; Registers used:
  4516 ;;		wreg, status,2, status,0
  4517 ;; Tracked objects:
  4518 ;;		On entry : 0/0
  4519 ;;		On exit  : 0/0
  4520 ;;		Unchanged: 0/0
  4521 ;; Data sizes:     COMRAM   BANK0   BANK1   BANK2   BANK3   BANK4   BANK5   BANK6   BANK7   BANK8   BANK9  BANK10  BANK1
      +1  BANK12  BANK13  BANK14  BANK15
  4522 ;;      Params:         2       0       0       0       0       0       0       0       0       0       0       0       
      +0       0       0       0       0
  4523 ;;      Locals:         1       0       0       0       0       0       0       0       0       0       0       0       
      +0       0       0       0       0
  4524 ;;      Temps:          0       0       0       0       0       0       0       0       0       0       0       0       
      +0       0       0       0       0
  4525 ;;      Totals:         3       0       0       0       0       0       0       0       0       0       0       0       
      +0       0       0       0       0
  4526 ;;Total ram usage:        3 bytes
  4527 ;; Hardware stack levels used: 1
  4528 ;; Hardware stack levels required when called: 8
  4529 ;; This function calls:
  4530 ;;		Nothing
  4531 ;; This function is called by:
  4532 ;;		_Interrupt_Set_Interrupt_Handler
  4533 ;; This function uses a non-reentrant model
  4534 ;;
  4535                           
  4536                           	psect	text28
  4537   002C28                     __ptext28:
  4538                           	callstack 0
  4539   002C28                     _INT2_Set_Interrupt_Handler:
  4540                           	callstack 19
  4541   002C28                     
  4542                           ;MCAL_LAYER/Interrupt/mcal_external_interrupt.c: 412:     Std_ReturnType ret = (Std_Retu
      +                          rnType)0X01;
  4543   002C28  0E01               	movlw	1
  4544   002C2A  6E22               	movwf	INT2_Set_Interrupt_Handler@ret^0,c
  4545   002C2C                     
  4546                           ;MCAL_LAYER/Interrupt/mcal_external_interrupt.c: 413:     if (((void*)0) == Interrupt_Ha
      +                          ndler) {
  4547   002C2C  5020               	movf	INT2_Set_Interrupt_Handler@Interrupt_Handler^0,w,c
  4548   002C2E  1021               	iorwf	(INT2_Set_Interrupt_Handler@Interrupt_Handler+1)^0,w,c
  4549   002C30  A4D8               	btfss	status,2,c
  4550   002C32  EF1D  F016         	goto	u4801
  4551   002C36  EF1F  F016         	goto	u4800
  4552   002C3A                     u4801:
  4553   002C3A  EF23  F016         	goto	l5430
  4554   002C3E                     u4800:
  4555   002C3E                     
  4556                           ;MCAL_LAYER/Interrupt/mcal_external_interrupt.c: 414:         ret = (Std_ReturnType)0X00
      +                          ;
  4557   002C3E  0E00               	movlw	0
  4558   002C40  6E22               	movwf	INT2_Set_Interrupt_Handler@ret^0,c
  4559                           
  4560                           ;MCAL_LAYER/Interrupt/mcal_external_interrupt.c: 415:     } else {
  4561   002C42  EF27  F016         	goto	l5432
  4562   002C46                     l5430:
  4563                           
  4564                           ;MCAL_LAYER/Interrupt/mcal_external_interrupt.c: 417:         INT2_Interrupt_Handler = I
      +                          nterrupt_Handler;
  4565   002C46  C020  F042         	movff	INT2_Set_Interrupt_Handler@Interrupt_Handler,_INT2_Interrupt_Handler
  4566   002C4A  C021  F043         	movff	INT2_Set_Interrupt_Handler@Interrupt_Handler+1,_INT2_Interrupt_Handler+1
  4567   002C4E                     l5432:
  4568                           
  4569                           ;MCAL_LAYER/Interrupt/mcal_external_interrupt.c: 419:     return ret;
  4570   002C4E  5022               	movf	INT2_Set_Interrupt_Handler@ret^0,w,c
  4571   002C50  0012               	return		;funcret
  4572   002C52                     __end_of_INT2_Set_Interrupt_Handler:
  4573                           	callstack 0
  4574                           
  4575 ;; *************** function _INT1_Set_Interrupt_Handler *****************
  4576 ;; Defined at:
  4577 ;;		line 394 in file "MCAL_LAYER/Interrupt/mcal_external_interrupt.c"
  4578 ;; Parameters:    Size  Location     Type
  4579 ;;  Interrupt_Ha    2   31[COMRAM] PTR FTN()void 
  4580 ;;		 -> Player_two_move(1), Player_one_move(1), 
  4581 ;; Auto vars:     Size  Location     Type
  4582 ;;  ret             1   33[COMRAM] unsigned char 
  4583 ;; Return value:  Size  Location     Type
  4584 ;;                  1    wreg      unsigned char 
  4585 ;; Registers used:
  4586 ;;		wreg, status,2, status,0
  4587 ;; Tracked objects:
  4588 ;;		On entry : 0/0
  4589 ;;		On exit  : 0/0
  4590 ;;		Unchanged: 0/0
  4591 ;; Data sizes:     COMRAM   BANK0   BANK1   BANK2   BANK3   BANK4   BANK5   BANK6   BANK7   BANK8   BANK9  BANK10  BANK1
      +1  BANK12  BANK13  BANK14  BANK15
  4592 ;;      Params:         2       0       0       0       0       0       0       0       0       0       0       0       
      +0       0       0       0       0
  4593 ;;      Locals:         1       0       0       0       0       0       0       0       0       0       0       0       
      +0       0       0       0       0
  4594 ;;      Temps:          0       0       0       0       0       0       0       0       0       0       0       0       
      +0       0       0       0       0
  4595 ;;      Totals:         3       0       0       0       0       0       0       0       0       0       0       0       
      +0       0       0       0       0
  4596 ;;Total ram usage:        3 bytes
  4597 ;; Hardware stack levels used: 1
  4598 ;; Hardware stack levels required when called: 8
  4599 ;; This function calls:
  4600 ;;		Nothing
  4601 ;; This function is called by:
  4602 ;;		_Interrupt_Set_Interrupt_Handler
  4603 ;; This function uses a non-reentrant model
  4604 ;;
  4605                           
  4606                           	psect	text29
  4607   002C52                     __ptext29:
  4608                           	callstack 0
  4609   002C52                     _INT1_Set_Interrupt_Handler:
  4610                           	callstack 19
  4611   002C52                     
  4612                           ;MCAL_LAYER/Interrupt/mcal_external_interrupt.c: 395:     Std_ReturnType ret = (Std_Retu
      +                          rnType)0X01;
  4613   002C52  0E01               	movlw	1
  4614   002C54  6E22               	movwf	INT1_Set_Interrupt_Handler@ret^0,c
  4615   002C56                     
  4616                           ;MCAL_LAYER/Interrupt/mcal_external_interrupt.c: 396:     if (((void*)0) == Interrupt_Ha
      +                          ndler) {
  4617   002C56  5020               	movf	INT1_Set_Interrupt_Handler@Interrupt_Handler^0,w,c
  4618   002C58  1021               	iorwf	(INT1_Set_Interrupt_Handler@Interrupt_Handler+1)^0,w,c
  4619   002C5A  A4D8               	btfss	status,2,c
  4620   002C5C  EF32  F016         	goto	u4791
  4621   002C60  EF34  F016         	goto	u4790
  4622   002C64                     u4791:
  4623   002C64  EF38  F016         	goto	l5418
  4624   002C68                     u4790:
  4625   002C68                     
  4626                           ;MCAL_LAYER/Interrupt/mcal_external_interrupt.c: 397:         ret = (Std_ReturnType)0X00
      +                          ;
  4627   002C68  0E00               	movlw	0
  4628   002C6A  6E22               	movwf	INT1_Set_Interrupt_Handler@ret^0,c
  4629                           
  4630                           ;MCAL_LAYER/Interrupt/mcal_external_interrupt.c: 398:     } else {
  4631   002C6C  EF3C  F016         	goto	l5420
  4632   002C70                     l5418:
  4633                           
  4634                           ;MCAL_LAYER/Interrupt/mcal_external_interrupt.c: 400:         INT1_Interrupt_Handler = I
      +                          nterrupt_Handler;
  4635   002C70  C020  F044         	movff	INT1_Set_Interrupt_Handler@Interrupt_Handler,_INT1_Interrupt_Handler
  4636   002C74  C021  F045         	movff	INT1_Set_Interrupt_Handler@Interrupt_Handler+1,_INT1_Interrupt_Handler+1
  4637   002C78                     l5420:
  4638                           
  4639                           ;MCAL_LAYER/Interrupt/mcal_external_interrupt.c: 402:     return ret;
  4640   002C78  5022               	movf	INT1_Set_Interrupt_Handler@ret^0,w,c
  4641   002C7A  0012               	return		;funcret
  4642   002C7C                     __end_of_INT1_Set_Interrupt_Handler:
  4643                           	callstack 0
  4644                           
  4645 ;; *************** function _INT0_Set_Interrupt_Handler *****************
  4646 ;; Defined at:
  4647 ;;		line 377 in file "MCAL_LAYER/Interrupt/mcal_external_interrupt.c"
  4648 ;; Parameters:    Size  Location     Type
  4649 ;;  Interrupt_Ha    2   31[COMRAM] PTR FTN()void 
  4650 ;;		 -> Player_two_move(1), Player_one_move(1), 
  4651 ;; Auto vars:     Size  Location     Type
  4652 ;;  ret             1   33[COMRAM] unsigned char 
  4653 ;; Return value:  Size  Location     Type
  4654 ;;                  1    wreg      unsigned char 
  4655 ;; Registers used:
  4656 ;;		wreg, status,2, status,0
  4657 ;; Tracked objects:
  4658 ;;		On entry : 0/0
  4659 ;;		On exit  : 0/0
  4660 ;;		Unchanged: 0/0
  4661 ;; Data sizes:     COMRAM   BANK0   BANK1   BANK2   BANK3   BANK4   BANK5   BANK6   BANK7   BANK8   BANK9  BANK10  BANK1
      +1  BANK12  BANK13  BANK14  BANK15
  4662 ;;      Params:         2       0       0       0       0       0       0       0       0       0       0       0       
      +0       0       0       0       0
  4663 ;;      Locals:         1       0       0       0       0       0       0       0       0       0       0       0       
      +0       0       0       0       0
  4664 ;;      Temps:          0       0       0       0       0       0       0       0       0       0       0       0       
      +0       0       0       0       0
  4665 ;;      Totals:         3       0       0       0       0       0       0       0       0       0       0       0       
      +0       0       0       0       0
  4666 ;;Total ram usage:        3 bytes
  4667 ;; Hardware stack levels used: 1
  4668 ;; Hardware stack levels required when called: 8
  4669 ;; This function calls:
  4670 ;;		Nothing
  4671 ;; This function is called by:
  4672 ;;		_Interrupt_Set_Interrupt_Handler
  4673 ;; This function uses a non-reentrant model
  4674 ;;
  4675                           
  4676                           	psect	text30
  4677   002C7C                     __ptext30:
  4678                           	callstack 0
  4679   002C7C                     _INT0_Set_Interrupt_Handler:
  4680                           	callstack 19
  4681   002C7C                     
  4682                           ;MCAL_LAYER/Interrupt/mcal_external_interrupt.c: 378:     Std_ReturnType ret = (Std_Retu
      +                          rnType)0X01;
  4683   002C7C  0E01               	movlw	1
  4684   002C7E  6E22               	movwf	INT0_Set_Interrupt_Handler@ret^0,c
  4685   002C80                     
  4686                           ;MCAL_LAYER/Interrupt/mcal_external_interrupt.c: 379:     if (((void*)0) == Interrupt_Ha
      +                          ndler) {
  4687   002C80  5020               	movf	INT0_Set_Interrupt_Handler@Interrupt_Handler^0,w,c
  4688   002C82  1021               	iorwf	(INT0_Set_Interrupt_Handler@Interrupt_Handler+1)^0,w,c
  4689   002C84  A4D8               	btfss	status,2,c
  4690   002C86  EF47  F016         	goto	u4781
  4691   002C8A  EF49  F016         	goto	u4780
  4692   002C8E                     u4781:
  4693   002C8E  EF4D  F016         	goto	l5406
  4694   002C92                     u4780:
  4695   002C92                     
  4696                           ;MCAL_LAYER/Interrupt/mcal_external_interrupt.c: 380:         ret = (Std_ReturnType)0X00
      +                          ;
  4697   002C92  0E00               	movlw	0
  4698   002C94  6E22               	movwf	INT0_Set_Interrupt_Handler@ret^0,c
  4699                           
  4700                           ;MCAL_LAYER/Interrupt/mcal_external_interrupt.c: 381:     } else {
  4701   002C96  EF51  F016         	goto	l5408
  4702   002C9A                     l5406:
  4703                           
  4704                           ;MCAL_LAYER/Interrupt/mcal_external_interrupt.c: 383:         INT0_Interrupt_Handler = I
      +                          nterrupt_Handler;
  4705   002C9A  C020  F046         	movff	INT0_Set_Interrupt_Handler@Interrupt_Handler,_INT0_Interrupt_Handler
  4706   002C9E  C021  F047         	movff	INT0_Set_Interrupt_Handler@Interrupt_Handler+1,_INT0_Interrupt_Handler+1
  4707   002CA2                     l5408:
  4708                           
  4709                           ;MCAL_LAYER/Interrupt/mcal_external_interrupt.c: 385:     return ret;
  4710   002CA2  5022               	movf	INT0_Set_Interrupt_Handler@ret^0,w,c
  4711   002CA4  0012               	return		;funcret
  4712   002CA6                     __end_of_INT0_Set_Interrupt_Handler:
  4713                           	callstack 0
  4714                           
  4715 ;; *************** function _Interrupt_INTx_Pin_Init *****************
  4716 ;; Defined at:
  4717 ;;		line 331 in file "MCAL_LAYER/Interrupt/mcal_external_interrupt.c"
  4718 ;; Parameters:    Size  Location     Type
  4719 ;;  obj             1   42[COMRAM] PTR const struct .
  4720 ;;		 -> Player2(6), Player1(6), 
  4721 ;; Auto vars:     Size  Location     Type
  4722 ;;  ret             1   43[COMRAM] unsigned char 
  4723 ;; Return value:  Size  Location     Type
  4724 ;;                  1    wreg      unsigned char 
  4725 ;; Registers used:
  4726 ;;		wreg, fsr2l, fsr2h, status,2, status,0, prodl, prodh, cstack
  4727 ;; Tracked objects:
  4728 ;;		On entry : 0/0
  4729 ;;		On exit  : 0/0
  4730 ;;		Unchanged: 0/0
  4731 ;; Data sizes:     COMRAM   BANK0   BANK1   BANK2   BANK3   BANK4   BANK5   BANK6   BANK7   BANK8   BANK9  BANK10  BANK1
      +1  BANK12  BANK13  BANK14  BANK15
  4732 ;;      Params:         1       0       0       0       0       0       0       0       0       0       0       0       
      +0       0       0       0       0
  4733 ;;      Locals:         1       0       0       0       0       0       0       0       0       0       0       0       
      +0       0       0       0       0
  4734 ;;      Temps:          0       0       0       0       0       0       0       0       0       0       0       0       
      +0       0       0       0       0
  4735 ;;      Totals:         2       0       0       0       0       0       0       0       0       0       0       0       
      +0       0       0       0       0
  4736 ;;Total ram usage:        2 bytes
  4737 ;; Hardware stack levels used: 1
  4738 ;; Hardware stack levels required when called: 10
  4739 ;; This function calls:
  4740 ;;		_gpio_pin_initialize
  4741 ;; This function is called by:
  4742 ;;		_Interrupt_INTx_Init
  4743 ;; This function uses a non-reentrant model
  4744 ;;
  4745                           
  4746                           	psect	text31
  4747   002CA6                     __ptext31:
  4748                           	callstack 0
  4749   002CA6                     _Interrupt_INTx_Pin_Init:
  4750                           	callstack 18
  4751   002CA6                     
  4752                           ;MCAL_LAYER/Interrupt/mcal_external_interrupt.c: 333:     if (((void*)0) == obj) {
  4753   002CA6  502B               	movf	Interrupt_INTx_Pin_Init@obj^0,w,c
  4754   002CA8  A4D8               	btfss	status,2,c
  4755   002CAA  EF59  F016         	goto	u4941
  4756   002CAE  EF5B  F016         	goto	u4940
  4757   002CB2                     u4941:
  4758   002CB2  EF5F  F016         	goto	l5588
  4759   002CB6                     u4940:
  4760   002CB6                     
  4761                           ;MCAL_LAYER/Interrupt/mcal_external_interrupt.c: 334:         ret = (Std_ReturnType)0X00
      +                          ;
  4762   002CB6  0E00               	movlw	0
  4763   002CB8  6E2C               	movwf	Interrupt_INTx_Pin_Init@ret^0,c
  4764                           
  4765                           ;MCAL_LAYER/Interrupt/mcal_external_interrupt.c: 335:     } else {
  4766   002CBA  EF65  F016         	goto	l5590
  4767   002CBE                     l5588:
  4768                           
  4769                           ;MCAL_LAYER/Interrupt/mcal_external_interrupt.c: 337:         ret = gpio_pin_initialize(
      +                          &(obj->mcu_pin));
  4770   002CBE  502B               	movf	Interrupt_INTx_Pin_Init@obj^0,w,c
  4771   002CC0  0F05               	addlw	5
  4772   002CC2  6E28               	movwf	gpio_pin_initialize@_pin_config^0,c
  4773   002CC4  EC5E  F013         	call	_gpio_pin_initialize	;wreg free
  4774   002CC8  6E2C               	movwf	Interrupt_INTx_Pin_Init@ret^0,c
  4775   002CCA                     l5590:
  4776                           
  4777                           ;MCAL_LAYER/Interrupt/mcal_external_interrupt.c: 339:     return ret;
  4778   002CCA  502C               	movf	Interrupt_INTx_Pin_Init@ret^0,w,c
  4779   002CCC  0012               	return		;funcret
  4780   002CCE                     __end_of_Interrupt_INTx_Pin_Init:
  4781                           	callstack 0
  4782                           
  4783 ;; *************** function _gpio_pin_initialize *****************
  4784 ;; Defined at:
  4785 ;;		line 101 in file "MCAL_Layer/GPIO/hal_gpio.c"
  4786 ;; Parameters:    Size  Location     Type
  4787 ;;  _pin_config     1   39[COMRAM] PTR const struct .
  4788 ;;		 -> Player2(6), Player1(6), seg2$segment_pins(4), seg2(5), 
  4789 ;;		 -> seg1$segment_pins(4), seg1(5), lcd$lcd_data(4), lcd(6), 
  4790 ;;		 -> Relay_initialize@pin_obj(1), led_intialize@pin_obj(1), 
  4791 ;; Auto vars:     Size  Location     Type
  4792 ;;  ret             1   41[COMRAM] unsigned char 
  4793 ;; Return value:  Size  Location     Type
  4794 ;;                  1    wreg      unsigned char 
  4795 ;; Registers used:
  4796 ;;		wreg, fsr2l, fsr2h, status,2, status,0, prodl, prodh, cstack
  4797 ;; Tracked objects:
  4798 ;;		On entry : 0/0
  4799 ;;		On exit  : 0/0
  4800 ;;		Unchanged: 0/0
  4801 ;; Data sizes:     COMRAM   BANK0   BANK1   BANK2   BANK3   BANK4   BANK5   BANK6   BANK7   BANK8   BANK9  BANK10  BANK1
      +1  BANK12  BANK13  BANK14  BANK15
  4802 ;;      Params:         1       0       0       0       0       0       0       0       0       0       0       0       
      +0       0       0       0       0
  4803 ;;      Locals:         1       0       0       0       0       0       0       0       0       0       0       0       
      +0       0       0       0       0
  4804 ;;      Temps:          1       0       0       0       0       0       0       0       0       0       0       0       
      +0       0       0       0       0
  4805 ;;      Totals:         3       0       0       0       0       0       0       0       0       0       0       0       
      +0       0       0       0       0
  4806 ;;Total ram usage:        3 bytes
  4807 ;; Hardware stack levels used: 1
  4808 ;; Hardware stack levels required when called: 9
  4809 ;; This function calls:
  4810 ;;		_gpio_pin_direction_intialize
  4811 ;;		_gpio_pin_write_logic
  4812 ;; This function is called by:
  4813 ;;		_lcd_4bit_initailize
  4814 ;;		_Seven_Segm_initailize
  4815 ;;		_Interrupt_INTx_Pin_Init
  4816 ;;		_button_intialize
  4817 ;;		_lcd_8bit_initailize
  4818 ;;		_Dc_motor_initialize
  4819 ;;		_keypad_initialize
  4820 ;;		_led_intialize
  4821 ;;		_Relay_initialize
  4822 ;; This function uses a non-reentrant model
  4823 ;;
  4824                           
  4825                           	psect	text32
  4826   0026BC                     __ptext32:
  4827                           	callstack 0
  4828   0026BC                     _gpio_pin_initialize:
  4829                           	callstack 18
  4830   0026BC                     
  4831                           ;MCAL_Layer/GPIO/hal_gpio.c: 102:     Std_ReturnType ret = (Std_ReturnType)0X01;
  4832   0026BC  0E01               	movlw	1
  4833   0026BE  6E2A               	movwf	gpio_pin_initialize@ret^0,c
  4834                           
  4835                           ;MCAL_Layer/GPIO/hal_gpio.c: 103:     if (((void*)0) == _pin_config || _pin_config->pin 
      +                          > 8 - 1) {
  4836   0026C0  5028               	movf	gpio_pin_initialize@_pin_config^0,w,c
  4837   0026C2  B4D8               	btfsc	status,2,c
  4838   0026C4  EF66  F013         	goto	u4721
  4839   0026C8  EF68  F013         	goto	u4720
  4840   0026CC                     u4721:
  4841   0026CC  EF78  F013         	goto	l5356
  4842   0026D0                     u4720:
  4843   0026D0  5028               	movf	gpio_pin_initialize@_pin_config^0,w,c
  4844   0026D2  6ED9               	movwf	fsr2l,c
  4845   0026D4  6ADA               	clrf	fsr2h,c
  4846   0026D6  30DF               	rrcf	223,w,c
  4847   0026D8  32E8               	rrcf	wreg,f,c
  4848   0026DA  32E8               	rrcf	wreg,f,c
  4849   0026DC  0B07               	andlw	7
  4850   0026DE  6E29               	movwf	??_gpio_pin_initialize^0,c
  4851   0026E0  0E07               	movlw	7
  4852   0026E2  6429               	cpfsgt	??_gpio_pin_initialize^0,c
  4853   0026E4  EF76  F013         	goto	u4731
  4854   0026E8  EF78  F013         	goto	u4730
  4855   0026EC                     u4731:
  4856   0026EC  EF7C  F013         	goto	l5358
  4857   0026F0                     u4730:
  4858   0026F0                     l5356:
  4859                           
  4860                           ;MCAL_Layer/GPIO/hal_gpio.c: 104:         ret = (Std_ReturnType)0X00;
  4861   0026F0  0E00               	movlw	0
  4862   0026F2  6E2A               	movwf	gpio_pin_initialize@ret^0,c
  4863                           
  4864                           ;MCAL_Layer/GPIO/hal_gpio.c: 105:     } else {
  4865   0026F4  EF8B  F013         	goto	l5360
  4866   0026F8                     l5358:
  4867                           
  4868                           ;MCAL_Layer/GPIO/hal_gpio.c: 106:         gpio_pin_direction_intialize(_pin_config);
  4869   0026F8  C028  F020         	movff	gpio_pin_initialize@_pin_config,gpio_pin_direction_intialize@_pin_config
  4870   0026FC  EC65  F00B         	call	_gpio_pin_direction_intialize	;wreg free
  4871                           
  4872                           ;MCAL_Layer/GPIO/hal_gpio.c: 107:         gpio_pin_write_logic(_pin_config, _pin_config-
      +                          >logic);
  4873   002700  C028  F020         	movff	gpio_pin_initialize@_pin_config,gpio_pin_write_logic@_pin_config
  4874   002704  5028               	movf	gpio_pin_initialize@_pin_config^0,w,c
  4875   002706  6ED9               	movwf	fsr2l,c
  4876   002708  6ADA               	clrf	fsr2h,c
  4877   00270A  0E00               	movlw	0
  4878   00270C  BEDF               	btfsc	indf2,7,c
  4879   00270E  0E01               	movlw	1
  4880   002710  6E21               	movwf	gpio_pin_write_logic@logic_^0,c
  4881   002712  EC86  F00C         	call	_gpio_pin_write_logic	;wreg free
  4882   002716                     l5360:
  4883                           
  4884                           ;MCAL_Layer/GPIO/hal_gpio.c: 110:     return ret;
  4885   002716  502A               	movf	gpio_pin_initialize@ret^0,w,c
  4886   002718  0012               	return		;funcret
  4887   00271A                     __end_of_gpio_pin_initialize:
  4888                           	callstack 0
  4889                           
  4890 ;; *************** function _gpio_pin_write_logic *****************
  4891 ;; Defined at:
  4892 ;;		line 55 in file "MCAL_Layer/GPIO/hal_gpio.c"
  4893 ;; Parameters:    Size  Location     Type
  4894 ;;  _pin_config     1   31[COMRAM] PTR const struct .
  4895 ;;		 -> Player2(6), Player1(6), seg2$segment_pins(4), seg2(5), 
  4896 ;;		 -> seg1$segment_pins(4), seg1(5), lcd$lcd_data(4), lcd(6), 
  4897 ;;		 -> Relay_off@pin_obj(1), Relay_on@pin_obj(1), Relay_initialize@pin_obj(1), led_turn_off@pin_obj(1), 
  4898 ;;		 -> led_turn_on@pin_obj(1), led_intialize@pin_obj(1), 
  4899 ;;  logic_          1   32[COMRAM] enum E3402
  4900 ;; Auto vars:     Size  Location     Type
  4901 ;;  ret             1   38[COMRAM] unsigned char 
  4902 ;; Return value:  Size  Location     Type
  4903 ;;                  1    wreg      unsigned char 
  4904 ;; Registers used:
  4905 ;;		wreg, fsr2l, fsr2h, status,2, status,0, prodl, prodh
  4906 ;; Tracked objects:
  4907 ;;		On entry : 0/0
  4908 ;;		On exit  : 0/0
  4909 ;;		Unchanged: 0/0
  4910 ;; Data sizes:     COMRAM   BANK0   BANK1   BANK2   BANK3   BANK4   BANK5   BANK6   BANK7   BANK8   BANK9  BANK10  BANK1
      +1  BANK12  BANK13  BANK14  BANK15
  4911 ;;      Params:         2       0       0       0       0       0       0       0       0       0       0       0       
      +0       0       0       0       0
  4912 ;;      Locals:         1       0       0       0       0       0       0       0       0       0       0       0       
      +0       0       0       0       0
  4913 ;;      Temps:          5       0       0       0       0       0       0       0       0       0       0       0       
      +0       0       0       0       0
  4914 ;;      Totals:         8       0       0       0       0       0       0       0       0       0       0       0       
      +0       0       0       0       0
  4915 ;;Total ram usage:        8 bytes
  4916 ;; Hardware stack levels used: 1
  4917 ;; Hardware stack levels required when called: 8
  4918 ;; This function calls:
  4919 ;;		Nothing
  4920 ;; This function is called by:
  4921 ;;		_lcd_4bit_send_command
  4922 ;;		_lcd_4bit_send_char_data
  4923 ;;		_lcd_4bits_send_enable
  4924 ;;		_lcd_4bits_command
  4925 ;;		_Seven_Segm_Display_Number
  4926 ;;		_gpio_pin_initialize
  4927 ;;		_lcd_8bit_send_command
  4928 ;;		_lcd_8bit_send_char_data
  4929 ;;		_lcd_8bits_send_enable
  4930 ;;		_Dc_motor_rotate_right
  4931 ;;		_Dc_motor_rotate_left
  4932 ;;		_Dc_motor_stop
  4933 ;;		_keypad_get_value
  4934 ;;		_led_turn_on
  4935 ;;		_led_turn_off
  4936 ;;		_Relay_on
  4937 ;;		_Relay_off
  4938 ;; This function uses a non-reentrant model
  4939 ;;
  4940                           
  4941                           	psect	text33
  4942   00190C                     __ptext33:
  4943                           	callstack 0
  4944   00190C                     _gpio_pin_write_logic:
  4945                           	callstack 17
  4946   00190C                     
  4947                           ;MCAL_Layer/GPIO/hal_gpio.c: 56:     Std_ReturnType ret = (Std_ReturnType)0X01;
  4948   00190C  0E01               	movlw	1
  4949   00190E  6E27               	movwf	gpio_pin_write_logic@ret^0,c
  4950                           
  4951                           ;MCAL_Layer/GPIO/hal_gpio.c: 57:     if (((void*)0) == _pin_config || _pin_config->pin >
      +                           8 - 1) {
  4952   001910  5020               	movf	gpio_pin_write_logic@_pin_config^0,w,c
  4953   001912  B4D8               	btfsc	status,2,c
  4954   001914  EF8E  F00C         	goto	u4321
  4955   001918  EF90  F00C         	goto	u4320
  4956   00191C                     u4321:
  4957   00191C  EFA0  F00C         	goto	l5116
  4958   001920                     u4320:
  4959   001920  5020               	movf	gpio_pin_write_logic@_pin_config^0,w,c
  4960   001922  6ED9               	movwf	fsr2l,c
  4961   001924  6ADA               	clrf	fsr2h,c
  4962   001926  30DF               	rrcf	223,w,c
  4963   001928  32E8               	rrcf	wreg,f,c
  4964   00192A  32E8               	rrcf	wreg,f,c
  4965   00192C  0B07               	andlw	7
  4966   00192E  6E22               	movwf	??_gpio_pin_write_logic^0,c
  4967   001930  0E07               	movlw	7
  4968   001932  6422               	cpfsgt	??_gpio_pin_write_logic^0,c
  4969   001934  EF9E  F00C         	goto	u4331
  4970   001938  EFA0  F00C         	goto	u4330
  4971   00193C                     u4331:
  4972   00193C  EFF7  F00C         	goto	l5126
  4973   001940                     u4330:
  4974   001940                     l5116:
  4975                           
  4976                           ;MCAL_Layer/GPIO/hal_gpio.c: 58:         ret = (Std_ReturnType)0X00;
  4977   001940  0E00               	movlw	0
  4978   001942  6E27               	movwf	gpio_pin_write_logic@ret^0,c
  4979                           
  4980                           ;MCAL_Layer/GPIO/hal_gpio.c: 59:     } else {
  4981   001944  EF0C  F00D         	goto	l5128
  4982   001948                     l5118:
  4983                           
  4984                           ;MCAL_Layer/GPIO/hal_gpio.c: 63:                 (*lat_registers[_pin_config->port] |= (
      +                          (uint8)1 << _pin_config->pin));
  4985   001948  5020               	movf	gpio_pin_write_logic@_pin_config^0,w,c
  4986   00194A  6ED9               	movwf	fsr2l,c
  4987   00194C  6ADA               	clrf	fsr2h,c
  4988   00194E  30DF               	rrcf	223,w,c
  4989   001950  32E8               	rrcf	wreg,f,c
  4990   001952  32E8               	rrcf	wreg,f,c
  4991   001954  0B07               	andlw	7
  4992   001956  6E22               	movwf	??_gpio_pin_write_logic^0,c
  4993   001958  0E01               	movlw	1
  4994   00195A  6E23               	movwf	(??_gpio_pin_write_logic+1)^0,c
  4995   00195C  2A22               	incf	??_gpio_pin_write_logic^0,f,c
  4996   00195E  EFB3  F00C         	goto	u4344
  4997   001962                     u4345:
  4998   001962  90D8               	bcf	status,0,c
  4999   001964  3623               	rlcf	(??_gpio_pin_write_logic+1)^0,f,c
  5000   001966                     u4344:
  5001   001966  2E22               	decfsz	??_gpio_pin_write_logic^0,f,c
  5002   001968  EFB1  F00C         	goto	u4345
  5003   00196C  5020               	movf	gpio_pin_write_logic@_pin_config^0,w,c
  5004   00196E  6ED9               	movwf	fsr2l,c
  5005   001970  6ADA               	clrf	fsr2h,c
  5006   001972  50DF               	movf	223,w,c
  5007   001974  0B07               	andlw	7
  5008   001976  0D02               	mullw	2
  5009   001978  50F3               	movf	243,w,c
  5010   00197A  0F8A               	addlw	low _lat_registers
  5011   00197C  6ED9               	movwf	fsr2l,c
  5012   00197E  6ADA               	clrf	fsr2h,c
  5013   001980  CFDE F024          	movff	postinc2,??_gpio_pin_write_logic+2
  5014   001984  CFDD F025          	movff	postdec2,??_gpio_pin_write_logic+3
  5015   001988  C024  FFD9         	movff	??_gpio_pin_write_logic+2,fsr2l
  5016   00198C  C025  FFDA         	movff	??_gpio_pin_write_logic+3,fsr2h
  5017   001990  5023               	movf	(??_gpio_pin_write_logic+1)^0,w,c
  5018   001992  12DF               	iorwf	indf2,f,c
  5019                           
  5020                           ;MCAL_Layer/GPIO/hal_gpio.c: 64:                 break;
  5021   001994  EF0C  F00D         	goto	l5128
  5022   001998                     l5120:
  5023                           
  5024                           ;MCAL_Layer/GPIO/hal_gpio.c: 67:                 (*lat_registers[_pin_config->port] &= ~
      +                          ((uint8)1 << _pin_config->pin));
  5025   001998  5020               	movf	gpio_pin_write_logic@_pin_config^0,w,c
  5026   00199A  6ED9               	movwf	fsr2l,c
  5027   00199C  6ADA               	clrf	fsr2h,c
  5028   00199E  30DF               	rrcf	223,w,c
  5029   0019A0  32E8               	rrcf	wreg,f,c
  5030   0019A2  32E8               	rrcf	wreg,f,c
  5031   0019A4  0B07               	andlw	7
  5032   0019A6  6E22               	movwf	??_gpio_pin_write_logic^0,c
  5033   0019A8  0E01               	movlw	1
  5034   0019AA  6E23               	movwf	(??_gpio_pin_write_logic+1)^0,c
  5035   0019AC  2A22               	incf	??_gpio_pin_write_logic^0,f,c
  5036   0019AE  EFDB  F00C         	goto	u4354
  5037   0019B2                     u4355:
  5038   0019B2  90D8               	bcf	status,0,c
  5039   0019B4  3623               	rlcf	(??_gpio_pin_write_logic+1)^0,f,c
  5040   0019B6                     u4354:
  5041   0019B6  2E22               	decfsz	??_gpio_pin_write_logic^0,f,c
  5042   0019B8  EFD9  F00C         	goto	u4355
  5043   0019BC  5023               	movf	(??_gpio_pin_write_logic+1)^0,w,c
  5044   0019BE  0AFF               	xorlw	255
  5045   0019C0  6E24               	movwf	(??_gpio_pin_write_logic+2)^0,c
  5046   0019C2  5020               	movf	gpio_pin_write_logic@_pin_config^0,w,c
  5047   0019C4  6ED9               	movwf	fsr2l,c
  5048   0019C6  6ADA               	clrf	fsr2h,c
  5049   0019C8  50DF               	movf	223,w,c
  5050   0019CA  0B07               	andlw	7
  5051   0019CC  0D02               	mullw	2
  5052   0019CE  50F3               	movf	243,w,c
  5053   0019D0  0F8A               	addlw	low _lat_registers
  5054   0019D2  6ED9               	movwf	fsr2l,c
  5055   0019D4  6ADA               	clrf	fsr2h,c
  5056   0019D6  CFDE F025          	movff	postinc2,??_gpio_pin_write_logic+3
  5057   0019DA  CFDD F026          	movff	postdec2,??_gpio_pin_write_logic+4
  5058   0019DE  C025  FFD9         	movff	??_gpio_pin_write_logic+3,fsr2l
  5059   0019E2  C026  FFDA         	movff	??_gpio_pin_write_logic+4,fsr2h
  5060   0019E6  5024               	movf	(??_gpio_pin_write_logic+2)^0,w,c
  5061   0019E8  16DF               	andwf	indf2,f,c
  5062                           
  5063                           ;MCAL_Layer/GPIO/hal_gpio.c: 68:                 break;
  5064   0019EA  EF0C  F00D         	goto	l5128
  5065   0019EE                     l5126:
  5066   0019EE  5021               	movf	gpio_pin_write_logic@logic_^0,w,c
  5067   0019F0  6E22               	movwf	??_gpio_pin_write_logic^0,c
  5068   0019F2  6A23               	clrf	(??_gpio_pin_write_logic+1)^0,c
  5069                           
  5070                           ; Switch on 2 bytes has been partitioned into a top level switch of size 1, and 1 sub-sw
      +                          itches
  5071                           ; Switch size 1, requested type "simple"
  5072                           ; Number of cases is 1, Range of values is 0 to 0
  5073                           ; switch strategies available:
  5074                           ; Name         Instructions Cycles
  5075                           ; simple_byte            4     3 (average)
  5076                           ;	Chosen strategy is simple_byte
  5077   0019F4  5023               	movf	(??_gpio_pin_write_logic+1)^0,w,c
  5078   0019F6  0A00               	xorlw	0	; case 0
  5079   0019F8  B4D8               	btfsc	status,2,c
  5080   0019FA  EF01  F00D         	goto	l6514
  5081   0019FE  EFA0  F00C         	goto	l5116
  5082   001A02                     l6514:
  5083                           
  5084                           ; Switch size 1, requested type "simple"
  5085                           ; Number of cases is 2, Range of values is 0 to 1
  5086                           ; switch strategies available:
  5087                           ; Name         Instructions Cycles
  5088                           ; simple_byte            7     4 (average)
  5089                           ;	Chosen strategy is simple_byte
  5090   001A02  5022               	movf	??_gpio_pin_write_logic^0,w,c
  5091   001A04  0A00               	xorlw	0	; case 0
  5092   001A06  B4D8               	btfsc	status,2,c
  5093   001A08  EFCC  F00C         	goto	l5120
  5094   001A0C  0A01               	xorlw	1	; case 1
  5095   001A0E  B4D8               	btfsc	status,2,c
  5096   001A10  EFA4  F00C         	goto	l5118
  5097   001A14  EFA0  F00C         	goto	l5116
  5098   001A18                     l5128:
  5099                           
  5100                           ;MCAL_Layer/GPIO/hal_gpio.c: 77:     return ret;
  5101   001A18  5027               	movf	gpio_pin_write_logic@ret^0,w,c
  5102   001A1A  0012               	return		;funcret
  5103   001A1C                     __end_of_gpio_pin_write_logic:
  5104                           	callstack 0
  5105                           
  5106 ;; *************** function _gpio_pin_direction_intialize *****************
  5107 ;; Defined at:
  5108 ;;		line 19 in file "MCAL_Layer/GPIO/hal_gpio.c"
  5109 ;; Parameters:    Size  Location     Type
  5110 ;;  _pin_config     1   31[COMRAM] PTR const struct .
  5111 ;;		 -> Player2(6), Player1(6), seg2$segment_pins(4), seg2(5), 
  5112 ;;		 -> seg1$segment_pins(4), seg1(5), lcd$lcd_data(4), lcd(6), 
  5113 ;;		 -> Relay_initialize@pin_obj(1), led_intialize@pin_obj(1), 
  5114 ;; Auto vars:     Size  Location     Type
  5115 ;;  ret             1   37[COMRAM] unsigned char 
  5116 ;; Return value:  Size  Location     Type
  5117 ;;                  1    wreg      unsigned char 
  5118 ;; Registers used:
  5119 ;;		wreg, fsr2l, fsr2h, status,2, status,0, prodl, prodh
  5120 ;; Tracked objects:
  5121 ;;		On entry : 0/0
  5122 ;;		On exit  : 0/0
  5123 ;;		Unchanged: 0/0
  5124 ;; Data sizes:     COMRAM   BANK0   BANK1   BANK2   BANK3   BANK4   BANK5   BANK6   BANK7   BANK8   BANK9  BANK10  BANK1
      +1  BANK12  BANK13  BANK14  BANK15
  5125 ;;      Params:         1       0       0       0       0       0       0       0       0       0       0       0       
      +0       0       0       0       0
  5126 ;;      Locals:         1       0       0       0       0       0       0       0       0       0       0       0       
      +0       0       0       0       0
  5127 ;;      Temps:          5       0       0       0       0       0       0       0       0       0       0       0       
      +0       0       0       0       0
  5128 ;;      Totals:         7       0       0       0       0       0       0       0       0       0       0       0       
      +0       0       0       0       0
  5129 ;;Total ram usage:        7 bytes
  5130 ;; Hardware stack levels used: 1
  5131 ;; Hardware stack levels required when called: 8
  5132 ;; This function calls:
  5133 ;;		Nothing
  5134 ;; This function is called by:
  5135 ;;		_gpio_pin_initialize
  5136 ;;		_Interrupt_RBx_Init
  5137 ;; This function uses a non-reentrant model
  5138 ;;
  5139                           
  5140                           	psect	text34
  5141   0016CA                     __ptext34:
  5142                           	callstack 0
  5143   0016CA                     _gpio_pin_direction_intialize:
  5144                           	callstack 18
  5145   0016CA                     
  5146                           ;MCAL_Layer/GPIO/hal_gpio.c: 20:     Std_ReturnType ret = (Std_ReturnType)0X01;
  5147   0016CA  0E01               	movlw	1
  5148   0016CC  6E26               	movwf	gpio_pin_direction_intialize@ret^0,c
  5149                           
  5150                           ;MCAL_Layer/GPIO/hal_gpio.c: 22:     if (((void*)0) == _pin_config || (_pin_config->pin 
      +                          > 8 - 1)) {
  5151   0016CE  5020               	movf	gpio_pin_direction_intialize@_pin_config^0,w,c
  5152   0016D0  B4D8               	btfsc	status,2,c
  5153   0016D2  EF6D  F00B         	goto	u4561
  5154   0016D6  EF6F  F00B         	goto	u4560
  5155   0016DA                     u4561:
  5156   0016DA  EF7F  F00B         	goto	l5284
  5157   0016DE                     u4560:
  5158   0016DE  5020               	movf	gpio_pin_direction_intialize@_pin_config^0,w,c
  5159   0016E0  6ED9               	movwf	fsr2l,c
  5160   0016E2  6ADA               	clrf	fsr2h,c
  5161   0016E4  30DF               	rrcf	223,w,c
  5162   0016E6  32E8               	rrcf	wreg,f,c
  5163   0016E8  32E8               	rrcf	wreg,f,c
  5164   0016EA  0B07               	andlw	7
  5165   0016EC  6E21               	movwf	??_gpio_pin_direction_intialize^0,c
  5166   0016EE  0E07               	movlw	7
  5167   0016F0  6421               	cpfsgt	??_gpio_pin_direction_intialize^0,c
  5168   0016F2  EF7D  F00B         	goto	u4571
  5169   0016F6  EF7F  F00B         	goto	u4570
  5170   0016FA                     u4571:
  5171   0016FA  EFD6  F00B         	goto	l5292
  5172   0016FE                     u4570:
  5173   0016FE                     l5284:
  5174                           
  5175                           ;MCAL_Layer/GPIO/hal_gpio.c: 23:         ret = (Std_ReturnType)0X00;
  5176   0016FE  0E00               	movlw	0
  5177   001700  6E26               	movwf	gpio_pin_direction_intialize@ret^0,c
  5178                           
  5179                           ;MCAL_Layer/GPIO/hal_gpio.c: 24:     } else {
  5180   001702  EFF6  F00B         	goto	l5294
  5181   001706                     l5286:
  5182                           
  5183                           ;MCAL_Layer/GPIO/hal_gpio.c: 28:                 (*tris_registers[_pin_config->port] &= 
      +                          ~((uint8)1 << _pin_config->pin));
  5184   001706  5020               	movf	gpio_pin_direction_intialize@_pin_config^0,w,c
  5185   001708  6ED9               	movwf	fsr2l,c
  5186   00170A  6ADA               	clrf	fsr2h,c
  5187   00170C  30DF               	rrcf	223,w,c
  5188   00170E  32E8               	rrcf	wreg,f,c
  5189   001710  32E8               	rrcf	wreg,f,c
  5190   001712  0B07               	andlw	7
  5191   001714  6E21               	movwf	??_gpio_pin_direction_intialize^0,c
  5192   001716  0E01               	movlw	1
  5193   001718  6E22               	movwf	(??_gpio_pin_direction_intialize+1)^0,c
  5194   00171A  2A21               	incf	??_gpio_pin_direction_intialize^0,f,c
  5195   00171C  EF92  F00B         	goto	u4584
  5196   001720                     u4585:
  5197   001720  90D8               	bcf	status,0,c
  5198   001722  3622               	rlcf	(??_gpio_pin_direction_intialize+1)^0,f,c
  5199   001724                     u4584:
  5200   001724  2E21               	decfsz	??_gpio_pin_direction_intialize^0,f,c
  5201   001726  EF90  F00B         	goto	u4585
  5202   00172A  5022               	movf	(??_gpio_pin_direction_intialize+1)^0,w,c
  5203   00172C  0AFF               	xorlw	255
  5204   00172E  6E23               	movwf	(??_gpio_pin_direction_intialize+2)^0,c
  5205   001730  5020               	movf	gpio_pin_direction_intialize@_pin_config^0,w,c
  5206   001732  6ED9               	movwf	fsr2l,c
  5207   001734  6ADA               	clrf	fsr2h,c
  5208   001736  50DF               	movf	223,w,c
  5209   001738  0B07               	andlw	7
  5210   00173A  0D02               	mullw	2
  5211   00173C  50F3               	movf	243,w,c
  5212   00173E  0F94               	addlw	low _tris_registers
  5213   001740  6ED9               	movwf	fsr2l,c
  5214   001742  6ADA               	clrf	fsr2h,c
  5215   001744  CFDE F024          	movff	postinc2,??_gpio_pin_direction_intialize+3
  5216   001748  CFDD F025          	movff	postdec2,??_gpio_pin_direction_intialize+4
  5217   00174C  C024  FFD9         	movff	??_gpio_pin_direction_intialize+3,fsr2l
  5218   001750  C025  FFDA         	movff	??_gpio_pin_direction_intialize+4,fsr2h
  5219   001754  5023               	movf	(??_gpio_pin_direction_intialize+2)^0,w,c
  5220   001756  16DF               	andwf	indf2,f,c
  5221                           
  5222                           ;MCAL_Layer/GPIO/hal_gpio.c: 30:                 break;
  5223   001758  EFF6  F00B         	goto	l5294
  5224   00175C                     l5288:
  5225                           
  5226                           ;MCAL_Layer/GPIO/hal_gpio.c: 33:                 (*tris_registers[_pin_config->port] |= 
      +                          ((uint8)1 << _pin_config->pin));
  5227   00175C  5020               	movf	gpio_pin_direction_intialize@_pin_config^0,w,c
  5228   00175E  6ED9               	movwf	fsr2l,c
  5229   001760  6ADA               	clrf	fsr2h,c
  5230   001762  30DF               	rrcf	223,w,c
  5231   001764  32E8               	rrcf	wreg,f,c
  5232   001766  32E8               	rrcf	wreg,f,c
  5233   001768  0B07               	andlw	7
  5234   00176A  6E21               	movwf	??_gpio_pin_direction_intialize^0,c
  5235   00176C  0E01               	movlw	1
  5236   00176E  6E22               	movwf	(??_gpio_pin_direction_intialize+1)^0,c
  5237   001770  2A21               	incf	??_gpio_pin_direction_intialize^0,f,c
  5238   001772  EFBD  F00B         	goto	u4594
  5239   001776                     u4595:
  5240   001776  90D8               	bcf	status,0,c
  5241   001778  3622               	rlcf	(??_gpio_pin_direction_intialize+1)^0,f,c
  5242   00177A                     u4594:
  5243   00177A  2E21               	decfsz	??_gpio_pin_direction_intialize^0,f,c
  5244   00177C  EFBB  F00B         	goto	u4595
  5245   001780  5020               	movf	gpio_pin_direction_intialize@_pin_config^0,w,c
  5246   001782  6ED9               	movwf	fsr2l,c
  5247   001784  6ADA               	clrf	fsr2h,c
  5248   001786  50DF               	movf	223,w,c
  5249   001788  0B07               	andlw	7
  5250   00178A  0D02               	mullw	2
  5251   00178C  50F3               	movf	243,w,c
  5252   00178E  0F94               	addlw	low _tris_registers
  5253   001790  6ED9               	movwf	fsr2l,c
  5254   001792  6ADA               	clrf	fsr2h,c
  5255   001794  CFDE F023          	movff	postinc2,??_gpio_pin_direction_intialize+2
  5256   001798  CFDD F024          	movff	postdec2,??_gpio_pin_direction_intialize+3
  5257   00179C  C023  FFD9         	movff	??_gpio_pin_direction_intialize+2,fsr2l
  5258   0017A0  C024  FFDA         	movff	??_gpio_pin_direction_intialize+3,fsr2h
  5259   0017A4  5022               	movf	(??_gpio_pin_direction_intialize+1)^0,w,c
  5260   0017A6  12DF               	iorwf	indf2,f,c
  5261                           
  5262                           ;MCAL_Layer/GPIO/hal_gpio.c: 34:                 break;
  5263   0017A8  EFF6  F00B         	goto	l5294
  5264   0017AC                     l5292:
  5265   0017AC  5020               	movf	gpio_pin_direction_intialize@_pin_config^0,w,c
  5266   0017AE  6ED9               	movwf	fsr2l,c
  5267   0017B0  6ADA               	clrf	fsr2h,c
  5268   0017B2  BCDF               	btfsc	indf2,6,c
  5269   0017B4  EFDE  F00B         	goto	u4601
  5270   0017B8  EFE1  F00B         	goto	u4600
  5271   0017BC                     u4601:
  5272   0017BC  0E01               	movlw	1
  5273   0017BE  EFE2  F00B         	goto	u4610
  5274   0017C2                     u4600:
  5275   0017C2  0E00               	movlw	0
  5276   0017C4                     u4610:
  5277   0017C4  6E21               	movwf	??_gpio_pin_direction_intialize^0,c
  5278   0017C6  6A22               	clrf	(??_gpio_pin_direction_intialize+1)^0,c
  5279                           
  5280                           ; Switch on 2 bytes has been partitioned into a top level switch of size 1, and 1 sub-sw
      +                          itches
  5281                           ; Switch size 1, requested type "simple"
  5282                           ; Number of cases is 1, Range of values is 0 to 0
  5283                           ; switch strategies available:
  5284                           ; Name         Instructions Cycles
  5285                           ; simple_byte            4     3 (average)
  5286                           ;	Chosen strategy is simple_byte
  5287   0017C8  5022               	movf	(??_gpio_pin_direction_intialize+1)^0,w,c
  5288   0017CA  0A00               	xorlw	0	; case 0
  5289   0017CC  B4D8               	btfsc	status,2,c
  5290   0017CE  EFEB  F00B         	goto	l6516
  5291   0017D2  EF7F  F00B         	goto	l5284
  5292   0017D6                     l6516:
  5293                           
  5294                           ; Switch size 1, requested type "simple"
  5295                           ; Number of cases is 2, Range of values is 0 to 1
  5296                           ; switch strategies available:
  5297                           ; Name         Instructions Cycles
  5298                           ; simple_byte            7     4 (average)
  5299                           ;	Chosen strategy is simple_byte
  5300   0017D6  5021               	movf	??_gpio_pin_direction_intialize^0,w,c
  5301   0017D8  0A00               	xorlw	0	; case 0
  5302   0017DA  B4D8               	btfsc	status,2,c
  5303   0017DC  EF83  F00B         	goto	l5286
  5304   0017E0  0A01               	xorlw	1	; case 1
  5305   0017E2  B4D8               	btfsc	status,2,c
  5306   0017E4  EFAE  F00B         	goto	l5288
  5307   0017E8  EF7F  F00B         	goto	l5284
  5308   0017EC                     l5294:
  5309                           
  5310                           ;MCAL_Layer/GPIO/hal_gpio.c: 41:     return ret;
  5311   0017EC  5026               	movf	gpio_pin_direction_intialize@ret^0,w,c
  5312   0017EE  0012               	return		;funcret
  5313   0017F0                     __end_of_gpio_pin_direction_intialize:
  5314                           	callstack 0
  5315                           
  5316 ;; *************** function _Interrupt_INTx_Enable *****************
  5317 ;; Defined at:
  5318 ;;		line 159 in file "MCAL_LAYER/Interrupt/mcal_external_interrupt.c"
  5319 ;; Parameters:    Size  Location     Type
  5320 ;;  obj             1   31[COMRAM] PTR const struct .
  5321 ;;		 -> Player2(6), Player1(6), 
  5322 ;; Auto vars:     Size  Location     Type
  5323 ;;  ret             1   34[COMRAM] unsigned char 
  5324 ;; Return value:  Size  Location     Type
  5325 ;;                  1    wreg      unsigned char 
  5326 ;; Registers used:
  5327 ;;		wreg, fsr2l, fsr2h, status,2, status,0
  5328 ;; Tracked objects:
  5329 ;;		On entry : 0/0
  5330 ;;		On exit  : 0/0
  5331 ;;		Unchanged: 0/0
  5332 ;; Data sizes:     COMRAM   BANK0   BANK1   BANK2   BANK3   BANK4   BANK5   BANK6   BANK7   BANK8   BANK9  BANK10  BANK1
      +1  BANK12  BANK13  BANK14  BANK15
  5333 ;;      Params:         1       0       0       0       0       0       0       0       0       0       0       0       
      +0       0       0       0       0
  5334 ;;      Locals:         1       0       0       0       0       0       0       0       0       0       0       0       
      +0       0       0       0       0
  5335 ;;      Temps:          2       0       0       0       0       0       0       0       0       0       0       0       
      +0       0       0       0       0
  5336 ;;      Totals:         4       0       0       0       0       0       0       0       0       0       0       0       
      +0       0       0       0       0
  5337 ;;Total ram usage:        4 bytes
  5338 ;; Hardware stack levels used: 1
  5339 ;; Hardware stack levels required when called: 8
  5340 ;; This function calls:
  5341 ;;		Nothing
  5342 ;; This function is called by:
  5343 ;;		_Interrupt_INTx_Init
  5344 ;; This function uses a non-reentrant model
  5345 ;;
  5346                           
  5347                           	psect	text35
  5348   0023C2                     __ptext35:
  5349                           	callstack 0
  5350   0023C2                     _Interrupt_INTx_Enable:
  5351                           	callstack 20
  5352   0023C2                     
  5353                           ;MCAL_LAYER/Interrupt/mcal_external_interrupt.c: 160:     Std_ReturnType ret = (Std_Retu
      +                          rnType)0X01;
  5354   0023C2  0E01               	movlw	1
  5355   0023C4  6E23               	movwf	Interrupt_INTx_Enable@ret^0,c
  5356                           
  5357                           ;MCAL_LAYER/Interrupt/mcal_external_interrupt.c: 161:     if (((void*)0) == obj) {
  5358   0023C6  5020               	movf	Interrupt_INTx_Enable@obj^0,w,c
  5359   0023C8  A4D8               	btfss	status,2,c
  5360   0023CA  EFE9  F011         	goto	u4961
  5361   0023CE  EFEB  F011         	goto	u4960
  5362   0023D2                     u4961:
  5363   0023D2  EFFE  F011         	goto	l5626
  5364   0023D6                     u4960:
  5365   0023D6                     l5620:
  5366                           
  5367                           ;MCAL_LAYER/Interrupt/mcal_external_interrupt.c: 162:         ret = (Std_ReturnType)0X00
      +                          ;
  5368   0023D6  0E00               	movlw	0
  5369   0023D8  6E23               	movwf	Interrupt_INTx_Enable@ret^0,c
  5370                           
  5371                           ;MCAL_LAYER/Interrupt/mcal_external_interrupt.c: 163:     } else {
  5372   0023DA  EF1C  F012         	goto	l5628
  5373   0023DE                     l517:
  5374                           
  5375                           ;MCAL_LAYER/Interrupt/mcal_external_interrupt.c: 169:                 (INTCONbits.GIEH =
      +                           1);
  5376   0023DE  8EF2               	bsf	242,7,c	;volatile
  5377                           
  5378                           ;MCAL_LAYER/Interrupt/mcal_external_interrupt.c: 170:                 (INTCONbits.PEIE =
      +                           1);
  5379   0023E0  8CF2               	bsf	242,6,c	;volatile
  5380                           
  5381                           ;MCAL_LAYER/Interrupt/mcal_external_interrupt.c: 172:                 (INTCONbits.INT0IE
      +                           = 1);
  5382   0023E2  88F2               	bsf	242,4,c	;volatile
  5383                           
  5384                           ;MCAL_LAYER/Interrupt/mcal_external_interrupt.c: 173:                 break;
  5385   0023E4  EF1C  F012         	goto	l5628
  5386   0023E8                     l519:
  5387                           
  5388                           ;MCAL_LAYER/Interrupt/mcal_external_interrupt.c: 182:                 (INTCONbits.GIEH =
      +                           1);
  5389   0023E8  8EF2               	bsf	242,7,c	;volatile
  5390                           
  5391                           ;MCAL_LAYER/Interrupt/mcal_external_interrupt.c: 183:                 (INTCONbits.PEIE =
      +                           1);
  5392   0023EA  8CF2               	bsf	242,6,c	;volatile
  5393                           
  5394                           ;MCAL_LAYER/Interrupt/mcal_external_interrupt.c: 185:                 (INTCON3bits.INT1I
      +                          E = 1);
  5395   0023EC  86F0               	bsf	240,3,c	;volatile
  5396                           
  5397                           ;MCAL_LAYER/Interrupt/mcal_external_interrupt.c: 186:                 break;
  5398   0023EE  EF1C  F012         	goto	l5628
  5399   0023F2                     l520:
  5400                           
  5401                           ;MCAL_LAYER/Interrupt/mcal_external_interrupt.c: 195:                 (INTCONbits.GIEH =
      +                           1);
  5402   0023F2  8EF2               	bsf	242,7,c	;volatile
  5403                           
  5404                           ;MCAL_LAYER/Interrupt/mcal_external_interrupt.c: 196:                 (INTCONbits.PEIE =
      +                           1);
  5405   0023F4  8CF2               	bsf	242,6,c	;volatile
  5406                           
  5407                           ;MCAL_LAYER/Interrupt/mcal_external_interrupt.c: 198:                 (INTCON3bits.INT2I
      +                          E = 1);
  5408   0023F6  88F0               	bsf	240,4,c	;volatile
  5409                           
  5410                           ;MCAL_LAYER/Interrupt/mcal_external_interrupt.c: 199:                 break;
  5411   0023F8  EF1C  F012         	goto	l5628
  5412   0023FC                     l5626:
  5413   0023FC  5020               	movf	Interrupt_INTx_Enable@obj^0,w,c
  5414   0023FE  6ED9               	movwf	fsr2l,c
  5415   002400  6ADA               	clrf	fsr2h,c
  5416   002402  0E03               	movlw	3
  5417   002404  26D9               	addwf	fsr2l,f,c
  5418   002406  50DF               	movf	indf2,w,c
  5419   002408  6E21               	movwf	??_Interrupt_INTx_Enable^0,c
  5420   00240A  6A22               	clrf	(??_Interrupt_INTx_Enable+1)^0,c
  5421                           
  5422                           ; Switch on 2 bytes has been partitioned into a top level switch of size 1, and 1 sub-sw
      +                          itches
  5423                           ; Switch size 1, requested type "simple"
  5424                           ; Number of cases is 1, Range of values is 0 to 0
  5425                           ; switch strategies available:
  5426                           ; Name         Instructions Cycles
  5427                           ; simple_byte            4     3 (average)
  5428                           ;	Chosen strategy is simple_byte
  5429   00240C  5022               	movf	(??_Interrupt_INTx_Enable+1)^0,w,c
  5430   00240E  0A00               	xorlw	0	; case 0
  5431   002410  B4D8               	btfsc	status,2,c
  5432   002412  EF0D  F012         	goto	l6518
  5433   002416  EFEB  F011         	goto	l5620
  5434   00241A                     l6518:
  5435                           
  5436                           ; Switch size 1, requested type "simple"
  5437                           ; Number of cases is 3, Range of values is 0 to 2
  5438                           ; switch strategies available:
  5439                           ; Name         Instructions Cycles
  5440                           ; simple_byte           10     6 (average)
  5441                           ;	Chosen strategy is simple_byte
  5442   00241A  5021               	movf	??_Interrupt_INTx_Enable^0,w,c
  5443   00241C  0A00               	xorlw	0	; case 0
  5444   00241E  B4D8               	btfsc	status,2,c
  5445   002420  EFEF  F011         	goto	l517
  5446   002424  0A01               	xorlw	1	; case 1
  5447   002426  B4D8               	btfsc	status,2,c
  5448   002428  EFF4  F011         	goto	l519
  5449   00242C  0A03               	xorlw	3	; case 2
  5450   00242E  B4D8               	btfsc	status,2,c
  5451   002430  EFF9  F011         	goto	l520
  5452   002434  EFEB  F011         	goto	l5620
  5453   002438                     l5628:
  5454                           
  5455                           ;MCAL_LAYER/Interrupt/mcal_external_interrupt.c: 205:     return ret;
  5456   002438  5023               	movf	Interrupt_INTx_Enable@ret^0,w,c
  5457   00243A  0012               	return		;funcret
  5458   00243C                     __end_of_Interrupt_INTx_Enable:
  5459                           	callstack 0
  5460                           
  5461 ;; *************** function _Interrupt_INTx_Edge_Init *****************
  5462 ;; Defined at:
  5463 ;;		line 290 in file "MCAL_LAYER/Interrupt/mcal_external_interrupt.c"
  5464 ;; Parameters:    Size  Location     Type
  5465 ;;  obj             1   31[COMRAM] PTR const struct .
  5466 ;;		 -> Player2(6), Player1(6), 
  5467 ;; Auto vars:     Size  Location     Type
  5468 ;;  ret             1   34[COMRAM] unsigned char 
  5469 ;; Return value:  Size  Location     Type
  5470 ;;                  1    wreg      unsigned char 
  5471 ;; Registers used:
  5472 ;;		wreg, fsr2l, fsr2h, status,2, status,0
  5473 ;; Tracked objects:
  5474 ;;		On entry : 0/0
  5475 ;;		On exit  : 0/0
  5476 ;;		Unchanged: 0/0
  5477 ;; Data sizes:     COMRAM   BANK0   BANK1   BANK2   BANK3   BANK4   BANK5   BANK6   BANK7   BANK8   BANK9  BANK10  BANK1
      +1  BANK12  BANK13  BANK14  BANK15
  5478 ;;      Params:         1       0       0       0       0       0       0       0       0       0       0       0       
      +0       0       0       0       0
  5479 ;;      Locals:         1       0       0       0       0       0       0       0       0       0       0       0       
      +0       0       0       0       0
  5480 ;;      Temps:          2       0       0       0       0       0       0       0       0       0       0       0       
      +0       0       0       0       0
  5481 ;;      Totals:         4       0       0       0       0       0       0       0       0       0       0       0       
      +0       0       0       0       0
  5482 ;;Total ram usage:        4 bytes
  5483 ;; Hardware stack levels used: 1
  5484 ;; Hardware stack levels required when called: 8
  5485 ;; This function calls:
  5486 ;;		Nothing
  5487 ;; This function is called by:
  5488 ;;		_Interrupt_INTx_Init
  5489 ;; This function uses a non-reentrant model
  5490 ;;
  5491                           
  5492                           	psect	text36
  5493   0017F0                     __ptext36:
  5494                           	callstack 0
  5495   0017F0                     _Interrupt_INTx_Edge_Init:
  5496                           	callstack 20
  5497   0017F0                     
  5498                           ;MCAL_LAYER/Interrupt/mcal_external_interrupt.c: 291:     Std_ReturnType ret = (Std_Retu
      +                          rnType)0X01;
  5499   0017F0  0E01               	movlw	1
  5500   0017F2  6E23               	movwf	Interrupt_INTx_Edge_Init@ret^0,c
  5501                           
  5502                           ;MCAL_LAYER/Interrupt/mcal_external_interrupt.c: 292:     if (((void*)0) == obj) {
  5503   0017F4  5020               	movf	Interrupt_INTx_Edge_Init@obj^0,w,c
  5504   0017F6  A4D8               	btfss	status,2,c
  5505   0017F8  EF00  F00C         	goto	u4871
  5506   0017FC  EF02  F00C         	goto	u4870
  5507   001800                     u4871:
  5508   001800  EF66  F00C         	goto	l5574
  5509   001804                     u4870:
  5510   001804                     l5544:
  5511                           
  5512                           ;MCAL_LAYER/Interrupt/mcal_external_interrupt.c: 293:         ret = (Std_ReturnType)0X00
      +                          ;
  5513   001804  0E00               	movlw	0
  5514   001806  6E23               	movwf	Interrupt_INTx_Edge_Init@ret^0,c
  5515                           
  5516                           ;MCAL_LAYER/Interrupt/mcal_external_interrupt.c: 294:     } else {
  5517   001808  EF84  F00C         	goto	l5576
  5518   00180C                     l5546:
  5519                           
  5520                           ;MCAL_LAYER/Interrupt/mcal_external_interrupt.c: 297:                 if (obj->Edge == I
      +                          NTERRUPT_FALLING_EDGE) {
  5521   00180C  5020               	movf	Interrupt_INTx_Edge_Init@obj^0,w,c
  5522   00180E  6ED9               	movwf	fsr2l,c
  5523   001810  6ADA               	clrf	fsr2h,c
  5524   001812  0E02               	movlw	2
  5525   001814  26D9               	addwf	fsr2l,f,c
  5526   001816  04DE               	decf	postinc2,w,c
  5527   001818  A4D8               	btfss	status,2,c
  5528   00181A  EF11  F00C         	goto	u4881
  5529   00181E  EF13  F00C         	goto	u4880
  5530   001822                     u4881:
  5531   001822  EF16  F00C         	goto	l5550
  5532   001826                     u4880:
  5533   001826                     
  5534                           ;MCAL_LAYER/Interrupt/mcal_external_interrupt.c: 298:                     (INTCON2bits.I
      +                          NTEDG0 = 0);
  5535   001826  9CF1               	bcf	241,6,c	;volatile
  5536                           
  5537                           ;MCAL_LAYER/Interrupt/mcal_external_interrupt.c: 299:                 } else if (obj->Ed
      +                          ge == INTERRUPT_RISING_EDGE) {
  5538   001828  EF84  F00C         	goto	l5576
  5539   00182C                     l5550:
  5540   00182C  5020               	movf	Interrupt_INTx_Edge_Init@obj^0,w,c
  5541   00182E  6ED9               	movwf	fsr2l,c
  5542   001830  6ADA               	clrf	fsr2h,c
  5543   001832  0E02               	movlw	2
  5544   001834  26D9               	addwf	fsr2l,f,c
  5545   001836  50DF               	movf	indf2,w,c
  5546   001838  A4D8               	btfss	status,2,c
  5547   00183A  EF21  F00C         	goto	u4891
  5548   00183E  EF23  F00C         	goto	u4890
  5549   001842                     u4891:
  5550   001842  EF84  F00C         	goto	l543
  5551   001846                     u4890:
  5552   001846                     
  5553                           ;MCAL_LAYER/Interrupt/mcal_external_interrupt.c: 300:                     (INTCON2bits.I
      +                          NTEDG0 = 1);
  5554   001846  8CF1               	bsf	241,6,c	;volatile
  5555   001848  EF84  F00C         	goto	l5576
  5556   00184C                     l5554:
  5557                           
  5558                           ;MCAL_LAYER/Interrupt/mcal_external_interrupt.c: 304:                 if (obj->Edge == I
      +                          NTERRUPT_FALLING_EDGE) {
  5559   00184C  5020               	movf	Interrupt_INTx_Edge_Init@obj^0,w,c
  5560   00184E  6ED9               	movwf	fsr2l,c
  5561   001850  6ADA               	clrf	fsr2h,c
  5562   001852  0E02               	movlw	2
  5563   001854  26D9               	addwf	fsr2l,f,c
  5564   001856  04DE               	decf	postinc2,w,c
  5565   001858  A4D8               	btfss	status,2,c
  5566   00185A  EF31  F00C         	goto	u4901
  5567   00185E  EF33  F00C         	goto	u4900
  5568   001862                     u4901:
  5569   001862  EF36  F00C         	goto	l5558
  5570   001866                     u4900:
  5571   001866                     
  5572                           ;MCAL_LAYER/Interrupt/mcal_external_interrupt.c: 305:                     (INTCON2bits.I
      +                          NTEDG1 = 0);
  5573   001866  9AF1               	bcf	241,5,c	;volatile
  5574                           
  5575                           ;MCAL_LAYER/Interrupt/mcal_external_interrupt.c: 306:                 } else if (obj->Ed
      +                          ge == INTERRUPT_RISING_EDGE) {
  5576   001868  EF84  F00C         	goto	l5576
  5577   00186C                     l5558:
  5578   00186C  5020               	movf	Interrupt_INTx_Edge_Init@obj^0,w,c
  5579   00186E  6ED9               	movwf	fsr2l,c
  5580   001870  6ADA               	clrf	fsr2h,c
  5581   001872  0E02               	movlw	2
  5582   001874  26D9               	addwf	fsr2l,f,c
  5583   001876  50DF               	movf	indf2,w,c
  5584   001878  A4D8               	btfss	status,2,c
  5585   00187A  EF41  F00C         	goto	u4911
  5586   00187E  EF43  F00C         	goto	u4910
  5587   001882                     u4911:
  5588   001882  EF84  F00C         	goto	l543
  5589   001886                     u4910:
  5590   001886                     
  5591                           ;MCAL_LAYER/Interrupt/mcal_external_interrupt.c: 307:                     (INTCON2bits.I
      +                          NTEDG1 = 1);
  5592   001886  8AF1               	bsf	241,5,c	;volatile
  5593   001888  EF84  F00C         	goto	l5576
  5594   00188C                     l5562:
  5595                           
  5596                           ;MCAL_LAYER/Interrupt/mcal_external_interrupt.c: 311:                 if (obj->Edge == I
      +                          NTERRUPT_FALLING_EDGE) {
  5597   00188C  5020               	movf	Interrupt_INTx_Edge_Init@obj^0,w,c
  5598   00188E  6ED9               	movwf	fsr2l,c
  5599   001890  6ADA               	clrf	fsr2h,c
  5600   001892  0E02               	movlw	2
  5601   001894  26D9               	addwf	fsr2l,f,c
  5602   001896  04DE               	decf	postinc2,w,c
  5603   001898  A4D8               	btfss	status,2,c
  5604   00189A  EF51  F00C         	goto	u4921
  5605   00189E  EF53  F00C         	goto	u4920
  5606   0018A2                     u4921:
  5607   0018A2  EF56  F00C         	goto	l5566
  5608   0018A6                     u4920:
  5609   0018A6                     
  5610                           ;MCAL_LAYER/Interrupt/mcal_external_interrupt.c: 312:                     (INTCON2bits.I
      +                          NTEDG2 = 0);
  5611   0018A6  98F1               	bcf	241,4,c	;volatile
  5612                           
  5613                           ;MCAL_LAYER/Interrupt/mcal_external_interrupt.c: 313:                 } else if (obj->Ed
      +                          ge == INTERRUPT_RISING_EDGE) {
  5614   0018A8  EF84  F00C         	goto	l5576
  5615   0018AC                     l5566:
  5616   0018AC  5020               	movf	Interrupt_INTx_Edge_Init@obj^0,w,c
  5617   0018AE  6ED9               	movwf	fsr2l,c
  5618   0018B0  6ADA               	clrf	fsr2h,c
  5619   0018B2  0E02               	movlw	2
  5620   0018B4  26D9               	addwf	fsr2l,f,c
  5621   0018B6  50DF               	movf	indf2,w,c
  5622   0018B8  A4D8               	btfss	status,2,c
  5623   0018BA  EF61  F00C         	goto	u4931
  5624   0018BE  EF63  F00C         	goto	u4930
  5625   0018C2                     u4931:
  5626   0018C2  EF84  F00C         	goto	l543
  5627   0018C6                     u4930:
  5628   0018C6                     
  5629                           ;MCAL_LAYER/Interrupt/mcal_external_interrupt.c: 314:                     (INTCON2bits.I
      +                          NTEDG2 = 1);
  5630   0018C6  88F1               	bsf	241,4,c	;volatile
  5631   0018C8  EF84  F00C         	goto	l5576
  5632   0018CC                     l5574:
  5633   0018CC  5020               	movf	Interrupt_INTx_Edge_Init@obj^0,w,c
  5634   0018CE  6ED9               	movwf	fsr2l,c
  5635   0018D0  6ADA               	clrf	fsr2h,c
  5636   0018D2  0E03               	movlw	3
  5637   0018D4  26D9               	addwf	fsr2l,f,c
  5638   0018D6  50DF               	movf	indf2,w,c
  5639   0018D8  6E21               	movwf	??_Interrupt_INTx_Edge_Init^0,c
  5640   0018DA  6A22               	clrf	(??_Interrupt_INTx_Edge_Init+1)^0,c
  5641                           
  5642                           ; Switch on 2 bytes has been partitioned into a top level switch of size 1, and 1 sub-sw
      +                          itches
  5643                           ; Switch size 1, requested type "simple"
  5644                           ; Number of cases is 1, Range of values is 0 to 0
  5645                           ; switch strategies available:
  5646                           ; Name         Instructions Cycles
  5647                           ; simple_byte            4     3 (average)
  5648                           ;	Chosen strategy is simple_byte
  5649   0018DC  5022               	movf	(??_Interrupt_INTx_Edge_Init+1)^0,w,c
  5650   0018DE  0A00               	xorlw	0	; case 0
  5651   0018E0  B4D8               	btfsc	status,2,c
  5652   0018E2  EF75  F00C         	goto	l6520
  5653   0018E6  EF02  F00C         	goto	l5544
  5654   0018EA                     l6520:
  5655                           
  5656                           ; Switch size 1, requested type "simple"
  5657                           ; Number of cases is 3, Range of values is 0 to 2
  5658                           ; switch strategies available:
  5659                           ; Name         Instructions Cycles
  5660                           ; simple_byte           10     6 (average)
  5661                           ;	Chosen strategy is simple_byte
  5662   0018EA  5021               	movf	??_Interrupt_INTx_Edge_Init^0,w,c
  5663   0018EC  0A00               	xorlw	0	; case 0
  5664   0018EE  B4D8               	btfsc	status,2,c
  5665   0018F0  EF06  F00C         	goto	l5546
  5666   0018F4  0A01               	xorlw	1	; case 1
  5667   0018F6  B4D8               	btfsc	status,2,c
  5668   0018F8  EF26  F00C         	goto	l5554
  5669   0018FC  0A03               	xorlw	3	; case 2
  5670   0018FE  B4D8               	btfsc	status,2,c
  5671   001900  EF46  F00C         	goto	l5562
  5672   001904  EF02  F00C         	goto	l5544
  5673   001908                     l543:
  5674   001908                     l5576:
  5675                           
  5676                           ;MCAL_LAYER/Interrupt/mcal_external_interrupt.c: 322:     return ret;
  5677   001908  5023               	movf	Interrupt_INTx_Edge_Init@ret^0,w,c
  5678   00190A  0012               	return		;funcret
  5679   00190C                     __end_of_Interrupt_INTx_Edge_Init:
  5680                           	callstack 0
  5681                           
  5682 ;; *************** function _Interrupt_INTx_Disable *****************
  5683 ;; Defined at:
  5684 ;;		line 214 in file "MCAL_LAYER/Interrupt/mcal_external_interrupt.c"
  5685 ;; Parameters:    Size  Location     Type
  5686 ;;  obj             1   31[COMRAM] PTR const struct .
  5687 ;;		 -> Player2(6), Player1(6), 
  5688 ;; Auto vars:     Size  Location     Type
  5689 ;;  ret             1   34[COMRAM] unsigned char 
  5690 ;; Return value:  Size  Location     Type
  5691 ;;                  1    wreg      unsigned char 
  5692 ;; Registers used:
  5693 ;;		wreg, fsr2l, fsr2h, status,2, status,0
  5694 ;; Tracked objects:
  5695 ;;		On entry : 0/0
  5696 ;;		On exit  : 0/0
  5697 ;;		Unchanged: 0/0
  5698 ;; Data sizes:     COMRAM   BANK0   BANK1   BANK2   BANK3   BANK4   BANK5   BANK6   BANK7   BANK8   BANK9  BANK10  BANK1
      +1  BANK12  BANK13  BANK14  BANK15
  5699 ;;      Params:         1       0       0       0       0       0       0       0       0       0       0       0       
      +0       0       0       0       0
  5700 ;;      Locals:         1       0       0       0       0       0       0       0       0       0       0       0       
      +0       0       0       0       0
  5701 ;;      Temps:          2       0       0       0       0       0       0       0       0       0       0       0       
      +0       0       0       0       0
  5702 ;;      Totals:         4       0       0       0       0       0       0       0       0       0       0       0       
      +0       0       0       0       0
  5703 ;;Total ram usage:        4 bytes
  5704 ;; Hardware stack levels used: 1
  5705 ;; Hardware stack levels required when called: 8
  5706 ;; This function calls:
  5707 ;;		Nothing
  5708 ;; This function is called by:
  5709 ;;		_Interrupt_INTx_Init
  5710 ;;		_Interrupt_INTx_DeInit
  5711 ;; This function uses a non-reentrant model
  5712 ;;
  5713                           
  5714                           	psect	text37
  5715   002524                     __ptext37:
  5716                           	callstack 0
  5717   002524                     _Interrupt_INTx_Disable:
  5718                           	callstack 20
  5719   002524                     
  5720                           ;MCAL_LAYER/Interrupt/mcal_external_interrupt.c: 215:     Std_ReturnType ret = (Std_Retu
      +                          rnType)0X01;
  5721   002524  0E01               	movlw	1
  5722   002526  6E23               	movwf	Interrupt_INTx_Disable@ret^0,c
  5723                           
  5724                           ;MCAL_LAYER/Interrupt/mcal_external_interrupt.c: 216:     if (((void*)0) == obj) {
  5725   002528  5020               	movf	Interrupt_INTx_Disable@obj^0,w,c
  5726   00252A  A4D8               	btfss	status,2,c
  5727   00252C  EF9A  F012         	goto	u4861
  5728   002530  EF9C  F012         	goto	u4860
  5729   002534                     u4861:
  5730   002534  EFA9  F012         	goto	l5532
  5731   002538                     u4860:
  5732   002538                     l5526:
  5733                           
  5734                           ;MCAL_LAYER/Interrupt/mcal_external_interrupt.c: 217:         ret = (Std_ReturnType)0X00
      +                          ;
  5735   002538  0E00               	movlw	0
  5736   00253A  6E23               	movwf	Interrupt_INTx_Disable@ret^0,c
  5737                           
  5738                           ;MCAL_LAYER/Interrupt/mcal_external_interrupt.c: 218:     } else {
  5739   00253C  EFC7  F012         	goto	l5534
  5740   002540                     l528:
  5741                           
  5742                           ;MCAL_LAYER/Interrupt/mcal_external_interrupt.c: 221:                 (INTCONbits.INT0IE
      +                           = 0);
  5743   002540  98F2               	bcf	242,4,c	;volatile
  5744                           
  5745                           ;MCAL_LAYER/Interrupt/mcal_external_interrupt.c: 222:                 break;
  5746   002542  EFC7  F012         	goto	l5534
  5747   002546                     l530:
  5748                           
  5749                           ;MCAL_LAYER/Interrupt/mcal_external_interrupt.c: 224:                 (INTCON3bits.INT1I
      +                          E = 0);
  5750   002546  96F0               	bcf	240,3,c	;volatile
  5751                           
  5752                           ;MCAL_LAYER/Interrupt/mcal_external_interrupt.c: 225:                 break;
  5753   002548  EFC7  F012         	goto	l5534
  5754   00254C                     l531:
  5755                           
  5756                           ;MCAL_LAYER/Interrupt/mcal_external_interrupt.c: 227:                 (INTCON3bits.INT2I
      +                          E = 0);
  5757   00254C  98F0               	bcf	240,4,c	;volatile
  5758                           
  5759                           ;MCAL_LAYER/Interrupt/mcal_external_interrupt.c: 228:                 break;
  5760   00254E  EFC7  F012         	goto	l5534
  5761   002552                     l5532:
  5762   002552  5020               	movf	Interrupt_INTx_Disable@obj^0,w,c
  5763   002554  6ED9               	movwf	fsr2l,c
  5764   002556  6ADA               	clrf	fsr2h,c
  5765   002558  0E03               	movlw	3
  5766   00255A  26D9               	addwf	fsr2l,f,c
  5767   00255C  50DF               	movf	indf2,w,c
  5768   00255E  6E21               	movwf	??_Interrupt_INTx_Disable^0,c
  5769   002560  6A22               	clrf	(??_Interrupt_INTx_Disable+1)^0,c
  5770                           
  5771                           ; Switch on 2 bytes has been partitioned into a top level switch of size 1, and 1 sub-sw
      +                          itches
  5772                           ; Switch size 1, requested type "simple"
  5773                           ; Number of cases is 1, Range of values is 0 to 0
  5774                           ; switch strategies available:
  5775                           ; Name         Instructions Cycles
  5776                           ; simple_byte            4     3 (average)
  5777                           ;	Chosen strategy is simple_byte
  5778   002562  5022               	movf	(??_Interrupt_INTx_Disable+1)^0,w,c
  5779   002564  0A00               	xorlw	0	; case 0
  5780   002566  B4D8               	btfsc	status,2,c
  5781   002568  EFB8  F012         	goto	l6522
  5782   00256C  EF9C  F012         	goto	l5526
  5783   002570                     l6522:
  5784                           
  5785                           ; Switch size 1, requested type "simple"
  5786                           ; Number of cases is 3, Range of values is 0 to 2
  5787                           ; switch strategies available:
  5788                           ; Name         Instructions Cycles
  5789                           ; simple_byte           10     6 (average)
  5790                           ;	Chosen strategy is simple_byte
  5791   002570  5021               	movf	??_Interrupt_INTx_Disable^0,w,c
  5792   002572  0A00               	xorlw	0	; case 0
  5793   002574  B4D8               	btfsc	status,2,c
  5794   002576  EFA0  F012         	goto	l528
  5795   00257A  0A01               	xorlw	1	; case 1
  5796   00257C  B4D8               	btfsc	status,2,c
  5797   00257E  EFA3  F012         	goto	l530
  5798   002582  0A03               	xorlw	3	; case 2
  5799   002584  B4D8               	btfsc	status,2,c
  5800   002586  EFA6  F012         	goto	l531
  5801   00258A  EF9C  F012         	goto	l5526
  5802   00258E                     l5534:
  5803                           
  5804                           ;MCAL_LAYER/Interrupt/mcal_external_interrupt.c: 234:     return ret;
  5805   00258E  5023               	movf	Interrupt_INTx_Disable@ret^0,w,c
  5806   002590  0012               	return		;funcret
  5807   002592                     __end_of_Interrupt_INTx_Disable:
  5808                           	callstack 0
  5809                           
  5810 ;; *************** function _Interrupt_Manager_High *****************
  5811 ;; Defined at:
  5812 ;;		line 36 in file "MCAL_LAYER/Interrupt/mcal_interrupt_manager.c"
  5813 ;; Parameters:    Size  Location     Type
  5814 ;;		None
  5815 ;; Auto vars:     Size  Location     Type
  5816 ;;		None
  5817 ;; Return value:  Size  Location     Type
  5818 ;;                  1    wreg      void 
  5819 ;; Registers used:
  5820 ;;		wreg, fsr2l, fsr2h, status,2, status,0, pcl, pclath, pclatu, tosl, prodl, prodh, cstack
  5821 ;; Tracked objects:
  5822 ;;		On entry : 0/0
  5823 ;;		On exit  : 0/0
  5824 ;;		Unchanged: 0/0
  5825 ;; Data sizes:     COMRAM   BANK0   BANK1   BANK2   BANK3   BANK4   BANK5   BANK6   BANK7   BANK8   BANK9  BANK10  BANK1
      +1  BANK12  BANK13  BANK14  BANK15
  5826 ;;      Params:         0       0       0       0       0       0       0       0       0       0       0       0       
      +0       0       0       0       0
  5827 ;;      Locals:         0       0       0       0       0       0       0       0       0       0       0       0       
      +0       0       0       0       0
  5828 ;;      Temps:          6       0       0       0       0       0       0       0       0       0       0       0       
      +0       0       0       0       0
  5829 ;;      Totals:         6       0       0       0       0       0       0       0       0       0       0       0       
      +0       0       0       0       0
  5830 ;;Total ram usage:        6 bytes
  5831 ;; Hardware stack levels used: 1
  5832 ;; Hardware stack levels required when called: 7
  5833 ;; This function calls:
  5834 ;;		_INT0_ISR
  5835 ;;		_INT1_ISR
  5836 ;;		_INT2_ISR
  5837 ;;		_RB4_ISR
  5838 ;;		_RB5_ISR
  5839 ;;		_RB6_ISR
  5840 ;;		_RB7_ISR
  5841 ;; This function is called by:
  5842 ;;		Interrupt level 2
  5843 ;; This function uses a non-reentrant model
  5844 ;;
  5845                           
  5846                           	psect	intcode
  5847   000008                     __pintcode:
  5848                           	callstack 0
  5849   000008                     _Interrupt_Manager_High:
  5850                           	callstack 16
  5851                           
  5852                           ;incstack = 0
  5853   000008  8260               	bsf	int$flags,1,c	;set compiler interrupt flag (level 2)
  5854   00000A  ED89  F009         	call	int_func,f	;refresh shadow registers
  5855                           
  5856                           	psect	intcode_body
  5857   001312                     __pintcode_body:
  5858                           	callstack 16
  5859   001312                     int_func:
  5860                           	callstack 16
  5861   001312  0006               	pop		; remove dummy address from shadow register refresh
  5862   001314  CFFA F01A          	movff	pclath,??_Interrupt_Manager_High
  5863   001318  CFFB F01B          	movff	pclatu,??_Interrupt_Manager_High+1
  5864   00131C  CFD9 F01C          	movff	fsr2l,??_Interrupt_Manager_High+2
  5865   001320  CFDA F01D          	movff	fsr2h,??_Interrupt_Manager_High+3
  5866   001324  CFF3 F01E          	movff	prodl,??_Interrupt_Manager_High+4
  5867   001328  CFF4 F01F          	movff	prodh,??_Interrupt_Manager_High+5
  5868   00132C                     
  5869                           ;MCAL_LAYER/Interrupt/mcal_interrupt_manager.c: 38:     if ((INTCONbits.INT0IE == 1) && 
      +                          (INTCONbits.INT0IF == 1)) {
  5870   00132C  A8F2               	btfss	242,4,c	;volatile
  5871   00132E  EF9B  F009         	goto	i2u408_41
  5872   001332  EF9D  F009         	goto	i2u408_40
  5873   001336                     i2u408_41:
  5874   001336  EFA6  F009         	goto	i2l4848
  5875   00133A                     i2u408_40:
  5876   00133A  A2F2               	btfss	242,1,c	;volatile
  5877   00133C  EFA2  F009         	goto	i2u409_41
  5878   001340  EFA4  F009         	goto	i2u409_40
  5879   001344                     i2u409_41:
  5880   001344  EFA6  F009         	goto	i2l4848
  5881   001348                     i2u409_40:
  5882   001348                     
  5883                           ;MCAL_LAYER/Interrupt/mcal_interrupt_manager.c: 39:         INT0_ISR();
  5884   001348  ECFD  F015         	call	_INT0_ISR	;wreg free
  5885   00134C                     i2l4848:
  5886                           
  5887                           ;MCAL_LAYER/Interrupt/mcal_interrupt_manager.c: 42:     if ((INTCON3bits.INT1IE == 1) &&
      +                           (INTCON3bits.INT1IF == 1)) {
  5888   00134C  A6F0               	btfss	240,3,c	;volatile
  5889   00134E  EFAB  F009         	goto	i2u410_41
  5890   001352  EFAD  F009         	goto	i2u410_40
  5891   001356                     i2u410_41:
  5892   001356  EFB6  F009         	goto	i2l4854
  5893   00135A                     i2u410_40:
  5894   00135A  A0F0               	btfss	240,0,c	;volatile
  5895   00135C  EFB2  F009         	goto	i2u411_41
  5896   001360  EFB4  F009         	goto	i2u411_40
  5897   001364                     i2u411_41:
  5898   001364  EFB6  F009         	goto	i2l4854
  5899   001368                     i2u411_40:
  5900   001368                     
  5901                           ;MCAL_LAYER/Interrupt/mcal_interrupt_manager.c: 43:         INT1_ISR();
  5902   001368  ECE6  F015         	call	_INT1_ISR	;wreg free
  5903   00136C                     i2l4854:
  5904                           
  5905                           ;MCAL_LAYER/Interrupt/mcal_interrupt_manager.c: 46:     if ((INTCON3bits.INT2IE == 1) &&
      +                           (INTCON3bits.INT2IF == 1)) {
  5906   00136C  A8F0               	btfss	240,4,c	;volatile
  5907   00136E  EFBB  F009         	goto	i2u412_41
  5908   001372  EFBD  F009         	goto	i2u412_40
  5909   001376                     i2u412_41:
  5910   001376  EFC6  F009         	goto	i2l4860
  5911   00137A                     i2u412_40:
  5912   00137A  A2F0               	btfss	240,1,c	;volatile
  5913   00137C  EFC2  F009         	goto	i2u413_41
  5914   001380  EFC4  F009         	goto	i2u413_40
  5915   001384                     i2u413_41:
  5916   001384  EFC6  F009         	goto	i2l4860
  5917   001388                     i2u413_40:
  5918   001388                     
  5919                           ;MCAL_LAYER/Interrupt/mcal_interrupt_manager.c: 47:         INT2_ISR();
  5920   001388  ECCF  F015         	call	_INT2_ISR	;wreg free
  5921   00138C                     i2l4860:
  5922                           
  5923                           ;MCAL_LAYER/Interrupt/mcal_interrupt_manager.c: 51:     if ((INTCONbits.RBIE == 1) && (I
      +                          NTCONbits.RBIF == 1)) {
  5924   00138C  A6F2               	btfss	242,3,c	;volatile
  5925   00138E  EFCB  F009         	goto	i2u414_41
  5926   001392  EFCD  F009         	goto	i2u414_40
  5927   001396                     i2u414_41:
  5928   001396  EF74  F00A         	goto	i2l684
  5929   00139A                     i2u414_40:
  5930   00139A  A0F2               	btfss	242,0,c	;volatile
  5931   00139C  EFD2  F009         	goto	i2u415_41
  5932   0013A0  EFD4  F009         	goto	i2u415_40
  5933   0013A4                     i2u415_41:
  5934   0013A4  EF74  F00A         	goto	i2l684
  5935   0013A8                     i2u415_40:
  5936   0013A8                     
  5937                           ;MCAL_LAYER/Interrupt/mcal_interrupt_manager.c: 55:         if ((PORTBbits.RB4 == GPIO_H
      +                          IGH) && RB4_f == 1) {
  5938   0013A8  A881               	btfss	129,4,c	;volatile
  5939   0013AA  EFD9  F009         	goto	i2u416_41
  5940   0013AE  EFDB  F009         	goto	i2u416_40
  5941   0013B2                     i2u416_41:
  5942   0013B2  EFE8  F009         	goto	i2l4872
  5943   0013B6                     i2u416_40:
  5944   0013B6  0459               	decf	_RB4_f^0,w,c	;volatile
  5945   0013B8  A4D8               	btfss	status,2,c
  5946   0013BA  EFE1  F009         	goto	i2u417_41
  5947   0013BE  EFE3  F009         	goto	i2u417_40
  5948   0013C2                     i2u417_41:
  5949   0013C2  EFE8  F009         	goto	i2l4872
  5950   0013C6                     i2u417_40:
  5951   0013C6                     
  5952                           ;MCAL_LAYER/Interrupt/mcal_interrupt_manager.c: 56:             RB4_f = 0;
  5953   0013C6  0E00               	movlw	0
  5954   0013C8  6E59               	movwf	_RB4_f^0,c	;volatile
  5955   0013CA                     
  5956                           ;MCAL_LAYER/Interrupt/mcal_interrupt_manager.c: 57:             RB4_ISR(0);
  5957   0013CA  0E00               	movlw	0
  5958   0013CC  EC9C  F016         	call	_RB4_ISR
  5959   0013D0                     i2l4872:
  5960                           
  5961                           ;MCAL_LAYER/Interrupt/mcal_interrupt_manager.c: 59:         if ((PORTBbits.RB4 == GPIO_L
      +                          OW) && RB4_f == 0) {
  5962   0013D0  B881               	btfsc	129,4,c	;volatile
  5963   0013D2  EFED  F009         	goto	i2u418_41
  5964   0013D6  EFEF  F009         	goto	i2u418_40
  5965   0013DA                     i2u418_41:
  5966   0013DA  EFFC  F009         	goto	i2l4880
  5967   0013DE                     i2u418_40:
  5968   0013DE  5059               	movf	_RB4_f^0,w,c	;volatile
  5969   0013E0  A4D8               	btfss	status,2,c
  5970   0013E2  EFF5  F009         	goto	i2u419_41
  5971   0013E6  EFF7  F009         	goto	i2u419_40
  5972   0013EA                     i2u419_41:
  5973   0013EA  EFFC  F009         	goto	i2l4880
  5974   0013EE                     i2u419_40:
  5975   0013EE                     
  5976                           ;MCAL_LAYER/Interrupt/mcal_interrupt_manager.c: 60:             RB4_f = 1;
  5977   0013EE  0E01               	movlw	1
  5978   0013F0  6E59               	movwf	_RB4_f^0,c	;volatile
  5979   0013F2                     
  5980                           ;MCAL_LAYER/Interrupt/mcal_interrupt_manager.c: 61:             RB4_ISR(1);
  5981   0013F2  0E01               	movlw	1
  5982   0013F4  EC9C  F016         	call	_RB4_ISR
  5983   0013F8                     i2l4880:
  5984                           
  5985                           ;MCAL_LAYER/Interrupt/mcal_interrupt_manager.c: 64:         if ((PORTBbits.RB5 == GPIO_H
      +                          IGH) && RB5_f == 1) {
  5986   0013F8  AA81               	btfss	129,5,c	;volatile
  5987   0013FA  EF01  F00A         	goto	i2u420_41
  5988   0013FE  EF03  F00A         	goto	i2u420_40
  5989   001402                     i2u420_41:
  5990   001402  EF10  F00A         	goto	i2l4888
  5991   001406                     i2u420_40:
  5992   001406  0458               	decf	_RB5_f^0,w,c	;volatile
  5993   001408  A4D8               	btfss	status,2,c
  5994   00140A  EF09  F00A         	goto	i2u421_41
  5995   00140E  EF0B  F00A         	goto	i2u421_40
  5996   001412                     i2u421_41:
  5997   001412  EF10  F00A         	goto	i2l4888
  5998   001416                     i2u421_40:
  5999   001416                     
  6000                           ;MCAL_LAYER/Interrupt/mcal_interrupt_manager.c: 65:             RB5_f = 0;
  6001   001416  0E00               	movlw	0
  6002   001418  6E58               	movwf	_RB5_f^0,c	;volatile
  6003   00141A                     
  6004                           ;MCAL_LAYER/Interrupt/mcal_interrupt_manager.c: 66:             RB5_ISR(0);
  6005   00141A  0E00               	movlw	0
  6006   00141C  EC8F  F016         	call	_RB5_ISR
  6007   001420                     i2l4888:
  6008                           
  6009                           ;MCAL_LAYER/Interrupt/mcal_interrupt_manager.c: 68:         if ((PORTBbits.RB5 == GPIO_L
      +                          OW) && RB5_f == 0) {
  6010   001420  BA81               	btfsc	129,5,c	;volatile
  6011   001422  EF15  F00A         	goto	i2u422_41
  6012   001426  EF17  F00A         	goto	i2u422_40
  6013   00142A                     i2u422_41:
  6014   00142A  EF24  F00A         	goto	i2l4896
  6015   00142E                     i2u422_40:
  6016   00142E  5058               	movf	_RB5_f^0,w,c	;volatile
  6017   001430  A4D8               	btfss	status,2,c
  6018   001432  EF1D  F00A         	goto	i2u423_41
  6019   001436  EF1F  F00A         	goto	i2u423_40
  6020   00143A                     i2u423_41:
  6021   00143A  EF24  F00A         	goto	i2l4896
  6022   00143E                     i2u423_40:
  6023   00143E                     
  6024                           ;MCAL_LAYER/Interrupt/mcal_interrupt_manager.c: 69:             RB5_f = 1;
  6025   00143E  0E01               	movlw	1
  6026   001440  6E58               	movwf	_RB5_f^0,c	;volatile
  6027   001442                     
  6028                           ;MCAL_LAYER/Interrupt/mcal_interrupt_manager.c: 70:             RB5_ISR(1);
  6029   001442  0E01               	movlw	1
  6030   001444  EC8F  F016         	call	_RB5_ISR
  6031   001448                     i2l4896:
  6032                           
  6033                           ;MCAL_LAYER/Interrupt/mcal_interrupt_manager.c: 73:         if ((PORTBbits.RB6 == GPIO_H
      +                          IGH) && RB6_f == 1) {
  6034   001448  AC81               	btfss	129,6,c	;volatile
  6035   00144A  EF29  F00A         	goto	i2u424_41
  6036   00144E  EF2B  F00A         	goto	i2u424_40
  6037   001452                     i2u424_41:
  6038   001452  EF38  F00A         	goto	i2l4904
  6039   001456                     i2u424_40:
  6040   001456  0457               	decf	_RB6_f^0,w,c	;volatile
  6041   001458  A4D8               	btfss	status,2,c
  6042   00145A  EF31  F00A         	goto	i2u425_41
  6043   00145E  EF33  F00A         	goto	i2u425_40
  6044   001462                     i2u425_41:
  6045   001462  EF38  F00A         	goto	i2l4904
  6046   001466                     i2u425_40:
  6047   001466                     
  6048                           ;MCAL_LAYER/Interrupt/mcal_interrupt_manager.c: 74:             RB6_f = 0;
  6049   001466  0E00               	movlw	0
  6050   001468  6E57               	movwf	_RB6_f^0,c	;volatile
  6051   00146A                     
  6052                           ;MCAL_LAYER/Interrupt/mcal_interrupt_manager.c: 75:             RB6_ISR(0);
  6053   00146A  0E00               	movlw	0
  6054   00146C  EC82  F016         	call	_RB6_ISR
  6055   001470                     i2l4904:
  6056                           
  6057                           ;MCAL_LAYER/Interrupt/mcal_interrupt_manager.c: 77:         if ((PORTBbits.RB6 == GPIO_L
      +                          OW) && RB6_f == 0) {
  6058   001470  BC81               	btfsc	129,6,c	;volatile
  6059   001472  EF3D  F00A         	goto	i2u426_41
  6060   001476  EF3F  F00A         	goto	i2u426_40
  6061   00147A                     i2u426_41:
  6062   00147A  EF4C  F00A         	goto	i2l4912
  6063   00147E                     i2u426_40:
  6064   00147E  5057               	movf	_RB6_f^0,w,c	;volatile
  6065   001480  A4D8               	btfss	status,2,c
  6066   001482  EF45  F00A         	goto	i2u427_41
  6067   001486  EF47  F00A         	goto	i2u427_40
  6068   00148A                     i2u427_41:
  6069   00148A  EF4C  F00A         	goto	i2l4912
  6070   00148E                     i2u427_40:
  6071   00148E                     
  6072                           ;MCAL_LAYER/Interrupt/mcal_interrupt_manager.c: 78:             RB6_f = 1;
  6073   00148E  0E01               	movlw	1
  6074   001490  6E57               	movwf	_RB6_f^0,c	;volatile
  6075   001492                     
  6076                           ;MCAL_LAYER/Interrupt/mcal_interrupt_manager.c: 79:             RB6_ISR(1);
  6077   001492  0E01               	movlw	1
  6078   001494  EC82  F016         	call	_RB6_ISR
  6079   001498                     i2l4912:
  6080                           
  6081                           ;MCAL_LAYER/Interrupt/mcal_interrupt_manager.c: 82:         if ((PORTBbits.RB7 == GPIO_H
      +                          IGH) && RB7_f == 1) {
  6082   001498  AE81               	btfss	129,7,c	;volatile
  6083   00149A  EF51  F00A         	goto	i2u428_41
  6084   00149E  EF53  F00A         	goto	i2u428_40
  6085   0014A2                     i2u428_41:
  6086   0014A2  EF60  F00A         	goto	i2l4920
  6087   0014A6                     i2u428_40:
  6088   0014A6  0456               	decf	_RB7_f^0,w,c	;volatile
  6089   0014A8  A4D8               	btfss	status,2,c
  6090   0014AA  EF59  F00A         	goto	i2u429_41
  6091   0014AE  EF5B  F00A         	goto	i2u429_40
  6092   0014B2                     i2u429_41:
  6093   0014B2  EF60  F00A         	goto	i2l4920
  6094   0014B6                     i2u429_40:
  6095   0014B6                     
  6096                           ;MCAL_LAYER/Interrupt/mcal_interrupt_manager.c: 83:             RB7_f = 0;
  6097   0014B6  0E00               	movlw	0
  6098   0014B8  6E56               	movwf	_RB7_f^0,c	;volatile
  6099   0014BA                     
  6100                           ;MCAL_LAYER/Interrupt/mcal_interrupt_manager.c: 84:             RB7_ISR(0);
  6101   0014BA  0E00               	movlw	0
  6102   0014BC  EC75  F016         	call	_RB7_ISR
  6103   0014C0                     i2l4920:
  6104                           
  6105                           ;MCAL_LAYER/Interrupt/mcal_interrupt_manager.c: 86:         if ((PORTBbits.RB7 == GPIO_L
      +                          OW) && RB7_f == 0) {
  6106   0014C0  BE81               	btfsc	129,7,c	;volatile
  6107   0014C2  EF65  F00A         	goto	i2u430_41
  6108   0014C6  EF67  F00A         	goto	i2u430_40
  6109   0014CA                     i2u430_41:
  6110   0014CA  EF74  F00A         	goto	i2l684
  6111   0014CE                     i2u430_40:
  6112   0014CE  5056               	movf	_RB7_f^0,w,c	;volatile
  6113   0014D0  A4D8               	btfss	status,2,c
  6114   0014D2  EF6D  F00A         	goto	i2u431_41
  6115   0014D6  EF6F  F00A         	goto	i2u431_40
  6116   0014DA                     i2u431_41:
  6117   0014DA  EF74  F00A         	goto	i2l684
  6118   0014DE                     i2u431_40:
  6119   0014DE                     
  6120                           ;MCAL_LAYER/Interrupt/mcal_interrupt_manager.c: 87:             RB7_f = 1;
  6121   0014DE  0E01               	movlw	1
  6122   0014E0  6E56               	movwf	_RB7_f^0,c	;volatile
  6123   0014E2                     
  6124                           ;MCAL_LAYER/Interrupt/mcal_interrupt_manager.c: 88:             RB7_ISR(1);
  6125   0014E2  0E01               	movlw	1
  6126   0014E4  EC75  F016         	call	_RB7_ISR
  6127   0014E8                     i2l684:
  6128   0014E8  C01F  FFF4         	movff	??_Interrupt_Manager_High+5,prodh
  6129   0014EC  C01E  FFF3         	movff	??_Interrupt_Manager_High+4,prodl
  6130   0014F0  C01D  FFDA         	movff	??_Interrupt_Manager_High+3,fsr2h
  6131   0014F4  C01C  FFD9         	movff	??_Interrupt_Manager_High+2,fsr2l
  6132   0014F8  C01B  FFFB         	movff	??_Interrupt_Manager_High+1,pclatu
  6133   0014FC  C01A  FFFA         	movff	??_Interrupt_Manager_High,pclath
  6134   001500  9260               	bcf	int$flags,1,c	;clear compiler interrupt flag (level 2)
  6135   001502  0011               	retfie		f
  6136   001504                     __end_of_Interrupt_Manager_High:
  6137                           	callstack 0
  6138                           
  6139 ;; *************** function _RB7_ISR *****************
  6140 ;; Defined at:
  6141 ;;		line 514 in file "MCAL_LAYER/Interrupt/mcal_external_interrupt.c"
  6142 ;; Parameters:    Size  Location     Type
  6143 ;;  source          1    wreg     unsigned char 
  6144 ;; Auto vars:     Size  Location     Type
  6145 ;;  source          1    0[COMRAM] unsigned char 
  6146 ;; Return value:  Size  Location     Type
  6147 ;;                  1    wreg      void 
  6148 ;; Registers used:
  6149 ;;		wreg, status,2, status,0
  6150 ;; Tracked objects:
  6151 ;;		On entry : 0/0
  6152 ;;		On exit  : 0/0
  6153 ;;		Unchanged: 0/0
  6154 ;; Data sizes:     COMRAM   BANK0   BANK1   BANK2   BANK3   BANK4   BANK5   BANK6   BANK7   BANK8   BANK9  BANK10  BANK1
      +1  BANK12  BANK13  BANK14  BANK15
  6155 ;;      Params:         0       0       0       0       0       0       0       0       0       0       0       0       
      +0       0       0       0       0
  6156 ;;      Locals:         1       0       0       0       0       0       0       0       0       0       0       0       
      +0       0       0       0       0
  6157 ;;      Temps:          0       0       0       0       0       0       0       0       0       0       0       0       
      +0       0       0       0       0
  6158 ;;      Totals:         1       0       0       0       0       0       0       0       0       0       0       0       
      +0       0       0       0       0
  6159 ;;Total ram usage:        1 bytes
  6160 ;; Hardware stack levels used: 1
  6161 ;; This function calls:
  6162 ;;		Nothing
  6163 ;; This function is called by:
  6164 ;;		_Interrupt_Manager_High
  6165 ;; This function uses a non-reentrant model
  6166 ;;
  6167                           
  6168                           	psect	text39
  6169   002CEA                     __ptext39:
  6170                           	callstack 0
  6171   002CEA                     _RB7_ISR:
  6172                           	callstack 22
  6173                           
  6174                           ;incstack = 0
  6175                           ;RB7_ISR@source stored from wreg
  6176   002CEA  6E01               	movwf	RB7_ISR@source^0,c
  6177   002CEC                     
  6178                           ;MCAL_LAYER/Interrupt/mcal_external_interrupt.c: 515:     (INTCONbits.RBIF = 1);
  6179   002CEC  80F2               	bsf	242,0,c	;volatile
  6180   002CEE                     
  6181                           ;MCAL_LAYER/Interrupt/mcal_external_interrupt.c: 517:     if (0 == source) {
  6182   002CEE  5001               	movf	RB7_ISR@source^0,w,c
  6183   002CF0  A4D8               	btfss	status,2,c
  6184   002CF2  EF7D  F016         	goto	i2u109_41
  6185   002CF6  EF7F  F016         	goto	i2u109_40
  6186   002CFA                     i2u109_41:
  6187   002CFA  EF81  F016         	goto	i2l2484
  6188   002CFE                     i2u109_40:
  6189   002CFE  EF81  F016         	goto	i2l639
  6190   002D02                     i2l2484:
  6191   002D02                     i2l639:
  6192   002D02  0012               	return		;funcret
  6193   002D04                     __end_of_RB7_ISR:
  6194                           	callstack 0
  6195                           
  6196 ;; *************** function _RB6_ISR *****************
  6197 ;; Defined at:
  6198 ;;		line 500 in file "MCAL_LAYER/Interrupt/mcal_external_interrupt.c"
  6199 ;; Parameters:    Size  Location     Type
  6200 ;;  source          1    wreg     unsigned char 
  6201 ;; Auto vars:     Size  Location     Type
  6202 ;;  source          1    0[COMRAM] unsigned char 
  6203 ;; Return value:  Size  Location     Type
  6204 ;;                  1    wreg      void 
  6205 ;; Registers used:
  6206 ;;		wreg, status,2, status,0
  6207 ;; Tracked objects:
  6208 ;;		On entry : 0/0
  6209 ;;		On exit  : 0/0
  6210 ;;		Unchanged: 0/0
  6211 ;; Data sizes:     COMRAM   BANK0   BANK1   BANK2   BANK3   BANK4   BANK5   BANK6   BANK7   BANK8   BANK9  BANK10  BANK1
      +1  BANK12  BANK13  BANK14  BANK15
  6212 ;;      Params:         0       0       0       0       0       0       0       0       0       0       0       0       
      +0       0       0       0       0
  6213 ;;      Locals:         1       0       0       0       0       0       0       0       0       0       0       0       
      +0       0       0       0       0
  6214 ;;      Temps:          0       0       0       0       0       0       0       0       0       0       0       0       
      +0       0       0       0       0
  6215 ;;      Totals:         1       0       0       0       0       0       0       0       0       0       0       0       
      +0       0       0       0       0
  6216 ;;Total ram usage:        1 bytes
  6217 ;; Hardware stack levels used: 1
  6218 ;; This function calls:
  6219 ;;		Nothing
  6220 ;; This function is called by:
  6221 ;;		_Interrupt_Manager_High
  6222 ;; This function uses a non-reentrant model
  6223 ;;
  6224                           
  6225                           	psect	text40
  6226   002D04                     __ptext40:
  6227                           	callstack 0
  6228   002D04                     _RB6_ISR:
  6229                           	callstack 22
  6230                           
  6231                           ;incstack = 0
  6232                           ;RB6_ISR@source stored from wreg
  6233   002D04  6E01               	movwf	RB6_ISR@source^0,c
  6234   002D06                     
  6235                           ;MCAL_LAYER/Interrupt/mcal_external_interrupt.c: 501:     (INTCONbits.RBIF = 1);
  6236   002D06  80F2               	bsf	242,0,c	;volatile
  6237   002D08                     
  6238                           ;MCAL_LAYER/Interrupt/mcal_external_interrupt.c: 503:     if (0 == source) {
  6239   002D08  5001               	movf	RB6_ISR@source^0,w,c
  6240   002D0A  A4D8               	btfss	status,2,c
  6241   002D0C  EF8A  F016         	goto	i2u108_41
  6242   002D10  EF8C  F016         	goto	i2u108_40
  6243   002D14                     i2u108_41:
  6244   002D14  EF8E  F016         	goto	i2l2474
  6245   002D18                     i2u108_40:
  6246   002D18  EF8E  F016         	goto	i2l631
  6247   002D1C                     i2l2474:
  6248   002D1C                     i2l631:
  6249   002D1C  0012               	return		;funcret
  6250   002D1E                     __end_of_RB6_ISR:
  6251                           	callstack 0
  6252                           
  6253 ;; *************** function _RB5_ISR *****************
  6254 ;; Defined at:
  6255 ;;		line 486 in file "MCAL_LAYER/Interrupt/mcal_external_interrupt.c"
  6256 ;; Parameters:    Size  Location     Type
  6257 ;;  source          1    wreg     unsigned char 
  6258 ;; Auto vars:     Size  Location     Type
  6259 ;;  source          1    0[COMRAM] unsigned char 
  6260 ;; Return value:  Size  Location     Type
  6261 ;;                  1    wreg      void 
  6262 ;; Registers used:
  6263 ;;		wreg, status,2, status,0
  6264 ;; Tracked objects:
  6265 ;;		On entry : 0/0
  6266 ;;		On exit  : 0/0
  6267 ;;		Unchanged: 0/0
  6268 ;; Data sizes:     COMRAM   BANK0   BANK1   BANK2   BANK3   BANK4   BANK5   BANK6   BANK7   BANK8   BANK9  BANK10  BANK1
      +1  BANK12  BANK13  BANK14  BANK15
  6269 ;;      Params:         0       0       0       0       0       0       0       0       0       0       0       0       
      +0       0       0       0       0
  6270 ;;      Locals:         1       0       0       0       0       0       0       0       0       0       0       0       
      +0       0       0       0       0
  6271 ;;      Temps:          0       0       0       0       0       0       0       0       0       0       0       0       
      +0       0       0       0       0
  6272 ;;      Totals:         1       0       0       0       0       0       0       0       0       0       0       0       
      +0       0       0       0       0
  6273 ;;Total ram usage:        1 bytes
  6274 ;; Hardware stack levels used: 1
  6275 ;; This function calls:
  6276 ;;		Nothing
  6277 ;; This function is called by:
  6278 ;;		_Interrupt_Manager_High
  6279 ;; This function uses a non-reentrant model
  6280 ;;
  6281                           
  6282                           	psect	text41
  6283   002D1E                     __ptext41:
  6284                           	callstack 0
  6285   002D1E                     _RB5_ISR:
  6286                           	callstack 22
  6287                           
  6288                           ;incstack = 0
  6289                           ;RB5_ISR@source stored from wreg
  6290   002D1E  6E01               	movwf	RB5_ISR@source^0,c
  6291   002D20                     
  6292                           ;MCAL_LAYER/Interrupt/mcal_external_interrupt.c: 487:     (INTCONbits.RBIF = 1);
  6293   002D20  80F2               	bsf	242,0,c	;volatile
  6294   002D22                     
  6295                           ;MCAL_LAYER/Interrupt/mcal_external_interrupt.c: 489:     if (0 == source) {
  6296   002D22  5001               	movf	RB5_ISR@source^0,w,c
  6297   002D24  A4D8               	btfss	status,2,c
  6298   002D26  EF97  F016         	goto	i2u107_41
  6299   002D2A  EF99  F016         	goto	i2u107_40
  6300   002D2E                     i2u107_41:
  6301   002D2E  EF9B  F016         	goto	i2l2464
  6302   002D32                     i2u107_40:
  6303   002D32  EF9B  F016         	goto	i2l623
  6304   002D36                     i2l2464:
  6305   002D36                     i2l623:
  6306   002D36  0012               	return		;funcret
  6307   002D38                     __end_of_RB5_ISR:
  6308                           	callstack 0
  6309                           
  6310 ;; *************** function _RB4_ISR *****************
  6311 ;; Defined at:
  6312 ;;		line 472 in file "MCAL_LAYER/Interrupt/mcal_external_interrupt.c"
  6313 ;; Parameters:    Size  Location     Type
  6314 ;;  source          1    wreg     unsigned char 
  6315 ;; Auto vars:     Size  Location     Type
  6316 ;;  source          1    0[COMRAM] unsigned char 
  6317 ;; Return value:  Size  Location     Type
  6318 ;;                  1    wreg      void 
  6319 ;; Registers used:
  6320 ;;		wreg, status,2, status,0
  6321 ;; Tracked objects:
  6322 ;;		On entry : 0/0
  6323 ;;		On exit  : 0/0
  6324 ;;		Unchanged: 0/0
  6325 ;; Data sizes:     COMRAM   BANK0   BANK1   BANK2   BANK3   BANK4   BANK5   BANK6   BANK7   BANK8   BANK9  BANK10  BANK1
      +1  BANK12  BANK13  BANK14  BANK15
  6326 ;;      Params:         0       0       0       0       0       0       0       0       0       0       0       0       
      +0       0       0       0       0
  6327 ;;      Locals:         1       0       0       0       0       0       0       0       0       0       0       0       
      +0       0       0       0       0
  6328 ;;      Temps:          0       0       0       0       0       0       0       0       0       0       0       0       
      +0       0       0       0       0
  6329 ;;      Totals:         1       0       0       0       0       0       0       0       0       0       0       0       
      +0       0       0       0       0
  6330 ;;Total ram usage:        1 bytes
  6331 ;; Hardware stack levels used: 1
  6332 ;; This function calls:
  6333 ;;		Nothing
  6334 ;; This function is called by:
  6335 ;;		_Interrupt_Manager_High
  6336 ;; This function uses a non-reentrant model
  6337 ;;
  6338                           
  6339                           	psect	text42
  6340   002D38                     __ptext42:
  6341                           	callstack 0
  6342   002D38                     _RB4_ISR:
  6343                           	callstack 22
  6344                           
  6345                           ;incstack = 0
  6346                           ;RB4_ISR@source stored from wreg
  6347   002D38  6E01               	movwf	RB4_ISR@source^0,c
  6348   002D3A                     
  6349                           ;MCAL_LAYER/Interrupt/mcal_external_interrupt.c: 473:     (INTCONbits.RBIF = 1);
  6350   002D3A  80F2               	bsf	242,0,c	;volatile
  6351   002D3C                     
  6352                           ;MCAL_LAYER/Interrupt/mcal_external_interrupt.c: 475:     if (0 == source) {
  6353   002D3C  5001               	movf	RB4_ISR@source^0,w,c
  6354   002D3E  A4D8               	btfss	status,2,c
  6355   002D40  EFA4  F016         	goto	i2u106_41
  6356   002D44  EFA6  F016         	goto	i2u106_40
  6357   002D48                     i2u106_41:
  6358   002D48  EFA8  F016         	goto	i2l2454
  6359   002D4C                     i2u106_40:
  6360   002D4C  EFA8  F016         	goto	i2l615
  6361   002D50                     i2l2454:
  6362   002D50                     i2l615:
  6363   002D50  0012               	return		;funcret
  6364   002D52                     __end_of_RB4_ISR:
  6365                           	callstack 0
  6366                           
  6367 ;; *************** function _INT2_ISR *****************
  6368 ;; Defined at:
  6369 ;;		line 466 in file "MCAL_LAYER/Interrupt/mcal_external_interrupt.c"
  6370 ;; Parameters:    Size  Location     Type
  6371 ;;		None
  6372 ;; Auto vars:     Size  Location     Type
  6373 ;;		None
  6374 ;; Return value:  Size  Location     Type
  6375 ;;                  1    wreg      void 
  6376 ;; Registers used:
  6377 ;;		wreg, fsr2l, fsr2h, status,2, status,0, pcl, pclath, pclatu, tosl, prodl, prodh, cstack
  6378 ;; Tracked objects:
  6379 ;;		On entry : 0/0
  6380 ;;		On exit  : 0/0
  6381 ;;		Unchanged: 0/0
  6382 ;; Data sizes:     COMRAM   BANK0   BANK1   BANK2   BANK3   BANK4   BANK5   BANK6   BANK7   BANK8   BANK9  BANK10  BANK1
      +1  BANK12  BANK13  BANK14  BANK15
  6383 ;;      Params:         0       0       0       0       0       0       0       0       0       0       0       0       
      +0       0       0       0       0
  6384 ;;      Locals:         0       0       0       0       0       0       0       0       0       0       0       0       
      +0       0       0       0       0
  6385 ;;      Temps:          0       0       0       0       0       0       0       0       0       0       0       0       
      +0       0       0       0       0
  6386 ;;      Totals:         0       0       0       0       0       0       0       0       0       0       0       0       
      +0       0       0       0       0
  6387 ;;Total ram usage:        0 bytes
  6388 ;; Hardware stack levels used: 1
  6389 ;; Hardware stack levels required when called: 6
  6390 ;; This function calls:
  6391 ;;		NULL
  6392 ;;		_Player_one_move
  6393 ;;		_Player_two_move
  6394 ;; This function is called by:
  6395 ;;		_Interrupt_Manager_High
  6396 ;; This function uses a non-reentrant model
  6397 ;;
  6398                           
  6399                           	psect	text43
  6400   002B9E                     __ptext43:
  6401                           	callstack 0
  6402   002B9E                     _INT2_ISR:
  6403                           	callstack 16
  6404   002B9E                     
  6405                           ;MCAL_LAYER/Interrupt/mcal_external_interrupt.c: 467:     (INTCON3bits.INT2IF = 0);
  6406   002B9E  92F0               	bcf	240,1,c	;volatile
  6407   002BA0                     
  6408                           ;MCAL_LAYER/Interrupt/mcal_external_interrupt.c: 468:     if (INT2_Interrupt_Handler)
  6409   002BA0  5042               	movf	_INT2_Interrupt_Handler^0,w,c
  6410   002BA2  1043               	iorwf	(_INT2_Interrupt_Handler+1)^0,w,c
  6411   002BA4  B4D8               	btfsc	status,2,c
  6412   002BA6  EFD7  F015         	goto	i2u323_41
  6413   002BAA  EFD9  F015         	goto	i2u323_40
  6414   002BAE                     i2u323_41:
  6415   002BAE  EFE5  F015         	goto	i2l607
  6416   002BB2                     i2u323_40:
  6417   002BB2                     
  6418                           ;MCAL_LAYER/Interrupt/mcal_external_interrupt.c: 469:         INT2_Interrupt_Handler();
  6419   002BB2  D802               	call	i2u324_48
  6420   002BB4  EFE5  F015         	goto	i2u324_49
  6421   002BB8                     i2u324_48:
  6422   002BB8  0005               	push	
  6423   002BBA  6EFA               	movwf	pclath,c
  6424   002BBC  5042               	movf	_INT2_Interrupt_Handler^0,w,c
  6425   002BBE  6EFD               	movwf	tosl,c
  6426   002BC0  5043               	movf	(_INT2_Interrupt_Handler+1)^0,w,c
  6427   002BC2  6EFE               	movwf	tosh,c
  6428   002BC4  6AFF               	clrf	tosu,c
  6429   002BC6  50FA               	movf	pclath,w,c
  6430   002BC8  0012               	return		;indir
  6431   002BCA                     i2u324_49:
  6432   002BCA                     i2l607:
  6433   002BCA  0012               	return		;funcret
  6434   002BCC                     __end_of_INT2_ISR:
  6435                           	callstack 0
  6436                           
  6437 ;; *************** function _INT1_ISR *****************
  6438 ;; Defined at:
  6439 ;;		line 460 in file "MCAL_LAYER/Interrupt/mcal_external_interrupt.c"
  6440 ;; Parameters:    Size  Location     Type
  6441 ;;		None
  6442 ;; Auto vars:     Size  Location     Type
  6443 ;;		None
  6444 ;; Return value:  Size  Location     Type
  6445 ;;                  1    wreg      void 
  6446 ;; Registers used:
  6447 ;;		wreg, fsr2l, fsr2h, status,2, status,0, pcl, pclath, pclatu, tosl, prodl, prodh, cstack
  6448 ;; Tracked objects:
  6449 ;;		On entry : 0/0
  6450 ;;		On exit  : 0/0
  6451 ;;		Unchanged: 0/0
  6452 ;; Data sizes:     COMRAM   BANK0   BANK1   BANK2   BANK3   BANK4   BANK5   BANK6   BANK7   BANK8   BANK9  BANK10  BANK1
      +1  BANK12  BANK13  BANK14  BANK15
  6453 ;;      Params:         0       0       0       0       0       0       0       0       0       0       0       0       
      +0       0       0       0       0
  6454 ;;      Locals:         0       0       0       0       0       0       0       0       0       0       0       0       
      +0       0       0       0       0
  6455 ;;      Temps:          0       0       0       0       0       0       0       0       0       0       0       0       
      +0       0       0       0       0
  6456 ;;      Totals:         0       0       0       0       0       0       0       0       0       0       0       0       
      +0       0       0       0       0
  6457 ;;Total ram usage:        0 bytes
  6458 ;; Hardware stack levels used: 1
  6459 ;; Hardware stack levels required when called: 6
  6460 ;; This function calls:
  6461 ;;		NULL
  6462 ;;		_Player_one_move
  6463 ;;		_Player_two_move
  6464 ;; This function is called by:
  6465 ;;		_Interrupt_Manager_High
  6466 ;; This function uses a non-reentrant model
  6467 ;;
  6468                           
  6469                           	psect	text44
  6470   002BCC                     __ptext44:
  6471                           	callstack 0
  6472   002BCC                     _INT1_ISR:
  6473                           	callstack 16
  6474   002BCC                     
  6475                           ;MCAL_LAYER/Interrupt/mcal_external_interrupt.c: 461:     (INTCON3bits.INT1IF = 0);
  6476   002BCC  90F0               	bcf	240,0,c	;volatile
  6477   002BCE                     
  6478                           ;MCAL_LAYER/Interrupt/mcal_external_interrupt.c: 462:     if (INT1_Interrupt_Handler)
  6479   002BCE  5044               	movf	_INT1_Interrupt_Handler^0,w,c
  6480   002BD0  1045               	iorwf	(_INT1_Interrupt_Handler+1)^0,w,c
  6481   002BD2  B4D8               	btfsc	status,2,c
  6482   002BD4  EFEE  F015         	goto	i2u321_41
  6483   002BD8  EFF0  F015         	goto	i2u321_40
  6484   002BDC                     i2u321_41:
  6485   002BDC  EFFC  F015         	goto	i2l603
  6486   002BE0                     i2u321_40:
  6487   002BE0                     
  6488                           ;MCAL_LAYER/Interrupt/mcal_external_interrupt.c: 463:         INT1_Interrupt_Handler();
  6489   002BE0  D802               	call	i2u322_48
  6490   002BE2  EFFC  F015         	goto	i2u322_49
  6491   002BE6                     i2u322_48:
  6492   002BE6  0005               	push	
  6493   002BE8  6EFA               	movwf	pclath,c
  6494   002BEA  5044               	movf	_INT1_Interrupt_Handler^0,w,c
  6495   002BEC  6EFD               	movwf	tosl,c
  6496   002BEE  5045               	movf	(_INT1_Interrupt_Handler+1)^0,w,c
  6497   002BF0  6EFE               	movwf	tosh,c
  6498   002BF2  6AFF               	clrf	tosu,c
  6499   002BF4  50FA               	movf	pclath,w,c
  6500   002BF6  0012               	return		;indir
  6501   002BF8                     i2u322_49:
  6502   002BF8                     i2l603:
  6503   002BF8  0012               	return		;funcret
  6504   002BFA                     __end_of_INT1_ISR:
  6505                           	callstack 0
  6506                           
  6507 ;; *************** function _INT0_ISR *****************
  6508 ;; Defined at:
  6509 ;;		line 454 in file "MCAL_LAYER/Interrupt/mcal_external_interrupt.c"
  6510 ;; Parameters:    Size  Location     Type
  6511 ;;		None
  6512 ;; Auto vars:     Size  Location     Type
  6513 ;;		None
  6514 ;; Return value:  Size  Location     Type
  6515 ;;                  1    wreg      void 
  6516 ;; Registers used:
  6517 ;;		wreg, fsr2l, fsr2h, status,2, status,0, pcl, pclath, pclatu, tosl, prodl, prodh, cstack
  6518 ;; Tracked objects:
  6519 ;;		On entry : 0/0
  6520 ;;		On exit  : 0/0
  6521 ;;		Unchanged: 0/0
  6522 ;; Data sizes:     COMRAM   BANK0   BANK1   BANK2   BANK3   BANK4   BANK5   BANK6   BANK7   BANK8   BANK9  BANK10  BANK1
      +1  BANK12  BANK13  BANK14  BANK15
  6523 ;;      Params:         0       0       0       0       0       0       0       0       0       0       0       0       
      +0       0       0       0       0
  6524 ;;      Locals:         0       0       0       0       0       0       0       0       0       0       0       0       
      +0       0       0       0       0
  6525 ;;      Temps:          0       0       0       0       0       0       0       0       0       0       0       0       
      +0       0       0       0       0
  6526 ;;      Totals:         0       0       0       0       0       0       0       0       0       0       0       0       
      +0       0       0       0       0
  6527 ;;Total ram usage:        0 bytes
  6528 ;; Hardware stack levels used: 1
  6529 ;; Hardware stack levels required when called: 6
  6530 ;; This function calls:
  6531 ;;		NULL
  6532 ;;		_Player_one_move
  6533 ;;		_Player_two_move
  6534 ;; This function is called by:
  6535 ;;		_Interrupt_Manager_High
  6536 ;; This function uses a non-reentrant model
  6537 ;;
  6538                           
  6539                           	psect	text45
  6540   002BFA                     __ptext45:
  6541                           	callstack 0
  6542   002BFA                     _INT0_ISR:
  6543                           	callstack 16
  6544   002BFA                     
  6545                           ;MCAL_LAYER/Interrupt/mcal_external_interrupt.c: 455:     (INTCONbits.INT0IF = 0);
  6546   002BFA  92F2               	bcf	242,1,c	;volatile
  6547   002BFC                     
  6548                           ;MCAL_LAYER/Interrupt/mcal_external_interrupt.c: 456:     if (INT0_Interrupt_Handler)
  6549   002BFC  5046               	movf	_INT0_Interrupt_Handler^0,w,c
  6550   002BFE  1047               	iorwf	(_INT0_Interrupt_Handler+1)^0,w,c
  6551   002C00  B4D8               	btfsc	status,2,c
  6552   002C02  EF05  F016         	goto	i2u319_41
  6553   002C06  EF07  F016         	goto	i2u319_40
  6554   002C0A                     i2u319_41:
  6555   002C0A  EF13  F016         	goto	i2l599
  6556   002C0E                     i2u319_40:
  6557   002C0E                     
  6558                           ;MCAL_LAYER/Interrupt/mcal_external_interrupt.c: 457:         INT0_Interrupt_Handler();
  6559   002C0E  D802               	call	i2u320_48
  6560   002C10  EF13  F016         	goto	i2u320_49
  6561   002C14                     i2u320_48:
  6562   002C14  0005               	push	
  6563   002C16  6EFA               	movwf	pclath,c
  6564   002C18  5046               	movf	_INT0_Interrupt_Handler^0,w,c
  6565   002C1A  6EFD               	movwf	tosl,c
  6566   002C1C  5047               	movf	(_INT0_Interrupt_Handler+1)^0,w,c
  6567   002C1E  6EFE               	movwf	tosh,c
  6568   002C20  6AFF               	clrf	tosu,c
  6569   002C22  50FA               	movf	pclath,w,c
  6570   002C24  0012               	return		;indir
  6571   002C26                     i2u320_49:
  6572   002C26                     i2l599:
  6573   002C26  0012               	return		;funcret
  6574   002C28                     __end_of_INT0_ISR:
  6575                           	callstack 0
  6576                           
  6577 ;; *************** function _Player_one_move *****************
  6578 ;; Defined at:
  6579 ;;		line 88 in file "app.c"
  6580 ;; Parameters:    Size  Location     Type
  6581 ;;		None
  6582 ;; Auto vars:     Size  Location     Type
  6583 ;;		None
  6584 ;; Return value:  Size  Location     Type
  6585 ;;                  1    wreg      void 
  6586 ;; Registers used:
  6587 ;;		wreg, fsr2l, fsr2h, status,2, status,0, prodl, prodh, cstack
  6588 ;; Tracked objects:
  6589 ;;		On entry : 0/0
  6590 ;;		On exit  : 0/0
  6591 ;;		Unchanged: 0/0
  6592 ;; Data sizes:     COMRAM   BANK0   BANK1   BANK2   BANK3   BANK4   BANK5   BANK6   BANK7   BANK8   BANK9  BANK10  BANK1
      +1  BANK12  BANK13  BANK14  BANK15
  6593 ;;      Params:         0       0       0       0       0       0       0       0       0       0       0       0       
      +0       0       0       0       0
  6594 ;;      Locals:         0       0       0       0       0       0       0       0       0       0       0       0       
      +0       0       0       0       0
  6595 ;;      Temps:          0       0       0       0       0       0       0       0       0       0       0       0       
      +0       0       0       0       0
  6596 ;;      Totals:         0       0       0       0       0       0       0       0       0       0       0       0       
      +0       0       0       0       0
  6597 ;;Total ram usage:        0 bytes
  6598 ;; Hardware stack levels used: 1
  6599 ;; Hardware stack levels required when called: 5
  6600 ;; This function calls:
  6601 ;;		i2_Seven_Segm_Display_Number
  6602 ;;		i2_lcd_4bit_send_char_data_pos
  6603 ;; This function is called by:
  6604 ;;		_INT0_ISR
  6605 ;;		_INT1_ISR
  6606 ;;		_INT2_ISR
  6607 ;; This function uses a non-reentrant model
  6608 ;;
  6609                           
  6610                           	psect	text46
  6611   00224C                     __ptext46:
  6612                           	callstack 0
  6613   00224C                     _Player_one_move:
  6614                           	callstack 16
  6615   00224C                     
  6616                           ;app.c: 89:     ret = lcd_4bit_send_char_data_pos(&lcd, player_one_row, 1, ' ');
  6617   00224C  0E5A               	movlw	low _lcd
  6618   00224E  6E15               	movwf	i2lcd_4bit_send_char_data_pos@Lcd^0,c
  6619   002250  C0A1  F016         	movff	_player_one_row,i2lcd_4bit_send_char_data_pos@row
  6620   002254  0E01               	movlw	1
  6621   002256  6E17               	movwf	i2lcd_4bit_send_char_data_pos@column^0,c
  6622   002258  0E20               	movlw	32
  6623   00225A  6E18               	movwf	i2lcd_4bit_send_char_data_pos@data^0,c
  6624   00225C  EC7A  F015         	call	i2_lcd_4bit_send_char_data_pos	;wreg free
  6625   002260  0100               	movlb	0	; () banked
  6626   002262  6FA2               	movwf	_ret& (0+255),b
  6627   002264                     
  6628                           ; BSR set to: 0
  6629                           ;app.c: 91:     if (player_one_row > 0 && player_one_row < 4) {
  6630   002264  51A1               	movf	_player_one_row& (0+255),w,b
  6631   002266  B4D8               	btfsc	status,2,c
  6632   002268  EF38  F011         	goto	i2u306_41
  6633   00226C  EF3A  F011         	goto	i2u306_40
  6634   002270                     i2u306_41:
  6635   002270  EF45  F011         	goto	i2l4092
  6636   002274                     i2u306_40:
  6637   002274                     
  6638                           ; BSR set to: 0
  6639   002274  0E04               	movlw	4
  6640   002276  61A1               	cpfslt	_player_one_row& (0+255),b
  6641   002278  EF40  F011         	goto	i2u307_41
  6642   00227C  EF42  F011         	goto	i2u307_40
  6643   002280                     i2u307_41:
  6644   002280  EF45  F011         	goto	i2l4092
  6645   002284                     i2u307_40:
  6646   002284                     
  6647                           ; BSR set to: 0
  6648                           ;app.c: 92:         player_one_row++;
  6649   002284  2BA1               	incf	_player_one_row& (0+255),f,b
  6650                           
  6651                           ;app.c: 93:     } else if (player_one_row == 4) {
  6652   002286  EF50  F011         	goto	i2l4096
  6653   00228A                     i2l4092:
  6654                           
  6655                           ; BSR set to: 0
  6656   00228A  0E04               	movlw	4
  6657   00228C  19A1               	xorwf	_player_one_row& (0+255),w,b
  6658   00228E  A4D8               	btfss	status,2,c
  6659   002290  EF4C  F011         	goto	i2u308_41
  6660   002294  EF4E  F011         	goto	i2u308_40
  6661   002298                     i2u308_41:
  6662   002298  EF50  F011         	goto	i2l4096
  6663   00229C                     i2u308_40:
  6664   00229C                     
  6665                           ; BSR set to: 0
  6666                           ;app.c: 94:         player_one_row = 1;
  6667   00229C  0E01               	movlw	1
  6668   00229E  6FA1               	movwf	_player_one_row& (0+255),b
  6669   0022A0                     i2l4096:
  6670                           
  6671                           ; BSR set to: 0
  6672                           ;app.c: 97:     ret = Seven_Segm_Display_Number(&seg1, player_one_row);
  6673   0022A0  0EB4               	movlw	low _seg1
  6674   0022A2  6E09               	movwf	i2Seven_Segm_Display_Number@_Seven_Seg^0,c
  6675   0022A4  C0A1  F00A         	movff	_player_one_row,i2Seven_Segm_Display_Number@number
  6676   0022A8  EC1E  F012         	call	i2_Seven_Segm_Display_Number	;wreg free
  6677   0022AC  0100               	movlb	0	; () banked
  6678   0022AE  6FA2               	movwf	_ret& (0+255),b
  6679   0022B0                     
  6680                           ; BSR set to: 0
  6681                           ;app.c: 98:     ret = lcd_4bit_send_char_data_pos(&lcd, player_one_row, 1, '|');
  6682   0022B0  0E5A               	movlw	low _lcd
  6683   0022B2  6E15               	movwf	i2lcd_4bit_send_char_data_pos@Lcd^0,c
  6684   0022B4  C0A1  F016         	movff	_player_one_row,i2lcd_4bit_send_char_data_pos@row
  6685   0022B8  0E01               	movlw	1
  6686   0022BA  6E17               	movwf	i2lcd_4bit_send_char_data_pos@column^0,c
  6687   0022BC  0E7C               	movlw	124
  6688   0022BE  6E18               	movwf	i2lcd_4bit_send_char_data_pos@data^0,c
  6689   0022C0  EC7A  F015         	call	i2_lcd_4bit_send_char_data_pos	;wreg free
  6690   0022C4  0100               	movlb	0	; () banked
  6691   0022C6  6FA2               	movwf	_ret& (0+255),b
  6692   0022C8                     
  6693                           ; BSR set to: 0
  6694   0022C8  0012               	return		;funcret
  6695   0022CA                     __end_of_Player_one_move:
  6696                           	callstack 0
  6697                           
  6698 ;; *************** function _Player_two_move *****************
  6699 ;; Defined at:
  6700 ;;		line 106 in file "app.c"
  6701 ;; Parameters:    Size  Location     Type
  6702 ;;		None
  6703 ;; Auto vars:     Size  Location     Type
  6704 ;;		None
  6705 ;; Return value:  Size  Location     Type
  6706 ;;                  1    wreg      void 
  6707 ;; Registers used:
  6708 ;;		wreg, fsr2l, fsr2h, status,2, status,0, prodl, prodh, cstack
  6709 ;; Tracked objects:
  6710 ;;		On entry : 0/0
  6711 ;;		On exit  : 0/0
  6712 ;;		Unchanged: 0/0
  6713 ;; Data sizes:     COMRAM   BANK0   BANK1   BANK2   BANK3   BANK4   BANK5   BANK6   BANK7   BANK8   BANK9  BANK10  BANK1
      +1  BANK12  BANK13  BANK14  BANK15
  6714 ;;      Params:         0       0       0       0       0       0       0       0       0       0       0       0       
      +0       0       0       0       0
  6715 ;;      Locals:         0       0       0       0       0       0       0       0       0       0       0       0       
      +0       0       0       0       0
  6716 ;;      Temps:          0       0       0       0       0       0       0       0       0       0       0       0       
      +0       0       0       0       0
  6717 ;;      Totals:         0       0       0       0       0       0       0       0       0       0       0       0       
      +0       0       0       0       0
  6718 ;;Total ram usage:        0 bytes
  6719 ;; Hardware stack levels used: 1
  6720 ;; Hardware stack levels required when called: 5
  6721 ;; This function calls:
  6722 ;;		i2_Seven_Segm_Display_Number
  6723 ;;		i2_lcd_4bit_send_char_data_pos
  6724 ;; This function is called by:
  6725 ;;		_INT0_ISR
  6726 ;;		_INT1_ISR
  6727 ;;		_INT2_ISR
  6728 ;; This function uses a non-reentrant model
  6729 ;;
  6730                           
  6731                           	psect	text47
  6732   0022CA                     __ptext47:
  6733                           	callstack 0
  6734   0022CA                     _Player_two_move:
  6735                           	callstack 16
  6736   0022CA                     
  6737                           ;app.c: 107:     ret = lcd_4bit_send_char_data_pos(&lcd, player_two_row, 20, ' ');
  6738   0022CA  0E5A               	movlw	low _lcd
  6739   0022CC  6E15               	movwf	i2lcd_4bit_send_char_data_pos@Lcd^0,c
  6740   0022CE  C0A0  F016         	movff	_player_two_row,i2lcd_4bit_send_char_data_pos@row
  6741   0022D2  0E14               	movlw	20
  6742   0022D4  6E17               	movwf	i2lcd_4bit_send_char_data_pos@column^0,c
  6743   0022D6  0E20               	movlw	32
  6744   0022D8  6E18               	movwf	i2lcd_4bit_send_char_data_pos@data^0,c
  6745   0022DA  EC7A  F015         	call	i2_lcd_4bit_send_char_data_pos	;wreg free
  6746   0022DE  0100               	movlb	0	; () banked
  6747   0022E0  6FA2               	movwf	_ret& (0+255),b
  6748   0022E2                     
  6749                           ; BSR set to: 0
  6750                           ;app.c: 109:     if (player_two_row > 0 && player_two_row < 4) {
  6751   0022E2  51A0               	movf	_player_two_row& (0+255),w,b
  6752   0022E4  B4D8               	btfsc	status,2,c
  6753   0022E6  EF77  F011         	goto	i2u309_41
  6754   0022EA  EF79  F011         	goto	i2u309_40
  6755   0022EE                     i2u309_41:
  6756   0022EE  EF84  F011         	goto	i2l4108
  6757   0022F2                     i2u309_40:
  6758   0022F2                     
  6759                           ; BSR set to: 0
  6760   0022F2  0E04               	movlw	4
  6761   0022F4  61A0               	cpfslt	_player_two_row& (0+255),b
  6762   0022F6  EF7F  F011         	goto	i2u310_41
  6763   0022FA  EF81  F011         	goto	i2u310_40
  6764   0022FE                     i2u310_41:
  6765   0022FE  EF84  F011         	goto	i2l4108
  6766   002302                     i2u310_40:
  6767   002302                     
  6768                           ; BSR set to: 0
  6769                           ;app.c: 110:         player_two_row++;
  6770   002302  2BA0               	incf	_player_two_row& (0+255),f,b
  6771                           
  6772                           ;app.c: 111:     } else if (player_two_row == 4) {
  6773   002304  EF8F  F011         	goto	i2l4112
  6774   002308                     i2l4108:
  6775                           
  6776                           ; BSR set to: 0
  6777   002308  0E04               	movlw	4
  6778   00230A  19A0               	xorwf	_player_two_row& (0+255),w,b
  6779   00230C  A4D8               	btfss	status,2,c
  6780   00230E  EF8B  F011         	goto	i2u311_41
  6781   002312  EF8D  F011         	goto	i2u311_40
  6782   002316                     i2u311_41:
  6783   002316  EF8F  F011         	goto	i2l4112
  6784   00231A                     i2u311_40:
  6785   00231A                     
  6786                           ; BSR set to: 0
  6787                           ;app.c: 112:         player_two_row = 1;
  6788   00231A  0E01               	movlw	1
  6789   00231C  6FA0               	movwf	_player_two_row& (0+255),b
  6790   00231E                     i2l4112:
  6791                           
  6792                           ; BSR set to: 0
  6793                           ;app.c: 115:     ret = Seven_Segm_Display_Number(&seg2, player_two_row);
  6794   00231E  0EAF               	movlw	low _seg2
  6795   002320  6E09               	movwf	i2Seven_Segm_Display_Number@_Seven_Seg^0,c
  6796   002322  C0A0  F00A         	movff	_player_two_row,i2Seven_Segm_Display_Number@number
  6797   002326  EC1E  F012         	call	i2_Seven_Segm_Display_Number	;wreg free
  6798   00232A  0100               	movlb	0	; () banked
  6799   00232C  6FA2               	movwf	_ret& (0+255),b
  6800   00232E                     
  6801                           ; BSR set to: 0
  6802                           ;app.c: 116:     ret = lcd_4bit_send_char_data_pos(&lcd, player_two_row, 20, '|');
  6803   00232E  0E5A               	movlw	low _lcd
  6804   002330  6E15               	movwf	i2lcd_4bit_send_char_data_pos@Lcd^0,c
  6805   002332  C0A0  F016         	movff	_player_two_row,i2lcd_4bit_send_char_data_pos@row
  6806   002336  0E14               	movlw	20
  6807   002338  6E17               	movwf	i2lcd_4bit_send_char_data_pos@column^0,c
  6808   00233A  0E7C               	movlw	124
  6809   00233C  6E18               	movwf	i2lcd_4bit_send_char_data_pos@data^0,c
  6810   00233E  EC7A  F015         	call	i2_lcd_4bit_send_char_data_pos	;wreg free
  6811   002342  0100               	movlb	0	; () banked
  6812   002344  6FA2               	movwf	_ret& (0+255),b
  6813   002346                     
  6814                           ; BSR set to: 0
  6815   002346  0012               	return		;funcret
  6816   002348                     __end_of_Player_two_move:
  6817                           	callstack 0
  6818                           
  6819 ;; *************** function i2_lcd_4bit_send_char_data_pos *****************
  6820 ;; Defined at:
  6821 ;;		line 131 in file "ECU_LAYER/Chr_Lcd/ecu_chr_lcd.c"
  6822 ;; Parameters:    Size  Location     Type
  6823 ;;  Lcd             1   20[COMRAM] PTR const struct .
  6824 ;;		 -> lcd(6), 
  6825 ;;  row             1   21[COMRAM] unsigned char 
  6826 ;;  column          1   22[COMRAM] unsigned char 
  6827 ;;  data            1   23[COMRAM] unsigned char 
  6828 ;; Auto vars:     Size  Location     Type
  6829 ;;  ret             1   24[COMRAM] unsigned char 
  6830 ;; Return value:  Size  Location     Type
  6831 ;;                  1    wreg      unsigned char 
  6832 ;; Registers used:
  6833 ;;		wreg, fsr2l, fsr2h, status,2, status,0, prodl, prodh, cstack
  6834 ;; Tracked objects:
  6835 ;;		On entry : 0/0
  6836 ;;		On exit  : 0/0
  6837 ;;		Unchanged: 0/0
  6838 ;; Data sizes:     COMRAM   BANK0   BANK1   BANK2   BANK3   BANK4   BANK5   BANK6   BANK7   BANK8   BANK9  BANK10  BANK1
      +1  BANK12  BANK13  BANK14  BANK15
  6839 ;;      Params:         4       0       0       0       0       0       0       0       0       0       0       0       
      +0       0       0       0       0
  6840 ;;      Locals:         1       0       0       0       0       0       0       0       0       0       0       0       
      +0       0       0       0       0
  6841 ;;      Temps:          0       0       0       0       0       0       0       0       0       0       0       0       
      +0       0       0       0       0
  6842 ;;      Totals:         5       0       0       0       0       0       0       0       0       0       0       0       
      +0       0       0       0       0
  6843 ;;Total ram usage:        5 bytes
  6844 ;; Hardware stack levels used: 1
  6845 ;; Hardware stack levels required when called: 4
  6846 ;; This function calls:
  6847 ;;		i2_lcd_4bit_send_char_data
  6848 ;;		i2_lcd_4bit_set_cursor
  6849 ;; This function is called by:
  6850 ;;		_Player_one_move
  6851 ;;		_Player_two_move
  6852 ;; This function uses a non-reentrant model
  6853 ;;
  6854                           
  6855                           	psect	text48
  6856   002AF4                     __ptext48:
  6857                           	callstack 0
  6858   002AF4                     i2_lcd_4bit_send_char_data_pos:
  6859                           	callstack 16
  6860   002AF4                     
  6861                           ;ECU_LAYER/Chr_Lcd/ecu_chr_lcd.c: 133:     if (((void*)0) == Lcd) {
  6862   002AF4  5015               	movf	i2lcd_4bit_send_char_data_pos@Lcd^0,w,c
  6863   002AF6  A4D8               	btfss	status,2,c
  6864   002AF8  EF80  F015         	goto	i2u294_41
  6865   002AFC  EF82  F015         	goto	i2u294_40
  6866   002B00                     i2u294_41:
  6867   002B00  EF86  F015         	goto	i2l3954
  6868   002B04                     i2u294_40:
  6869   002B04                     
  6870                           ;ECU_LAYER/Chr_Lcd/ecu_chr_lcd.c: 134:         ret = (Std_ReturnType)0X00;
  6871   002B04  0E00               	movlw	0
  6872   002B06  6E19               	movwf	i2lcd_4bit_send_char_data_pos@ret^0,c
  6873                           
  6874                           ;ECU_LAYER/Chr_Lcd/ecu_chr_lcd.c: 135:     } else {
  6875   002B08  EF96  F015         	goto	i2l3956
  6876   002B0C                     i2l3954:
  6877                           
  6878                           ;ECU_LAYER/Chr_Lcd/ecu_chr_lcd.c: 136:         ret = lcd_4bit_set_cursor(Lcd, row, colum
      +                          n);
  6879   002B0C  C015  F00F         	movff	i2lcd_4bit_send_char_data_pos@Lcd,i2lcd_4bit_set_cursor@Lcd
  6880   002B10  C016  F010         	movff	i2lcd_4bit_send_char_data_pos@row,i2lcd_4bit_set_cursor@row
  6881   002B14  C017  F011         	movff	i2lcd_4bit_send_char_data_pos@column,i2lcd_4bit_set_cursor@column
  6882   002B18  EC95  F010         	call	i2_lcd_4bit_set_cursor	;wreg free
  6883   002B1C  6E19               	movwf	i2lcd_4bit_send_char_data_pos@ret^0,c
  6884                           
  6885                           ;ECU_LAYER/Chr_Lcd/ecu_chr_lcd.c: 137:         ret = lcd_4bit_send_char_data(Lcd, data);
  6886   002B1E  C015  F00C         	movff	i2lcd_4bit_send_char_data_pos@Lcd,i2lcd_4bit_send_char_data@Lcd
  6887   002B22  C018  F00D         	movff	i2lcd_4bit_send_char_data_pos@data,i2lcd_4bit_send_char_data@data
  6888   002B26  EC17  F014         	call	i2_lcd_4bit_send_char_data	;wreg free
  6889   002B2A  6E19               	movwf	i2lcd_4bit_send_char_data_pos@ret^0,c
  6890   002B2C                     i2l3956:
  6891                           
  6892                           ;ECU_LAYER/Chr_Lcd/ecu_chr_lcd.c: 139:     return ret;
  6893   002B2C  5019               	movf	i2lcd_4bit_send_char_data_pos@ret^0,w,c
  6894   002B2E  0012               	return		;funcret
  6895   002B30                     __end_ofi2_lcd_4bit_send_char_data_pos:
  6896                           	callstack 0
  6897                           
  6898 ;; *************** function i2_lcd_4bit_set_cursor *****************
  6899 ;; Defined at:
  6900 ;;		line 433 in file "ECU_LAYER/Chr_Lcd/ecu_chr_lcd.c"
  6901 ;; Parameters:    Size  Location     Type
  6902 ;;  Lcd             1   14[COMRAM] PTR const struct .
  6903 ;;		 -> lcd(6), 
  6904 ;;  row             1   15[COMRAM] unsigned char 
  6905 ;;  column          1   16[COMRAM] unsigned char 
  6906 ;; Auto vars:     Size  Location     Type
  6907 ;;  ret             1   19[COMRAM] unsigned char 
  6908 ;; Return value:  Size  Location     Type
  6909 ;;                  1    wreg      unsigned char 
  6910 ;; Registers used:
  6911 ;;		wreg, fsr2l, fsr2h, status,2, status,0, prodl, prodh, cstack
  6912 ;; Tracked objects:
  6913 ;;		On entry : 0/0
  6914 ;;		On exit  : 0/0
  6915 ;;		Unchanged: 0/0
  6916 ;; Data sizes:     COMRAM   BANK0   BANK1   BANK2   BANK3   BANK4   BANK5   BANK6   BANK7   BANK8   BANK9  BANK10  BANK1
      +1  BANK12  BANK13  BANK14  BANK15
  6917 ;;      Params:         3       0       0       0       0       0       0       0       0       0       0       0       
      +0       0       0       0       0
  6918 ;;      Locals:         1       0       0       0       0       0       0       0       0       0       0       0       
      +0       0       0       0       0
  6919 ;;      Temps:          2       0       0       0       0       0       0       0       0       0       0       0       
      +0       0       0       0       0
  6920 ;;      Totals:         6       0       0       0       0       0       0       0       0       0       0       0       
      +0       0       0       0       0
  6921 ;;Total ram usage:        6 bytes
  6922 ;; Hardware stack levels used: 1
  6923 ;; Hardware stack levels required when called: 3
  6924 ;; This function calls:
  6925 ;;		i2_lcd_4bit_send_command
  6926 ;; This function is called by:
  6927 ;;		i2_lcd_4bit_send_char_data_pos
  6928 ;; This function uses a non-reentrant model
  6929 ;;
  6930                           
  6931                           	psect	text49
  6932   00212A                     __ptext49:
  6933                           	callstack 0
  6934   00212A                     i2_lcd_4bit_set_cursor:
  6935                           	callstack 16
  6936   00212A                     
  6937                           ;ECU_LAYER/Chr_Lcd/ecu_chr_lcd.c: 434:     Std_ReturnType ret = (Std_ReturnType)0X01;
  6938   00212A  0E01               	movlw	1
  6939   00212C  6E14               	movwf	i2lcd_4bit_set_cursor@ret^0,c
  6940   00212E                     
  6941                           ;ECU_LAYER/Chr_Lcd/ecu_chr_lcd.c: 435:     column--;
  6942   00212E  0611               	decf	i2lcd_4bit_set_cursor@column^0,f,c
  6943                           
  6944                           ;ECU_LAYER/Chr_Lcd/ecu_chr_lcd.c: 436:     switch (row) {
  6945   002130  EFC2  F010         	goto	i2l3740
  6946   002134                     i2l3732:
  6947   002134  C00F  F00C         	movff	i2lcd_4bit_set_cursor@Lcd,i2lcd_4bit_send_command@Lcd
  6948   002138  5011               	movf	i2lcd_4bit_set_cursor@column^0,w,c
  6949   00213A  0F80               	addlw	128
  6950   00213C  6E0D               	movwf	i2lcd_4bit_send_command@command^0,c
  6951   00213E  ECE9  F013         	call	i2_lcd_4bit_send_command	;wreg free
  6952   002142  6E14               	movwf	i2lcd_4bit_set_cursor@ret^0,c
  6953                           
  6954                           ;ECU_LAYER/Chr_Lcd/ecu_chr_lcd.c: 438:             break;
  6955   002144  EFDF  F010         	goto	i2l3742
  6956   002148                     i2l3734:
  6957   002148  C00F  F00C         	movff	i2lcd_4bit_set_cursor@Lcd,i2lcd_4bit_send_command@Lcd
  6958   00214C  5011               	movf	i2lcd_4bit_set_cursor@column^0,w,c
  6959   00214E  0FC0               	addlw	192
  6960   002150  6E0D               	movwf	i2lcd_4bit_send_command@command^0,c
  6961   002152  ECE9  F013         	call	i2_lcd_4bit_send_command	;wreg free
  6962   002156  6E14               	movwf	i2lcd_4bit_set_cursor@ret^0,c
  6963                           
  6964                           ;ECU_LAYER/Chr_Lcd/ecu_chr_lcd.c: 440:             break;
  6965   002158  EFDF  F010         	goto	i2l3742
  6966   00215C                     i2l3736:
  6967   00215C  C00F  F00C         	movff	i2lcd_4bit_set_cursor@Lcd,i2lcd_4bit_send_command@Lcd
  6968   002160  5011               	movf	i2lcd_4bit_set_cursor@column^0,w,c
  6969   002162  0F94               	addlw	148
  6970   002164  6E0D               	movwf	i2lcd_4bit_send_command@command^0,c
  6971   002166  ECE9  F013         	call	i2_lcd_4bit_send_command	;wreg free
  6972   00216A  6E14               	movwf	i2lcd_4bit_set_cursor@ret^0,c
  6973                           
  6974                           ;ECU_LAYER/Chr_Lcd/ecu_chr_lcd.c: 442:             break;
  6975   00216C  EFDF  F010         	goto	i2l3742
  6976   002170                     i2l3738:
  6977   002170  C00F  F00C         	movff	i2lcd_4bit_set_cursor@Lcd,i2lcd_4bit_send_command@Lcd
  6978   002174  5011               	movf	i2lcd_4bit_set_cursor@column^0,w,c
  6979   002176  0FD4               	addlw	212
  6980   002178  6E0D               	movwf	i2lcd_4bit_send_command@command^0,c
  6981   00217A  ECE9  F013         	call	i2_lcd_4bit_send_command	;wreg free
  6982   00217E  6E14               	movwf	i2lcd_4bit_set_cursor@ret^0,c
  6983                           
  6984                           ;ECU_LAYER/Chr_Lcd/ecu_chr_lcd.c: 444:             break;
  6985   002180  EFDF  F010         	goto	i2l3742
  6986   002184                     i2l3740:
  6987   002184  5010               	movf	i2lcd_4bit_set_cursor@row^0,w,c
  6988   002186  6E12               	movwf	??i2_lcd_4bit_set_cursor^0,c
  6989   002188  6A13               	clrf	(??i2_lcd_4bit_set_cursor+1)^0,c
  6990                           
  6991                           ; Switch on 2 bytes has been partitioned into a top level switch of size 1, and 1 sub-sw
      +                          itches
  6992                           ; Switch size 1, requested type "simple"
  6993                           ; Number of cases is 1, Range of values is 0 to 0
  6994                           ; switch strategies available:
  6995                           ; Name         Instructions Cycles
  6996                           ; simple_byte            4     3 (average)
  6997                           ;	Chosen strategy is simple_byte
  6998   00218A  5013               	movf	(??i2_lcd_4bit_set_cursor+1)^0,w,c
  6999   00218C  0A00               	xorlw	0	; case 0
  7000   00218E  B4D8               	btfsc	status,2,c
  7001   002190  EFCC  F010         	goto	i2l6524
  7002   002194  EFDF  F010         	goto	i2l3742
  7003   002198                     i2l6524:
  7004                           
  7005                           ; Switch size 1, requested type "simple"
  7006                           ; Number of cases is 4, Range of values is 1 to 4
  7007                           ; switch strategies available:
  7008                           ; Name         Instructions Cycles
  7009                           ; simple_byte           13     7 (average)
  7010                           ;	Chosen strategy is simple_byte
  7011   002198  5012               	movf	??i2_lcd_4bit_set_cursor^0,w,c
  7012   00219A  0A01               	xorlw	1	; case 1
  7013   00219C  B4D8               	btfsc	status,2,c
  7014   00219E  EF9A  F010         	goto	i2l3732
  7015   0021A2  0A03               	xorlw	3	; case 2
  7016   0021A4  B4D8               	btfsc	status,2,c
  7017   0021A6  EFA4  F010         	goto	i2l3734
  7018   0021AA  0A01               	xorlw	1	; case 3
  7019   0021AC  B4D8               	btfsc	status,2,c
  7020   0021AE  EFAE  F010         	goto	i2l3736
  7021   0021B2  0A07               	xorlw	7	; case 4
  7022   0021B4  B4D8               	btfsc	status,2,c
  7023   0021B6  EFB8  F010         	goto	i2l3738
  7024   0021BA  EFDF  F010         	goto	i2l3742
  7025   0021BE                     i2l3742:
  7026                           
  7027                           ;ECU_LAYER/Chr_Lcd/ecu_chr_lcd.c: 447:     return ret;
  7028   0021BE  5014               	movf	i2lcd_4bit_set_cursor@ret^0,w,c
  7029   0021C0  0012               	return		;funcret
  7030   0021C2                     __end_ofi2_lcd_4bit_set_cursor:
  7031                           	callstack 0
  7032                           
  7033 ;; *************** function i2_lcd_4bit_send_command *****************
  7034 ;; Defined at:
  7035 ;;		line 89 in file "ECU_LAYER/Chr_Lcd/ecu_chr_lcd.c"
  7036 ;; Parameters:    Size  Location     Type
  7037 ;;  Lcd             1   11[COMRAM] PTR const struct .
  7038 ;;		 -> lcd(6), 
  7039 ;;  command         1   12[COMRAM] unsigned char 
  7040 ;; Auto vars:     Size  Location     Type
  7041 ;;  ret             1   13[COMRAM] unsigned char 
  7042 ;; Return value:  Size  Location     Type
  7043 ;;                  1    wreg      unsigned char 
  7044 ;; Registers used:
  7045 ;;		wreg, fsr2l, fsr2h, status,2, status,0, prodl, prodh, cstack
  7046 ;; Tracked objects:
  7047 ;;		On entry : 0/0
  7048 ;;		On exit  : 0/0
  7049 ;;		Unchanged: 0/0
  7050 ;; Data sizes:     COMRAM   BANK0   BANK1   BANK2   BANK3   BANK4   BANK5   BANK6   BANK7   BANK8   BANK9  BANK10  BANK1
      +1  BANK12  BANK13  BANK14  BANK15
  7051 ;;      Params:         2       0       0       0       0       0       0       0       0       0       0       0       
      +0       0       0       0       0
  7052 ;;      Locals:         1       0       0       0       0       0       0       0       0       0       0       0       
      +0       0       0       0       0
  7053 ;;      Temps:          0       0       0       0       0       0       0       0       0       0       0       0       
      +0       0       0       0       0
  7054 ;;      Totals:         3       0       0       0       0       0       0       0       0       0       0       0       
      +0       0       0       0       0
  7055 ;;Total ram usage:        3 bytes
  7056 ;; Hardware stack levels used: 1
  7057 ;; Hardware stack levels required when called: 2
  7058 ;; This function calls:
  7059 ;;		i2_gpio_pin_write_logic
  7060 ;;		i2_lcd_4bits_command
  7061 ;;		i2_lcd_4bits_send_enable
  7062 ;; This function is called by:
  7063 ;;		i2_lcd_4bit_set_cursor
  7064 ;; This function uses a non-reentrant model
  7065 ;;
  7066                           
  7067                           	psect	text50
  7068   0027D2                     __ptext50:
  7069                           	callstack 0
  7070   0027D2                     i2_lcd_4bit_send_command:
  7071                           	callstack 16
  7072   0027D2                     
  7073                           ;ECU_LAYER/Chr_Lcd/ecu_chr_lcd.c: 91:     if (((void*)0) == Lcd) {
  7074   0027D2  500C               	movf	i2lcd_4bit_send_command@Lcd^0,w,c
  7075   0027D4  A4D8               	btfss	status,2,c
  7076   0027D6  EFEF  F013         	goto	i2u265_41
  7077   0027DA  EFF1  F013         	goto	i2u265_40
  7078   0027DE                     i2u265_41:
  7079   0027DE  EFF5  F013         	goto	i2l3618
  7080   0027E2                     i2u265_40:
  7081   0027E2                     
  7082                           ;ECU_LAYER/Chr_Lcd/ecu_chr_lcd.c: 92:         ret = (Std_ReturnType)0X00;
  7083   0027E2  0E00               	movlw	0
  7084   0027E4  6E0E               	movwf	i2lcd_4bit_send_command@ret^0,c
  7085                           
  7086                           ;ECU_LAYER/Chr_Lcd/ecu_chr_lcd.c: 93:     } else {
  7087   0027E6  EF15  F014         	goto	i2l3620
  7088   0027EA                     i2l3618:
  7089                           
  7090                           ;ECU_LAYER/Chr_Lcd/ecu_chr_lcd.c: 94:         ret = gpio_pin_write_logic(&(Lcd->lcd_rs),
      +                           GPIO_LOW);
  7091   0027EA  C00C  F001         	movff	i2lcd_4bit_send_command@Lcd,i2gpio_pin_write_logic@_pin_config
  7092   0027EE  0E00               	movlw	0
  7093   0027F0  6E02               	movwf	i2gpio_pin_write_logic@logic_^0,c
  7094   0027F2  EC0E  F00D         	call	i2_gpio_pin_write_logic	;wreg free
  7095   0027F6  6E0E               	movwf	i2lcd_4bit_send_command@ret^0,c
  7096                           
  7097                           ;ECU_LAYER/Chr_Lcd/ecu_chr_lcd.c: 95:         ret = lcd_4bits_command(Lcd, command >> 4)
      +                          ;
  7098   0027F8  C00C  F009         	movff	i2lcd_4bit_send_command@Lcd,i2lcd_4bits_command@Lcd
  7099   0027FC  380D               	swapf	i2lcd_4bit_send_command@command^0,w,c
  7100   0027FE  0B0F               	andlw	15
  7101   002800  6E0A               	movwf	i2lcd_4bits_command@data_command^0,c
  7102   002802  EC6D  F014         	call	i2_lcd_4bits_command	;wreg free
  7103   002806  6E0E               	movwf	i2lcd_4bit_send_command@ret^0,c
  7104                           
  7105                           ;ECU_LAYER/Chr_Lcd/ecu_chr_lcd.c: 96:         ret = lcd_4bits_send_enable(Lcd);
  7106   002808  C00C  F009         	movff	i2lcd_4bit_send_command@Lcd,i2lcd_4bits_send_enable@Lcd
  7107   00280C  EC5B  F015         	call	i2_lcd_4bits_send_enable	;wreg free
  7108   002810  6E0E               	movwf	i2lcd_4bit_send_command@ret^0,c
  7109                           
  7110                           ;ECU_LAYER/Chr_Lcd/ecu_chr_lcd.c: 97:         ret = lcd_4bits_command(Lcd, command);
  7111   002812  C00C  F009         	movff	i2lcd_4bit_send_command@Lcd,i2lcd_4bits_command@Lcd
  7112   002816  C00D  F00A         	movff	i2lcd_4bit_send_command@command,i2lcd_4bits_command@data_command
  7113   00281A  EC6D  F014         	call	i2_lcd_4bits_command	;wreg free
  7114   00281E  6E0E               	movwf	i2lcd_4bit_send_command@ret^0,c
  7115                           
  7116                           ;ECU_LAYER/Chr_Lcd/ecu_chr_lcd.c: 98:         ret = lcd_4bits_send_enable(Lcd);
  7117   002820  C00C  F009         	movff	i2lcd_4bit_send_command@Lcd,i2lcd_4bits_send_enable@Lcd
  7118   002824  EC5B  F015         	call	i2_lcd_4bits_send_enable	;wreg free
  7119   002828  6E0E               	movwf	i2lcd_4bit_send_command@ret^0,c
  7120   00282A                     i2l3620:
  7121                           
  7122                           ;ECU_LAYER/Chr_Lcd/ecu_chr_lcd.c: 100:     return ret;
  7123   00282A  500E               	movf	i2lcd_4bit_send_command@ret^0,w,c
  7124   00282C  0012               	return		;funcret
  7125   00282E                     __end_ofi2_lcd_4bit_send_command:
  7126                           	callstack 0
  7127                           
  7128 ;; *************** function i2_lcd_4bit_send_char_data *****************
  7129 ;; Defined at:
  7130 ;;		line 109 in file "ECU_LAYER/Chr_Lcd/ecu_chr_lcd.c"
  7131 ;; Parameters:    Size  Location     Type
  7132 ;;  Lcd             1   11[COMRAM] PTR const struct .
  7133 ;;		 -> lcd(6), 
  7134 ;;  data            1   12[COMRAM] unsigned char 
  7135 ;; Auto vars:     Size  Location     Type
  7136 ;;  ret             1   13[COMRAM] unsigned char 
  7137 ;; Return value:  Size  Location     Type
  7138 ;;                  1    wreg      unsigned char 
  7139 ;; Registers used:
  7140 ;;		wreg, fsr2l, fsr2h, status,2, status,0, prodl, prodh, cstack
  7141 ;; Tracked objects:
  7142 ;;		On entry : 0/0
  7143 ;;		On exit  : 0/0
  7144 ;;		Unchanged: 0/0
  7145 ;; Data sizes:     COMRAM   BANK0   BANK1   BANK2   BANK3   BANK4   BANK5   BANK6   BANK7   BANK8   BANK9  BANK10  BANK1
      +1  BANK12  BANK13  BANK14  BANK15
  7146 ;;      Params:         2       0       0       0       0       0       0       0       0       0       0       0       
      +0       0       0       0       0
  7147 ;;      Locals:         1       0       0       0       0       0       0       0       0       0       0       0       
      +0       0       0       0       0
  7148 ;;      Temps:          0       0       0       0       0       0       0       0       0       0       0       0       
      +0       0       0       0       0
  7149 ;;      Totals:         3       0       0       0       0       0       0       0       0       0       0       0       
      +0       0       0       0       0
  7150 ;;Total ram usage:        3 bytes
  7151 ;; Hardware stack levels used: 1
  7152 ;; Hardware stack levels required when called: 2
  7153 ;; This function calls:
  7154 ;;		i2_gpio_pin_write_logic
  7155 ;;		i2_lcd_4bits_command
  7156 ;;		i2_lcd_4bits_send_enable
  7157 ;; This function is called by:
  7158 ;;		i2_lcd_4bit_send_char_data_pos
  7159 ;; This function uses a non-reentrant model
  7160 ;;
  7161                           
  7162                           	psect	text51
  7163   00282E                     __ptext51:
  7164                           	callstack 0
  7165   00282E                     i2_lcd_4bit_send_char_data:
  7166                           	callstack 17
  7167   00282E                     
  7168                           ;ECU_LAYER/Chr_Lcd/ecu_chr_lcd.c: 111:     if (((void*)0) == Lcd) {
  7169   00282E  500C               	movf	i2lcd_4bit_send_char_data@Lcd^0,w,c
  7170   002830  A4D8               	btfss	status,2,c
  7171   002832  EF1D  F014         	goto	i2u276_41
  7172   002836  EF1F  F014         	goto	i2u276_40
  7173   00283A                     i2u276_41:
  7174   00283A  EF23  F014         	goto	i2l3722
  7175   00283E                     i2u276_40:
  7176   00283E                     
  7177                           ;ECU_LAYER/Chr_Lcd/ecu_chr_lcd.c: 112:         ret = (Std_ReturnType)0X00;
  7178   00283E  0E00               	movlw	0
  7179   002840  6E0E               	movwf	i2lcd_4bit_send_char_data@ret^0,c
  7180                           
  7181                           ;ECU_LAYER/Chr_Lcd/ecu_chr_lcd.c: 113:     } else {
  7182   002842  EF43  F014         	goto	i2l3724
  7183   002846                     i2l3722:
  7184                           
  7185                           ;ECU_LAYER/Chr_Lcd/ecu_chr_lcd.c: 114:         ret = gpio_pin_write_logic(&(Lcd->lcd_rs)
      +                          , GPIO_HIGH);
  7186   002846  C00C  F001         	movff	i2lcd_4bit_send_char_data@Lcd,i2gpio_pin_write_logic@_pin_config
  7187   00284A  0E01               	movlw	1
  7188   00284C  6E02               	movwf	i2gpio_pin_write_logic@logic_^0,c
  7189   00284E  EC0E  F00D         	call	i2_gpio_pin_write_logic	;wreg free
  7190   002852  6E0E               	movwf	i2lcd_4bit_send_char_data@ret^0,c
  7191                           
  7192                           ;ECU_LAYER/Chr_Lcd/ecu_chr_lcd.c: 115:         ret = lcd_4bits_command(Lcd, data >> 4);
  7193   002854  C00C  F009         	movff	i2lcd_4bit_send_char_data@Lcd,i2lcd_4bits_command@Lcd
  7194   002858  380D               	swapf	i2lcd_4bit_send_char_data@data^0,w,c
  7195   00285A  0B0F               	andlw	15
  7196   00285C  6E0A               	movwf	i2lcd_4bits_command@data_command^0,c
  7197   00285E  EC6D  F014         	call	i2_lcd_4bits_command	;wreg free
  7198   002862  6E0E               	movwf	i2lcd_4bit_send_char_data@ret^0,c
  7199                           
  7200                           ;ECU_LAYER/Chr_Lcd/ecu_chr_lcd.c: 116:         ret = lcd_4bits_send_enable(Lcd);
  7201   002864  C00C  F009         	movff	i2lcd_4bit_send_char_data@Lcd,i2lcd_4bits_send_enable@Lcd
  7202   002868  EC5B  F015         	call	i2_lcd_4bits_send_enable	;wreg free
  7203   00286C  6E0E               	movwf	i2lcd_4bit_send_char_data@ret^0,c
  7204                           
  7205                           ;ECU_LAYER/Chr_Lcd/ecu_chr_lcd.c: 117:         ret = lcd_4bits_command(Lcd, data);
  7206   00286E  C00C  F009         	movff	i2lcd_4bit_send_char_data@Lcd,i2lcd_4bits_command@Lcd
  7207   002872  C00D  F00A         	movff	i2lcd_4bit_send_char_data@data,i2lcd_4bits_command@data_command
  7208   002876  EC6D  F014         	call	i2_lcd_4bits_command	;wreg free
  7209   00287A  6E0E               	movwf	i2lcd_4bit_send_char_data@ret^0,c
  7210                           
  7211                           ;ECU_LAYER/Chr_Lcd/ecu_chr_lcd.c: 118:         ret = lcd_4bits_send_enable(Lcd);
  7212   00287C  C00C  F009         	movff	i2lcd_4bit_send_char_data@Lcd,i2lcd_4bits_send_enable@Lcd
  7213   002880  EC5B  F015         	call	i2_lcd_4bits_send_enable	;wreg free
  7214   002884  6E0E               	movwf	i2lcd_4bit_send_char_data@ret^0,c
  7215   002886                     i2l3724:
  7216                           
  7217                           ;ECU_LAYER/Chr_Lcd/ecu_chr_lcd.c: 120:     return ret;
  7218   002886  500E               	movf	i2lcd_4bit_send_char_data@ret^0,w,c
  7219   002888  0012               	return		;funcret
  7220   00288A                     __end_ofi2_lcd_4bit_send_char_data:
  7221                           	callstack 0
  7222                           
  7223 ;; *************** function i2_lcd_4bits_send_enable *****************
  7224 ;; Defined at:
  7225 ;;		line 412 in file "ECU_LAYER/Chr_Lcd/ecu_chr_lcd.c"
  7226 ;; Parameters:    Size  Location     Type
  7227 ;;  Lcd             1    8[COMRAM] PTR const struct .
  7228 ;;		 -> lcd(6), 
  7229 ;; Auto vars:     Size  Location     Type
  7230 ;;  ret             1    9[COMRAM] unsigned char 
  7231 ;; Return value:  Size  Location     Type
  7232 ;;                  1    wreg      unsigned char 
  7233 ;; Registers used:
  7234 ;;		wreg, fsr2l, fsr2h, status,2, status,0, prodl, prodh, cstack
  7235 ;; Tracked objects:
  7236 ;;		On entry : 0/0
  7237 ;;		On exit  : 0/0
  7238 ;;		Unchanged: 0/0
  7239 ;; Data sizes:     COMRAM   BANK0   BANK1   BANK2   BANK3   BANK4   BANK5   BANK6   BANK7   BANK8   BANK9  BANK10  BANK1
      +1  BANK12  BANK13  BANK14  BANK15
  7240 ;;      Params:         1       0       0       0       0       0       0       0       0       0       0       0       
      +0       0       0       0       0
  7241 ;;      Locals:         1       0       0       0       0       0       0       0       0       0       0       0       
      +0       0       0       0       0
  7242 ;;      Temps:          0       0       0       0       0       0       0       0       0       0       0       0       
      +0       0       0       0       0
  7243 ;;      Totals:         2       0       0       0       0       0       0       0       0       0       0       0       
      +0       0       0       0       0
  7244 ;;Total ram usage:        2 bytes
  7245 ;; Hardware stack levels used: 1
  7246 ;; Hardware stack levels required when called: 1
  7247 ;; This function calls:
  7248 ;;		i2_gpio_pin_write_logic
  7249 ;; This function is called by:
  7250 ;;		i2_lcd_4bit_send_command
  7251 ;;		i2_lcd_4bit_send_char_data
  7252 ;; This function uses a non-reentrant model
  7253 ;;
  7254                           
  7255                           	psect	text52
  7256   002AB6                     __ptext52:
  7257                           	callstack 0
  7258   002AB6                     i2_lcd_4bits_send_enable:
  7259                           	callstack 16
  7260   002AB6                     
  7261                           ;ECU_LAYER/Chr_Lcd/ecu_chr_lcd.c: 414:     if (((void*)0) == Lcd) {
  7262   002AB6  5009               	movf	i2lcd_4bits_send_enable@Lcd^0,w,c
  7263   002AB8  A4D8               	btfss	status,2,c
  7264   002ABA  EF61  F015         	goto	i2u246_41
  7265   002ABE  EF63  F015         	goto	i2u246_40
  7266   002AC2                     i2u246_41:
  7267   002AC2  EF67  F015         	goto	i2l3500
  7268   002AC6                     i2u246_40:
  7269   002AC6                     
  7270                           ;ECU_LAYER/Chr_Lcd/ecu_chr_lcd.c: 415:         ret = (Std_ReturnType)0X00;
  7271   002AC6  0E00               	movlw	0
  7272   002AC8  6E0A               	movwf	i2lcd_4bits_send_enable@ret^0,c
  7273                           
  7274                           ;ECU_LAYER/Chr_Lcd/ecu_chr_lcd.c: 416:     } else {
  7275   002ACA  EF78  F015         	goto	i2l3506
  7276   002ACE                     i2l3500:
  7277   002ACE  2809               	incf	i2lcd_4bits_send_enable@Lcd^0,w,c
  7278   002AD0  6E01               	movwf	i2gpio_pin_write_logic@_pin_config^0,c
  7279   002AD2  0E01               	movlw	1
  7280   002AD4  6E02               	movwf	i2gpio_pin_write_logic@logic_^0,c
  7281   002AD6  EC0E  F00D         	call	i2_gpio_pin_write_logic	;wreg free
  7282   002ADA                     
  7283                           ;ECU_LAYER/Chr_Lcd/ecu_chr_lcd.c: 418:         _delay((unsigned long)((5)*(8000000/40000
      +                          00.0)));
  7284   002ADA  0E03               	movlw	3
  7285   002ADC                     i2u580_47:
  7286   002ADC  2EE8               	decfsz	wreg,f,c
  7287   002ADE  D7FE               	bra	i2u580_47
  7288   002AE0  0000               	nop	
  7289   002AE2                     
  7290                           ;ECU_LAYER/Chr_Lcd/ecu_chr_lcd.c: 419:         ret = gpio_pin_write_logic(&(Lcd->lcd_en)
      +                          , GPIO_LOW);
  7291   002AE2  2809               	incf	i2lcd_4bits_send_enable@Lcd^0,w,c
  7292   002AE4  6E01               	movwf	i2gpio_pin_write_logic@_pin_config^0,c
  7293   002AE6  0E00               	movlw	0
  7294   002AE8  6E02               	movwf	i2gpio_pin_write_logic@logic_^0,c
  7295   002AEA  EC0E  F00D         	call	i2_gpio_pin_write_logic	;wreg free
  7296   002AEE  6E0A               	movwf	i2lcd_4bits_send_enable@ret^0,c
  7297   002AF0                     i2l3506:
  7298                           
  7299                           ;ECU_LAYER/Chr_Lcd/ecu_chr_lcd.c: 421:     return ret;
  7300   002AF0  500A               	movf	i2lcd_4bits_send_enable@ret^0,w,c
  7301   002AF2  0012               	return		;funcret
  7302   002AF4                     __end_ofi2_lcd_4bits_send_enable:
  7303                           	callstack 0
  7304                           
  7305 ;; *************** function i2_lcd_4bits_command *****************
  7306 ;; Defined at:
  7307 ;;		line 424 in file "ECU_LAYER/Chr_Lcd/ecu_chr_lcd.c"
  7308 ;; Parameters:    Size  Location     Type
  7309 ;;  Lcd             1    8[COMRAM] PTR const struct .
  7310 ;;		 -> lcd(6), 
  7311 ;;  data_command    1    9[COMRAM] unsigned char 
  7312 ;; Auto vars:     Size  Location     Type
  7313 ;;  ret             1   10[COMRAM] unsigned char 
  7314 ;; Return value:  Size  Location     Type
  7315 ;;                  1    wreg      unsigned char 
  7316 ;; Registers used:
  7317 ;;		wreg, fsr2l, fsr2h, status,2, status,0, prodl, prodh, cstack
  7318 ;; Tracked objects:
  7319 ;;		On entry : 0/0
  7320 ;;		On exit  : 0/0
  7321 ;;		Unchanged: 0/0
  7322 ;; Data sizes:     COMRAM   BANK0   BANK1   BANK2   BANK3   BANK4   BANK5   BANK6   BANK7   BANK8   BANK9  BANK10  BANK1
      +1  BANK12  BANK13  BANK14  BANK15
  7323 ;;      Params:         2       0       0       0       0       0       0       0       0       0       0       0       
      +0       0       0       0       0
  7324 ;;      Locals:         1       0       0       0       0       0       0       0       0       0       0       0       
      +0       0       0       0       0
  7325 ;;      Temps:          0       0       0       0       0       0       0       0       0       0       0       0       
      +0       0       0       0       0
  7326 ;;      Totals:         3       0       0       0       0       0       0       0       0       0       0       0       
      +0       0       0       0       0
  7327 ;;Total ram usage:        3 bytes
  7328 ;; Hardware stack levels used: 1
  7329 ;; Hardware stack levels required when called: 1
  7330 ;; This function calls:
  7331 ;;		i2_gpio_pin_write_logic
  7332 ;; This function is called by:
  7333 ;;		i2_lcd_4bit_send_command
  7334 ;;		i2_lcd_4bit_send_char_data
  7335 ;; This function uses a non-reentrant model
  7336 ;;
  7337                           
  7338                           	psect	text53
  7339   0028DA                     __ptext53:
  7340                           	callstack 0
  7341   0028DA                     i2_lcd_4bits_command:
  7342                           	callstack 16
  7343   0028DA  5009               	movf	i2lcd_4bits_command@Lcd^0,w,c
  7344   0028DC  0F02               	addlw	2
  7345   0028DE  6E01               	movwf	i2gpio_pin_write_logic@_pin_config^0,c
  7346   0028E0  500A               	movf	i2lcd_4bits_command@data_command^0,w,c
  7347   0028E2  0B01               	andlw	1
  7348   0028E4  6E02               	movwf	i2gpio_pin_write_logic@logic_^0,c
  7349   0028E6  EC0E  F00D         	call	i2_gpio_pin_write_logic	;wreg free
  7350   0028EA  5009               	movf	i2lcd_4bits_command@Lcd^0,w,c
  7351   0028EC  0F03               	addlw	3
  7352   0028EE  6E01               	movwf	i2gpio_pin_write_logic@_pin_config^0,c
  7353   0028F0  90D8               	bcf	status,0,c
  7354   0028F2  300A               	rrcf	i2lcd_4bits_command@data_command^0,w,c
  7355   0028F4  0B01               	andlw	1
  7356   0028F6  6E02               	movwf	i2gpio_pin_write_logic@logic_^0,c
  7357   0028F8  EC0E  F00D         	call	i2_gpio_pin_write_logic	;wreg free
  7358   0028FC  5009               	movf	i2lcd_4bits_command@Lcd^0,w,c
  7359   0028FE  0F04               	addlw	4
  7360   002900  6E01               	movwf	i2gpio_pin_write_logic@_pin_config^0,c
  7361   002902  400A               	rrncf	i2lcd_4bits_command@data_command^0,w,c
  7362   002904  42E8               	rrncf	wreg,f,c
  7363   002906  0B3F               	andlw	63
  7364   002908  0B01               	andlw	1
  7365   00290A  6E02               	movwf	i2gpio_pin_write_logic@logic_^0,c
  7366   00290C  EC0E  F00D         	call	i2_gpio_pin_write_logic	;wreg free
  7367   002910                     
  7368                           ;ECU_LAYER/Chr_Lcd/ecu_chr_lcd.c: 429:     ret = gpio_pin_write_logic(&(Lcd->lcd_data[3]
      +                          ), (data_command >> 3) & (uint8) 0x01);
  7369   002910  5009               	movf	i2lcd_4bits_command@Lcd^0,w,c
  7370   002912  0F05               	addlw	5
  7371   002914  6E01               	movwf	i2gpio_pin_write_logic@_pin_config^0,c
  7372   002916  380A               	swapf	i2lcd_4bits_command@data_command^0,w,c
  7373   002918  46E8               	rlncf	wreg,f,c
  7374   00291A  0B1F               	andlw	31
  7375   00291C  0B01               	andlw	1
  7376   00291E  6E02               	movwf	i2gpio_pin_write_logic@logic_^0,c
  7377   002920  EC0E  F00D         	call	i2_gpio_pin_write_logic	;wreg free
  7378   002924  6E0B               	movwf	i2lcd_4bits_command@ret^0,c
  7379                           
  7380                           ;ECU_LAYER/Chr_Lcd/ecu_chr_lcd.c: 430:     return ret;
  7381   002926  500B               	movf	i2lcd_4bits_command@ret^0,w,c
  7382   002928  0012               	return		;funcret
  7383   00292A                     __end_ofi2_lcd_4bits_command:
  7384                           	callstack 0
  7385                           
  7386 ;; *************** function i2_Seven_Segm_Display_Number *****************
  7387 ;; Defined at:
  7388 ;;		line 51 in file "ECU_LAYER/Seven_Seg/Seven_Seg.c"
  7389 ;; Parameters:    Size  Location     Type
  7390 ;;  _Seven_Seg      1    8[COMRAM] PTR struct .
  7391 ;;		 -> seg2(5), seg1(5), 
  7392 ;;  number          1    9[COMRAM] unsigned char 
  7393 ;; Auto vars:     Size  Location     Type
  7394 ;;  ret             1   10[COMRAM] unsigned char 
  7395 ;; Return value:  Size  Location     Type
  7396 ;;                  1    wreg      unsigned char 
  7397 ;; Registers used:
  7398 ;;		wreg, fsr2l, fsr2h, status,2, status,0, prodl, prodh, cstack
  7399 ;; Tracked objects:
  7400 ;;		On entry : 0/0
  7401 ;;		On exit  : 0/0
  7402 ;;		Unchanged: 0/0
  7403 ;; Data sizes:     COMRAM   BANK0   BANK1   BANK2   BANK3   BANK4   BANK5   BANK6   BANK7   BANK8   BANK9  BANK10  BANK1
      +1  BANK12  BANK13  BANK14  BANK15
  7404 ;;      Params:         2       0       0       0       0       0       0       0       0       0       0       0       
      +0       0       0       0       0
  7405 ;;      Locals:         1       0       0       0       0       0       0       0       0       0       0       0       
      +0       0       0       0       0
  7406 ;;      Temps:          0       0       0       0       0       0       0       0       0       0       0       0       
      +0       0       0       0       0
  7407 ;;      Totals:         3       0       0       0       0       0       0       0       0       0       0       0       
      +0       0       0       0       0
  7408 ;;Total ram usage:        3 bytes
  7409 ;; Hardware stack levels used: 1
  7410 ;; Hardware stack levels required when called: 1
  7411 ;; This function calls:
  7412 ;;		i2_gpio_pin_write_logic
  7413 ;; This function is called by:
  7414 ;;		_Player_one_move
  7415 ;;		_Player_two_move
  7416 ;; This function uses a non-reentrant model
  7417 ;;
  7418                           
  7419                           	psect	text54
  7420   00243C                     __ptext54:
  7421                           	callstack 0
  7422   00243C                     i2_Seven_Segm_Display_Number:
  7423                           	callstack 19
  7424   00243C                     
  7425                           ;ECU_LAYER/Seven_Seg/Seven_Seg.c: 54:     if (((void*)0) == _Seven_Seg || (number < 0 ||
      +                           number > 9)) {
  7426   00243C  5009               	movf	i2Seven_Segm_Display_Number@_Seven_Seg^0,w,c
  7427   00243E  B4D8               	btfsc	status,2,c
  7428   002440  EF24  F012         	goto	i2u295_41
  7429   002444  EF26  F012         	goto	i2u295_40
  7430   002448                     i2u295_41:
  7431   002448  EF2E  F012         	goto	i2l3964
  7432   00244C                     i2u295_40:
  7433   00244C  0E09               	movlw	9
  7434   00244E  640A               	cpfsgt	i2Seven_Segm_Display_Number@number^0,c
  7435   002450  EF2C  F012         	goto	i2u296_41
  7436   002454  EF2E  F012         	goto	i2u296_40
  7437   002458                     i2u296_41:
  7438   002458  EF32  F012         	goto	i2l3966
  7439   00245C                     i2u296_40:
  7440   00245C                     i2l3964:
  7441                           
  7442                           ;ECU_LAYER/Seven_Seg/Seven_Seg.c: 55:         ret = (Std_ReturnType)0X00;
  7443   00245C  0E00               	movlw	0
  7444   00245E  6E0B               	movwf	i2Seven_Segm_Display_Number@ret^0,c
  7445                           
  7446                           ;ECU_LAYER/Seven_Seg/Seven_Seg.c: 56:     } else {
  7447   002460  EF59  F012         	goto	i2l3968
  7448   002464                     i2l3966:
  7449                           
  7450                           ;ECU_LAYER/Seven_Seg/Seven_Seg.c: 57:         ret = gpio_pin_write_logic(&_Seven_Seg->se
      +                          gment_pins[SEGMENT_PIN0], (number >> 0) & (uint8)1);
  7451   002464  C009  F001         	movff	i2Seven_Segm_Display_Number@_Seven_Seg,i2gpio_pin_write_logic@_pin_config
  7452   002468  500A               	movf	i2Seven_Segm_Display_Number@number^0,w,c
  7453   00246A  0B01               	andlw	1
  7454   00246C  6E02               	movwf	i2gpio_pin_write_logic@logic_^0,c
  7455   00246E  EC0E  F00D         	call	i2_gpio_pin_write_logic	;wreg free
  7456   002472  6E0B               	movwf	i2Seven_Segm_Display_Number@ret^0,c
  7457                           
  7458                           ;ECU_LAYER/Seven_Seg/Seven_Seg.c: 58:         ret = gpio_pin_write_logic(&_Seven_Seg->se
      +                          gment_pins[SEGMENT_PIN1], (number >> 1) & (uint8)1);
  7459   002474  2809               	incf	i2Seven_Segm_Display_Number@_Seven_Seg^0,w,c
  7460   002476  6E01               	movwf	i2gpio_pin_write_logic@_pin_config^0,c
  7461   002478  90D8               	bcf	status,0,c
  7462   00247A  300A               	rrcf	i2Seven_Segm_Display_Number@number^0,w,c
  7463   00247C  0B01               	andlw	1
  7464   00247E  6E02               	movwf	i2gpio_pin_write_logic@logic_^0,c
  7465   002480  EC0E  F00D         	call	i2_gpio_pin_write_logic	;wreg free
  7466   002484  6E0B               	movwf	i2Seven_Segm_Display_Number@ret^0,c
  7467                           
  7468                           ;ECU_LAYER/Seven_Seg/Seven_Seg.c: 59:         ret = gpio_pin_write_logic(&_Seven_Seg->se
      +                          gment_pins[SEGMENT_PIN2], (number >> 2) & (uint8)1);
  7469   002486  5009               	movf	i2Seven_Segm_Display_Number@_Seven_Seg^0,w,c
  7470   002488  0F02               	addlw	2
  7471   00248A  6E01               	movwf	i2gpio_pin_write_logic@_pin_config^0,c
  7472   00248C  400A               	rrncf	i2Seven_Segm_Display_Number@number^0,w,c
  7473   00248E  42E8               	rrncf	wreg,f,c
  7474   002490  0B3F               	andlw	63
  7475   002492  0B01               	andlw	1
  7476   002494  6E02               	movwf	i2gpio_pin_write_logic@logic_^0,c
  7477   002496  EC0E  F00D         	call	i2_gpio_pin_write_logic	;wreg free
  7478   00249A  6E0B               	movwf	i2Seven_Segm_Display_Number@ret^0,c
  7479                           
  7480                           ;ECU_LAYER/Seven_Seg/Seven_Seg.c: 60:         ret = gpio_pin_write_logic(&_Seven_Seg->se
      +                          gment_pins[SEGMENT_PIN3], (number >> 3) & (uint8)1);
  7481   00249C  5009               	movf	i2Seven_Segm_Display_Number@_Seven_Seg^0,w,c
  7482   00249E  0F03               	addlw	3
  7483   0024A0  6E01               	movwf	i2gpio_pin_write_logic@_pin_config^0,c
  7484   0024A2  380A               	swapf	i2Seven_Segm_Display_Number@number^0,w,c
  7485   0024A4  46E8               	rlncf	wreg,f,c
  7486   0024A6  0B1F               	andlw	31
  7487   0024A8  0B01               	andlw	1
  7488   0024AA  6E02               	movwf	i2gpio_pin_write_logic@logic_^0,c
  7489   0024AC  EC0E  F00D         	call	i2_gpio_pin_write_logic	;wreg free
  7490   0024B0  6E0B               	movwf	i2Seven_Segm_Display_Number@ret^0,c
  7491   0024B2                     i2l3968:
  7492                           
  7493                           ;ECU_LAYER/Seven_Seg/Seven_Seg.c: 63:     return ret;
  7494   0024B2  500B               	movf	i2Seven_Segm_Display_Number@ret^0,w,c
  7495   0024B4  0012               	return		;funcret
  7496   0024B6                     __end_ofi2_Seven_Segm_Display_Number:
  7497                           	callstack 0
  7498                           
  7499 ;; *************** function i2_gpio_pin_write_logic *****************
  7500 ;; Defined at:
  7501 ;;		line 55 in file "MCAL_Layer/GPIO/hal_gpio.c"
  7502 ;; Parameters:    Size  Location     Type
  7503 ;;  _pin_config     1    0[COMRAM] PTR const struct .
  7504 ;;		 -> Player2(6), Player1(6), seg2$segment_pins(4), seg2(5), 
  7505 ;;		 -> seg1$segment_pins(4), seg1(5), lcd$lcd_data(4), lcd(6), 
  7506 ;;		 -> Relay_off@pin_obj(1), Relay_on@pin_obj(1), Relay_initialize@pin_obj(1), led_turn_off@pin_obj(1), 
  7507 ;;		 -> led_turn_on@pin_obj(1), led_intialize@pin_obj(1), 
  7508 ;;  logic_          1    1[COMRAM] enum E3402
  7509 ;; Auto vars:     Size  Location     Type
  7510 ;;  ret             1    7[COMRAM] unsigned char 
  7511 ;; Return value:  Size  Location     Type
  7512 ;;                  1    wreg      unsigned char 
  7513 ;; Registers used:
  7514 ;;		wreg, fsr2l, fsr2h, status,2, status,0, prodl, prodh
  7515 ;; Tracked objects:
  7516 ;;		On entry : 0/0
  7517 ;;		On exit  : 0/0
  7518 ;;		Unchanged: 0/0
  7519 ;; Data sizes:     COMRAM   BANK0   BANK1   BANK2   BANK3   BANK4   BANK5   BANK6   BANK7   BANK8   BANK9  BANK10  BANK1
      +1  BANK12  BANK13  BANK14  BANK15
  7520 ;;      Params:         2       0       0       0       0       0       0       0       0       0       0       0       
      +0       0       0       0       0
  7521 ;;      Locals:         1       0       0       0       0       0       0       0       0       0       0       0       
      +0       0       0       0       0
  7522 ;;      Temps:          5       0       0       0       0       0       0       0       0       0       0       0       
      +0       0       0       0       0
  7523 ;;      Totals:         8       0       0       0       0       0       0       0       0       0       0       0       
      +0       0       0       0       0
  7524 ;;Total ram usage:        8 bytes
  7525 ;; Hardware stack levels used: 1
  7526 ;; This function calls:
  7527 ;;		Nothing
  7528 ;; This function is called by:
  7529 ;;		i2_lcd_4bit_send_command
  7530 ;;		i2_lcd_4bit_send_char_data
  7531 ;;		i2_lcd_4bits_send_enable
  7532 ;;		i2_lcd_4bits_command
  7533 ;;		i2_Seven_Segm_Display_Number
  7534 ;; This function uses a non-reentrant model
  7535 ;;
  7536                           
  7537                           	psect	text55
  7538   001A1C                     __ptext55:
  7539                           	callstack 0
  7540   001A1C                     i2_gpio_pin_write_logic:
  7541                           	callstack 16
  7542   001A1C                     
  7543                           ;MCAL_Layer/GPIO/hal_gpio.c: 56:     Std_ReturnType ret = (Std_ReturnType)0X01;
  7544   001A1C  0E01               	movlw	1
  7545   001A1E  6E08               	movwf	i2gpio_pin_write_logic@ret^0,c
  7546                           
  7547                           ;MCAL_Layer/GPIO/hal_gpio.c: 57:     if (((void*)0) == _pin_config || _pin_config->pin >
      +                           8 - 1) {
  7548   001A20  5001               	movf	i2gpio_pin_write_logic@_pin_config^0,w,c
  7549   001A22  B4D8               	btfsc	status,2,c
  7550   001A24  EF16  F00D         	goto	i2u224_41
  7551   001A28  EF18  F00D         	goto	i2u224_40
  7552   001A2C                     i2u224_41:
  7553   001A2C  EF28  F00D         	goto	i2l3352
  7554   001A30                     i2u224_40:
  7555   001A30  5001               	movf	i2gpio_pin_write_logic@_pin_config^0,w,c
  7556   001A32  6ED9               	movwf	fsr2l,c
  7557   001A34  6ADA               	clrf	fsr2h,c
  7558   001A36  30DF               	rrcf	223,w,c
  7559   001A38  32E8               	rrcf	wreg,f,c
  7560   001A3A  32E8               	rrcf	wreg,f,c
  7561   001A3C  0B07               	andlw	7
  7562   001A3E  6E03               	movwf	??i2_gpio_pin_write_logic^0,c
  7563   001A40  0E07               	movlw	7
  7564   001A42  6403               	cpfsgt	??i2_gpio_pin_write_logic^0,c
  7565   001A44  EF26  F00D         	goto	i2u225_41
  7566   001A48  EF28  F00D         	goto	i2u225_40
  7567   001A4C                     i2u225_41:
  7568   001A4C  EF7F  F00D         	goto	i2l3362
  7569   001A50                     i2u225_40:
  7570   001A50                     i2l3352:
  7571                           
  7572                           ;MCAL_Layer/GPIO/hal_gpio.c: 58:         ret = (Std_ReturnType)0X00;
  7573   001A50  0E00               	movlw	0
  7574   001A52  6E08               	movwf	i2gpio_pin_write_logic@ret^0,c
  7575                           
  7576                           ;MCAL_Layer/GPIO/hal_gpio.c: 59:     } else {
  7577   001A54  EF94  F00D         	goto	i2l3364
  7578   001A58                     i2l3354:
  7579                           
  7580                           ;MCAL_Layer/GPIO/hal_gpio.c: 63:                 (*lat_registers[_pin_config->port] |= (
      +                          (uint8)1 << _pin_config->pin));
  7581   001A58  5001               	movf	i2gpio_pin_write_logic@_pin_config^0,w,c
  7582   001A5A  6ED9               	movwf	fsr2l,c
  7583   001A5C  6ADA               	clrf	fsr2h,c
  7584   001A5E  30DF               	rrcf	223,w,c
  7585   001A60  32E8               	rrcf	wreg,f,c
  7586   001A62  32E8               	rrcf	wreg,f,c
  7587   001A64  0B07               	andlw	7
  7588   001A66  6E03               	movwf	??i2_gpio_pin_write_logic^0,c
  7589   001A68  0E01               	movlw	1
  7590   001A6A  6E04               	movwf	(??i2_gpio_pin_write_logic+1)^0,c
  7591   001A6C  2A03               	incf	??i2_gpio_pin_write_logic^0,f,c
  7592   001A6E  EF3B  F00D         	goto	i2u226_44
  7593   001A72                     i2u226_45:
  7594   001A72  90D8               	bcf	status,0,c
  7595   001A74  3604               	rlcf	(??i2_gpio_pin_write_logic+1)^0,f,c
  7596   001A76                     i2u226_44:
  7597   001A76  2E03               	decfsz	??i2_gpio_pin_write_logic^0,f,c
  7598   001A78  EF39  F00D         	goto	i2u226_45
  7599   001A7C  5001               	movf	i2gpio_pin_write_logic@_pin_config^0,w,c
  7600   001A7E  6ED9               	movwf	fsr2l,c
  7601   001A80  6ADA               	clrf	fsr2h,c
  7602   001A82  50DF               	movf	223,w,c
  7603   001A84  0B07               	andlw	7
  7604   001A86  0D02               	mullw	2
  7605   001A88  50F3               	movf	243,w,c
  7606   001A8A  0F8A               	addlw	low _lat_registers
  7607   001A8C  6ED9               	movwf	fsr2l,c
  7608   001A8E  6ADA               	clrf	fsr2h,c
  7609   001A90  CFDE F005          	movff	postinc2,??i2_gpio_pin_write_logic+2
  7610   001A94  CFDD F006          	movff	postdec2,??i2_gpio_pin_write_logic+3
  7611   001A98  C005  FFD9         	movff	??i2_gpio_pin_write_logic+2,fsr2l
  7612   001A9C  C006  FFDA         	movff	??i2_gpio_pin_write_logic+3,fsr2h
  7613   001AA0  5004               	movf	(??i2_gpio_pin_write_logic+1)^0,w,c
  7614   001AA2  12DF               	iorwf	indf2,f,c
  7615                           
  7616                           ;MCAL_Layer/GPIO/hal_gpio.c: 64:                 break;
  7617   001AA4  EF94  F00D         	goto	i2l3364
  7618   001AA8                     i2l3356:
  7619                           
  7620                           ;MCAL_Layer/GPIO/hal_gpio.c: 67:                 (*lat_registers[_pin_config->port] &= ~
      +                          ((uint8)1 << _pin_config->pin));
  7621   001AA8  5001               	movf	i2gpio_pin_write_logic@_pin_config^0,w,c
  7622   001AAA  6ED9               	movwf	fsr2l,c
  7623   001AAC  6ADA               	clrf	fsr2h,c
  7624   001AAE  30DF               	rrcf	223,w,c
  7625   001AB0  32E8               	rrcf	wreg,f,c
  7626   001AB2  32E8               	rrcf	wreg,f,c
  7627   001AB4  0B07               	andlw	7
  7628   001AB6  6E03               	movwf	??i2_gpio_pin_write_logic^0,c
  7629   001AB8  0E01               	movlw	1
  7630   001ABA  6E04               	movwf	(??i2_gpio_pin_write_logic+1)^0,c
  7631   001ABC  2A03               	incf	??i2_gpio_pin_write_logic^0,f,c
  7632   001ABE  EF63  F00D         	goto	i2u227_44
  7633   001AC2                     i2u227_45:
  7634   001AC2  90D8               	bcf	status,0,c
  7635   001AC4  3604               	rlcf	(??i2_gpio_pin_write_logic+1)^0,f,c
  7636   001AC6                     i2u227_44:
  7637   001AC6  2E03               	decfsz	??i2_gpio_pin_write_logic^0,f,c
  7638   001AC8  EF61  F00D         	goto	i2u227_45
  7639   001ACC  5004               	movf	(??i2_gpio_pin_write_logic+1)^0,w,c
  7640   001ACE  0AFF               	xorlw	255
  7641   001AD0  6E05               	movwf	(??i2_gpio_pin_write_logic+2)^0,c
  7642   001AD2  5001               	movf	i2gpio_pin_write_logic@_pin_config^0,w,c
  7643   001AD4  6ED9               	movwf	fsr2l,c
  7644   001AD6  6ADA               	clrf	fsr2h,c
  7645   001AD8  50DF               	movf	223,w,c
  7646   001ADA  0B07               	andlw	7
  7647   001ADC  0D02               	mullw	2
  7648   001ADE  50F3               	movf	243,w,c
  7649   001AE0  0F8A               	addlw	low _lat_registers
  7650   001AE2  6ED9               	movwf	fsr2l,c
  7651   001AE4  6ADA               	clrf	fsr2h,c
  7652   001AE6  CFDE F006          	movff	postinc2,??i2_gpio_pin_write_logic+3
  7653   001AEA  CFDD F007          	movff	postdec2,??i2_gpio_pin_write_logic+4
  7654   001AEE  C006  FFD9         	movff	??i2_gpio_pin_write_logic+3,fsr2l
  7655   001AF2  C007  FFDA         	movff	??i2_gpio_pin_write_logic+4,fsr2h
  7656   001AF6  5005               	movf	(??i2_gpio_pin_write_logic+2)^0,w,c
  7657   001AF8  16DF               	andwf	indf2,f,c
  7658                           
  7659                           ;MCAL_Layer/GPIO/hal_gpio.c: 68:                 break;
  7660   001AFA  EF94  F00D         	goto	i2l3364
  7661   001AFE                     i2l3362:
  7662   001AFE  5002               	movf	i2gpio_pin_write_logic@logic_^0,w,c
  7663   001B00  6E03               	movwf	??i2_gpio_pin_write_logic^0,c
  7664   001B02  6A04               	clrf	(??i2_gpio_pin_write_logic+1)^0,c
  7665                           
  7666                           ; Switch on 2 bytes has been partitioned into a top level switch of size 1, and 1 sub-sw
      +                          itches
  7667                           ; Switch size 1, requested type "simple"
  7668                           ; Number of cases is 1, Range of values is 0 to 0
  7669                           ; switch strategies available:
  7670                           ; Name         Instructions Cycles
  7671                           ; simple_byte            4     3 (average)
  7672                           ;	Chosen strategy is simple_byte
  7673   001B04  5004               	movf	(??i2_gpio_pin_write_logic+1)^0,w,c
  7674   001B06  0A00               	xorlw	0	; case 0
  7675   001B08  B4D8               	btfsc	status,2,c
  7676   001B0A  EF89  F00D         	goto	i2l6526
  7677   001B0E  EF28  F00D         	goto	i2l3352
  7678   001B12                     i2l6526:
  7679                           
  7680                           ; Switch size 1, requested type "simple"
  7681                           ; Number of cases is 2, Range of values is 0 to 1
  7682                           ; switch strategies available:
  7683                           ; Name         Instructions Cycles
  7684                           ; simple_byte            7     4 (average)
  7685                           ;	Chosen strategy is simple_byte
  7686   001B12  5003               	movf	??i2_gpio_pin_write_logic^0,w,c
  7687   001B14  0A00               	xorlw	0	; case 0
  7688   001B16  B4D8               	btfsc	status,2,c
  7689   001B18  EF54  F00D         	goto	i2l3356
  7690   001B1C  0A01               	xorlw	1	; case 1
  7691   001B1E  B4D8               	btfsc	status,2,c
  7692   001B20  EF2C  F00D         	goto	i2l3354
  7693   001B24  EF28  F00D         	goto	i2l3352
  7694   001B28                     i2l3364:
  7695                           
  7696                           ;MCAL_Layer/GPIO/hal_gpio.c: 77:     return ret;
  7697   001B28  5008               	movf	i2gpio_pin_write_logic@ret^0,w,c
  7698   001B2A  0012               	return		;funcret
  7699   001B2C                     __end_ofi2_gpio_pin_write_logic:
  7700                           	callstack 0
  7701                           
  7702                           	psect	text56
  7703   000000                     __ptext56:
  7704                           	callstack 0
  7705   000000                     
  7706                           	psect	rparam
  7707   000000                     
  7708                           	psect	temp
  7709   000060                     btemp:
  7710                           	callstack 0
  7711   000060                     	ds	1
  7712   000000                     int$flags	set	btemp
  7713   000000                     wtemp8	set	btemp+1
  7714   000000                     ttemp5	set	btemp+1
  7715   000000                     ttemp6	set	btemp+4
  7716   000000                     ttemp7	set	btemp+8
  7717                           
  7718                           	psect	config
  7719                           
  7720                           ; Padding undefined space
  7721   300000                     	org	3145728
  7722   300000  FF                 	db	255
  7723                           
  7724                           ;Config register CONFIG1H @ 0x300001
  7725                           ;	Oscillator Selection bits
  7726                           ;	OSC = HS, HS oscillator
  7727                           ;	Fail-Safe Clock Monitor Enable bit
  7728                           ;	FCMEN = OFF, Fail-Safe Clock Monitor disabled
  7729                           ;	Internal/External Oscillator Switchover bit
  7730                           ;	IESO = OFF, Oscillator Switchover mode disabled
  7731   300001                     	org	3145729
  7732   300001  02                 	db	2
  7733                           
  7734                           ;Config register CONFIG2L @ 0x300002
  7735                           ;	Power-up Timer Enable bit
  7736                           ;	PWRT = OFF, PWRT disabled
  7737                           ;	Brown-out Reset Enable bits
  7738                           ;	BOREN = OFF, Brown-out Reset disabled in hardware and software
  7739                           ;	Brown Out Reset Voltage bits
  7740                           ;	BORV = 1, 
  7741   300002                     	org	3145730
  7742   300002  09                 	db	9
  7743                           
  7744                           ;Config register CONFIG2H @ 0x300003
  7745                           ;	Watchdog Timer Enable bit
  7746                           ;	WDT = OFF, WDT disabled (control is placed on the SWDTEN bit)
  7747                           ;	Watchdog Timer Postscale Select bits
  7748                           ;	WDTPS = 32768, 1:32768
  7749   300003                     	org	3145731
  7750   300003  1E                 	db	30
  7751                           
  7752                           ; Padding undefined space
  7753   300004                     	org	3145732
  7754   300004  FF                 	db	255
  7755                           
  7756                           ;Config register CONFIG3H @ 0x300005
  7757                           ;	CCP2 MUX bit
  7758                           ;	CCP2MX = PORTC, CCP2 input/output is multiplexed with RC1
  7759                           ;	PORTB A/D Enable bit
  7760                           ;	PBADEN = OFF, PORTB<4:0> pins are configured as digital I/O on Reset
  7761                           ;	Low-Power Timer1 Oscillator Enable bit
  7762                           ;	LPT1OSC = OFF, Timer1 configured for higher power operation
  7763                           ;	MCLR Pin Enable bit
  7764                           ;	MCLRE = ON, MCLR pin enabled; RE3 input pin disabled
  7765   300005                     	org	3145733
  7766   300005  81                 	db	129
  7767                           
  7768                           ;Config register CONFIG4L @ 0x300006
  7769                           ;	Stack Full/Underflow Reset Enable bit
  7770                           ;	STVREN = ON, Stack full/underflow will cause Reset
  7771                           ;	Single-Supply ICSP Enable bit
  7772                           ;	LVP = OFF, Single-Supply ICSP disabled
  7773                           ;	Extended Instruction Set Enable bit
  7774                           ;	XINST = OFF, Instruction set extension and Indexed Addressing mode disabled (Legacy mo
      +                          de)
  7775                           ;	Background Debugger Enable bit
  7776                           ;	DEBUG = 0x1, unprogrammed default
  7777   300006                     	org	3145734
  7778   300006  81                 	db	129
  7779                           
  7780                           ; Padding undefined space
  7781   300007                     	org	3145735
  7782   300007  FF                 	db	255
  7783                           
  7784                           ;Config register CONFIG5L @ 0x300008
  7785                           ;	Code Protection bit
  7786                           ;	CP0 = OFF, Block 0 (000800-003FFFh) not code-protected
  7787                           ;	Code Protection bit
  7788                           ;	CP1 = OFF, Block 1 (004000-007FFFh) not code-protected
  7789                           ;	Code Protection bit
  7790                           ;	CP2 = OFF, Block 2 (008000-00BFFFh) not code-protected
  7791                           ;	Code Protection bit
  7792                           ;	CP3 = OFF, Block 3 (00C000-00FFFFh) not code-protected
  7793   300008                     	org	3145736
  7794   300008  0F                 	db	15
  7795                           
  7796                           ;Config register CONFIG5H @ 0x300009
  7797                           ;	Boot Block Code Protection bit
  7798                           ;	CPB = OFF, Boot block (000000-0007FFh) not code-protected
  7799                           ;	Data EEPROM Code Protection bit
  7800                           ;	CPD = OFF, Data EEPROM not code-protected
  7801   300009                     	org	3145737
  7802   300009  C0                 	db	192
  7803                           
  7804                           ;Config register CONFIG6L @ 0x30000A
  7805                           ;	Write Protection bit
  7806                           ;	WRT0 = OFF, Block 0 (000800-003FFFh) not write-protected
  7807                           ;	Write Protection bit
  7808                           ;	WRT1 = OFF, Block 1 (004000-007FFFh) not write-protected
  7809                           ;	Write Protection bit
  7810                           ;	WRT2 = OFF, Block 2 (008000-00BFFFh) not write-protected
  7811                           ;	Write Protection bit
  7812                           ;	WRT3 = OFF, Block 3 (00C000-00FFFFh) not write-protected
  7813   30000A                     	org	3145738
  7814   30000A  0F                 	db	15
  7815                           
  7816                           ;Config register CONFIG6H @ 0x30000B
  7817                           ;	Configuration Register Write Protection bit
  7818                           ;	WRTC = OFF, Configuration registers (300000-3000FFh) not write-protected
  7819                           ;	Boot Block Write Protection bit
  7820                           ;	WRTB = OFF, Boot Block (000000-0007FFh) not write-protected
  7821                           ;	Data EEPROM Write Protection bit
  7822                           ;	WRTD = OFF, Data EEPROM not write-protected
  7823   30000B                     	org	3145739
  7824   30000B  E0                 	db	224
  7825                           
  7826                           ;Config register CONFIG7L @ 0x30000C
  7827                           ;	Table Read Protection bit
  7828                           ;	EBTR0 = OFF, Block 0 (000800-003FFFh) not protected from table reads executed in other
      +                           blocks
  7829                           ;	Table Read Protection bit
  7830                           ;	EBTR1 = OFF, Block 1 (004000-007FFFh) not protected from table reads executed in other
      +                           blocks
  7831                           ;	Table Read Protection bit
  7832                           ;	EBTR2 = OFF, Block 2 (008000-00BFFFh) not protected from table reads executed in other
      +                           blocks
  7833                           ;	Table Read Protection bit
  7834                           ;	EBTR3 = OFF, Block 3 (00C000-00FFFFh) not protected from table reads executed in other
      +                           blocks
  7835   30000C                     	org	3145740
  7836   30000C  0F                 	db	15
  7837                           
  7838                           ;Config register CONFIG7H @ 0x30000D
  7839                           ;	Boot Block Table Read Protection bit
  7840                           ;	EBTRB = OFF, Boot Block (000000-0007FFh) not protected from table reads executed in ot
      +                          her blocks
  7841   30000D                     	org	3145741
  7842   30000D  40                 	db	64
  7843                           tosu	equ	0xFFF
  7844                           tosh	equ	0xFFE
  7845                           tosl	equ	0xFFD
  7846                           stkptr	equ	0xFFC
  7847                           pclatu	equ	0xFFB
  7848                           pclath	equ	0xFFA
  7849                           pcl	equ	0xFF9
  7850                           tblptru	equ	0xFF8
  7851                           tblptrh	equ	0xFF7
  7852                           tblptrl	equ	0xFF6
  7853                           tablat	equ	0xFF5
  7854                           prodh	equ	0xFF4
  7855                           prodl	equ	0xFF3
  7856                           indf0	equ	0xFEF
  7857                           postinc0	equ	0xFEE
  7858                           postdec0	equ	0xFED
  7859                           preinc0	equ	0xFEC
  7860                           plusw0	equ	0xFEB
  7861                           fsr0h	equ	0xFEA
  7862                           fsr0l	equ	0xFE9
  7863                           wreg	equ	0xFE8
  7864                           indf1	equ	0xFE7
  7865                           postinc1	equ	0xFE6
  7866                           postdec1	equ	0xFE5
  7867                           preinc1	equ	0xFE4
  7868                           plusw1	equ	0xFE3
  7869                           fsr1h	equ	0xFE2
  7870                           fsr1l	equ	0xFE1
  7871                           bsr	equ	0xFE0
  7872                           indf2	equ	0xFDF
  7873                           postinc2	equ	0xFDE
  7874                           postdec2	equ	0xFDD
  7875                           preinc2	equ	0xFDC
  7876                           plusw2	equ	0xFDB
  7877                           fsr2h	equ	0xFDA
  7878                           fsr2l	equ	0xFD9
  7879                           status	equ	0xFD8

Data Sizes:
    Strings     95
    Constant    16
    Data        67
    BSS         72
    Persistent  0
    Stack       0

Auto Spaces:
    Space          Size  Autos    Used
    COMRAM          126     45      95
    BANK0           128     31     120
    BANK1           256     22      22
    BANK2           256      0       0
    BANK3           256      0       0
    BANK4           256      0       0
    BANK5           256      0       0
    BANK6           256      0       0
    BANK7           256      0       0
    BANK8           256      0       0
    BANK9           256      0       0
    BANK10          256      0       0
    BANK11          256      0       0
    BANK12          256      0       0
    BANK13          256      0       0
    BANK14          256      0       0
    BANK15          128      0       0

Pointer List with Targets:

    f$.$buffer	PTR unsigned char  size(2) Largest target is 0

    f$.$source	PTR const unsigned char  size(2) Largest target is 0

    fputc@fp	PTR struct _IO_FILE size(1) Largest target is 12
		 -> sprintf@f(BANK0[12]), 

    fputc@fp$.$buffer	PTR unsigned char  size(2) Largest target is 0

    fputc@fp$.$source	PTR const unsigned char  size(2) Largest target is 0

    gpio_pin_direction_intialize@_pin_config	PTR const struct . size(1) Largest target is 6
		 -> lcd(COMRAM[6]), lcd$lcd_data(COMRAM[4]), led_intialize@pin_obj(COMRAM[1]), Player1(BANK0[6]), 
		 -> Player2(BANK0[6]), Relay_initialize@pin_obj(COMRAM[1]), seg1(BANK0[5]), seg1$segment_pins(BANK0[4]), 
		 -> seg2(BANK0[5]), seg2$segment_pins(BANK0[4]), 

    gpio_pin_initialize@_pin_config	PTR const struct . size(1) Largest target is 6
		 -> lcd(COMRAM[6]), lcd$lcd_data(COMRAM[4]), led_intialize@pin_obj(COMRAM[1]), Player1(BANK0[6]), 
		 -> Player2(BANK0[6]), Relay_initialize@pin_obj(COMRAM[1]), seg1(BANK0[5]), seg1$segment_pins(BANK0[4]), 
		 -> seg2(BANK0[5]), seg2$segment_pins(BANK0[4]), 

    gpio_pin_write_logic@_pin_config	PTR const struct . size(1) Largest target is 6
		 -> lcd(COMRAM[6]), lcd$lcd_data(COMRAM[4]), led_intialize@pin_obj(COMRAM[1]), led_turn_off@pin_obj(COMRAM[1]), 
		 -> led_turn_on@pin_obj(COMRAM[1]), Player1(BANK0[6]), Player2(BANK0[6]), Relay_initialize@pin_obj(COMRAM[1]), 
		 -> Relay_off@pin_obj(COMRAM[1]), Relay_on@pin_obj(COMRAM[1]), seg1(BANK0[5]), seg1$segment_pins(BANK0[4]), 
		 -> seg2(BANK0[5]), seg2$segment_pins(BANK0[4]), 

    INT0_Interrupt_Handler	PTR FTN()void  size(2) Largest target is 1
		 -> Player_one_move(), Player_two_move(), NULL(), 

    INT0_Set_Interrupt_Handler@Interrupt_Handler	PTR FTN()void  size(2) Largest target is 1
		 -> Player_one_move(), Player_two_move(), 

    INT1_Interrupt_Handler	PTR FTN()void  size(2) Largest target is 1
		 -> Player_one_move(), Player_two_move(), NULL(), 

    INT1_Set_Interrupt_Handler@Interrupt_Handler	PTR FTN()void  size(2) Largest target is 1
		 -> Player_one_move(), Player_two_move(), 

    INT2_Interrupt_Handler	PTR FTN()void  size(2) Largest target is 1
		 -> Player_one_move(), Player_two_move(), NULL(), 

    INT2_Set_Interrupt_Handler@Interrupt_Handler	PTR FTN()void  size(2) Largest target is 1
		 -> Player_one_move(), Player_two_move(), 

    Interrupt_INTx_Clear_Flag@obj$External_CallBack	PTR FTN()void  size(2) Largest target is 1
		 -> Player_one_move(), Player_two_move(), 

    Interrupt_INTx_Disable@obj	PTR const struct . size(1) Largest target is 6
		 -> Player1(BANK0[6]), Player2(BANK0[6]), 

    Interrupt_INTx_Disable@obj$External_CallBack	PTR FTN()void  size(2) Largest target is 1
		 -> Player_one_move(), Player_two_move(), 

    Interrupt_INTx_Edge_Init@obj	PTR const struct . size(1) Largest target is 6
		 -> Player1(BANK0[6]), Player2(BANK0[6]), 

    Interrupt_INTx_Edge_Init@obj$External_CallBack	PTR FTN()void  size(2) Largest target is 1
		 -> Player_one_move(), Player_two_move(), 

    Interrupt_INTx_Enable@obj	PTR const struct . size(1) Largest target is 6
		 -> Player1(BANK0[6]), Player2(BANK0[6]), 

    Interrupt_INTx_Enable@obj$External_CallBack	PTR FTN()void  size(2) Largest target is 1
		 -> Player_one_move(), Player_two_move(), 

    Interrupt_INTx_Init@obj	PTR const struct . size(1) Largest target is 6
		 -> Player1(BANK0[6]), Player2(BANK0[6]), 

    Interrupt_INTx_Pin_Init@obj	PTR const struct . size(1) Largest target is 6
		 -> Player1(BANK0[6]), Player2(BANK0[6]), 

    Interrupt_INTx_Pin_Init@obj$External_CallBack	PTR FTN()void  size(2) Largest target is 1
		 -> Player_one_move(), Player_two_move(), 

    Interrupt_RBx_Init@obj$External_CallBack_High	PTR FTN()void  size(2) Largest target is 0

    Interrupt_RBx_Init@obj$External_CallBack_Low	PTR FTN()void  size(2) Largest target is 0

    Interrupt_Set_Interrupt_Handler@obj	PTR const struct . size(1) Largest target is 6
		 -> Player1(BANK0[6]), Player2(BANK0[6]), 

    Interrupt_Set_Interrupt_Handler@obj$External_CallBack	PTR FTN()void  size(2) Largest target is 1
		 -> Player_one_move(), Player_two_move(), 

    lat_registers	PTR volatile unsigned char [5] size(2) Largest target is 1
		 -> LATA(BITBIGSFRll[1]), LATB(BITBIGSFRlh[1]), LATC(BITBIGSFRlh[1]), LATD(BITBIGSFRlh[1]), 
		 -> LATE(BITBIGSFRlh[1]), 

    lcd_4bit_initailize@Lcd	PTR const struct . size(1) Largest target is 6
		 -> lcd(COMRAM[6]), 

    lcd_4bit_send_char_data@Lcd	PTR const struct . size(1) Largest target is 6
		 -> lcd(COMRAM[6]), 

    lcd_4bit_send_char_data_pos@Lcd	PTR const struct . size(1) Largest target is 6
		 -> lcd(COMRAM[6]), 

    lcd_4bit_send_command@Lcd	PTR const struct . size(1) Largest target is 6
		 -> lcd(COMRAM[6]), 

    lcd_4bit_send_string@Lcd	PTR const struct . size(1) Largest target is 6
		 -> lcd(COMRAM[6]), 

    lcd_4bit_send_string@str	PTR unsigned char  size(2) Largest target is 21
		 -> start_message@message(BANK1[20]), STR_10(CODE[21]), STR_11(CODE[17]), STR_5(CODE[17]), 
		 -> STR_6(CODE[19]), STR_7(CODE[17]), STR_8(CODE[21]), STR_9(CODE[17]), 

    lcd_4bit_send_string_pos@Lcd	PTR const struct . size(1) Largest target is 6
		 -> lcd(COMRAM[6]), 

    lcd_4bit_send_string_pos@str	PTR unsigned char  size(2) Largest target is 21
		 -> start_message@message(BANK1[20]), STR_10(CODE[21]), STR_11(CODE[17]), STR_5(CODE[17]), 
		 -> STR_6(CODE[19]), STR_7(CODE[17]), STR_8(CODE[21]), STR_9(CODE[17]), 

    lcd_4bit_set_cursor@Lcd	PTR const struct . size(1) Largest target is 6
		 -> lcd(COMRAM[6]), 

    lcd_4bits_command@Lcd	PTR const struct . size(1) Largest target is 6
		 -> lcd(COMRAM[6]), 

    lcd_4bits_send_enable@Lcd	PTR const struct . size(1) Largest target is 6
		 -> lcd(COMRAM[6]), 

    Player1$External_CallBack	PTR FTN()void  size(2) Largest target is 1
		 -> Player_one_move(), Player_two_move(), 

    Player2$External_CallBack	PTR FTN()void  size(2) Largest target is 1
		 -> Player_one_move(), Player_two_move(), 

    port_registers	PTR volatile unsigned char [5] size(2) Largest target is 1
		 -> PORTA(BITBIGSFRll[1]), PORTB(BITBIGSFRll[1]), PORTC(BITBIGSFRll[1]), PORTD(BITBIGSFRll[1]), 
		 -> PORTE(BITBIGSFRll[1]), 

    RB4_Interrupt_Handler_High	PTR FTN()void  size(2) Largest target is 1
		 -> NULL(), 

    RB4_Interrupt_Handler_Low	PTR FTN()void  size(2) Largest target is 1
		 -> NULL(), 

    RB5_Interrupt_Handler_High	PTR FTN()void  size(2) Largest target is 1
		 -> NULL(), 

    RB5_Interrupt_Handler_Low	PTR FTN()void  size(2) Largest target is 1
		 -> NULL(), 

    RB6_Interrupt_Handler_High	PTR FTN()void  size(2) Largest target is 1
		 -> NULL(), 

    RB6_Interrupt_Handler_Low	PTR FTN()void  size(2) Largest target is 1
		 -> NULL(), 

    RB7_Interrupt_Handler_High	PTR FTN()void  size(2) Largest target is 1
		 -> NULL(), 

    RB7_Interrupt_Handler_Low	PTR FTN()void  size(2) Largest target is 1
		 -> NULL(), 

    S2004$buffer	PTR unsigned char  size(2) Largest target is 0

    S2004$source	PTR const unsigned char  size(2) Largest target is 0

    S821$External_CallBack	PTR FTN()void  size(2) Largest target is 1
		 -> Player_one_move(), Player_two_move(), 

    S854$External_CallBack_High	PTR FTN()void  size(2) Largest target is 0

    S854$External_CallBack_Low	PTR FTN()void  size(2) Largest target is 0

    Seven_Segm_Display_Number@_Seven_Seg	PTR struct . size(1) Largest target is 5
		 -> seg1(BANK0[5]), seg2(BANK0[5]), 

    Seven_Segm_initailize@_Seven_Seg	PTR struct . size(1) Largest target is 5
		 -> seg1(BANK0[5]), seg2(BANK0[5]), 

    sp__memset	PTR void  size(2) Largest target is 0

    sprintf@ap	PTR void [1] size(1) Largest target is 2
		 -> ?_sprintf(BANK0[2]), 

    sprintf@fmt	PTR const unsigned char  size(1) Largest target is 18
		 -> STR_1(CODE[3]), STR_2(CODE[3]), STR_3(CODE[3]), STR_4(CODE[18]), 

    sprintf@s	PTR unsigned char  size(2) Largest target is 20
		 -> start_message@message(BANK1[20]), 

    tris_registers	PTR volatile unsigned char [5] size(2) Largest target is 1
		 -> TRISA(BITBIGSFRll[1]), TRISB(BITBIGSFRhllll[1]), TRISC(BITBIGSFRhllll[1]), TRISD(BITBIGSFRhllll[1]), 
		 -> TRISE(BITBIGSFRhllll[1]), 

    vfpfcnvrt@ap	PTR PTR void  size(1) Largest target is 1
		 -> sprintf@ap(BANK0[1]), 

    vfpfcnvrt@cp	PTR unsigned char  size(1) Largest target is 18
		 -> STR_1(CODE[3]), STR_2(CODE[3]), STR_3(CODE[3]), STR_4(CODE[18]), 

    vfpfcnvrt@fmt	PTR PTR unsigned char  size(1) Largest target is 1
		 -> vfprintf@cfmt(BANK0[1]), 

    vfpfcnvrt@fp	PTR struct _IO_FILE size(1) Largest target is 12
		 -> sprintf@f(BANK0[12]), 

    vfprintf@ap	PTR PTR void  size(1) Largest target is 1
		 -> sprintf@ap(BANK0[1]), 

    vfprintf@cfmt	PTR unsigned char  size(1) Largest target is 18
		 -> STR_1(CODE[3]), STR_2(CODE[3]), STR_3(CODE[3]), STR_4(CODE[18]), 

    vfprintf@fmt	PTR const unsigned char  size(1) Largest target is 18
		 -> STR_1(CODE[3]), STR_2(CODE[3]), STR_3(CODE[3]), STR_4(CODE[18]), 

    vfprintf@fp	PTR struct _IO_FILE size(1) Largest target is 12
		 -> sprintf@f(BANK0[12]), 


Critical Paths under _main in COMRAM

    _ball_move->_lcd_4bit_send_command
    _ball_move->_rand
    _rand->___lmul
    _Application_initialize->_Interrupt_INTx_Init
    _Application_initialize->_lcd_4bit_send_command
    _vfprintf->_vfpfcnvrt
    _vfpfcnvrt->_abs
    _abs->___awmod
    _lcd_4bit_send_string->_lcd_4bit_send_char_data
    _lcd_4bit_send_char_data_pos->_lcd_4bit_send_char_data
    _lcd_4bit_set_cursor->_lcd_4bit_send_command
    _lcd_4bit_send_char_data->_lcd_4bits_command
    _lcd_4bit_initailize->_lcd_4bit_send_command
    _lcd_4bit_send_command->_lcd_4bits_command
    _lcd_4bits_send_enable->_gpio_pin_write_logic
    _lcd_4bits_command->_gpio_pin_write_logic
    _Seven_Segm_initailize->_gpio_pin_initialize
    _Seven_Segm_Display_Number->_gpio_pin_write_logic
    _Interrupt_INTx_Init->_Interrupt_INTx_Pin_Init
    _Interrupt_Set_Interrupt_Handler->_INT0_Set_Interrupt_Handler
    _Interrupt_Set_Interrupt_Handler->_INT1_Set_Interrupt_Handler
    _Interrupt_Set_Interrupt_Handler->_INT2_Set_Interrupt_Handler
    _Interrupt_INTx_Pin_Init->_gpio_pin_initialize
    _gpio_pin_initialize->_gpio_pin_write_logic

Critical Paths under _Interrupt_Manager_High in COMRAM

    _Player_two_move->i2_lcd_4bit_send_char_data_pos
    _Player_one_move->i2_lcd_4bit_send_char_data_pos
    i2_lcd_4bit_send_char_data_pos->i2_lcd_4bit_set_cursor
    i2_lcd_4bit_set_cursor->i2_lcd_4bit_send_command
    i2_lcd_4bit_send_command->i2_lcd_4bits_command
    i2_lcd_4bit_send_char_data->i2_lcd_4bits_command
    i2_lcd_4bits_send_enable->i2_gpio_pin_write_logic
    i2_lcd_4bits_command->i2_gpio_pin_write_logic
    i2_Seven_Segm_Display_Number->i2_gpio_pin_write_logic

Critical Paths under _main in BANK0

    _ball_move->_lcd_4bit_send_string_pos
    _Application_initialize->_start_message
    _start_message->_sprintf
    _sprintf->_vfprintf
    _vfprintf->_vfpfcnvrt
    _lcd_4bit_send_string_pos->_lcd_4bit_set_cursor
    _lcd_4bit_send_char_data_pos->_lcd_4bit_set_cursor
    _ecu_layer_initialize->_lcd_4bit_initailize

Critical Paths under _Interrupt_Manager_High in BANK0

    None.

Critical Paths under _main in BANK1

    _Application_initialize->_start_message

Critical Paths under _Interrupt_Manager_High in BANK1

    None.

Critical Paths under _main in BANK2

    None.

Critical Paths under _Interrupt_Manager_High in BANK2

    None.

Critical Paths under _main in BANK3

    None.

Critical Paths under _Interrupt_Manager_High in BANK3

    None.

Critical Paths under _main in BANK4

    None.

Critical Paths under _Interrupt_Manager_High in BANK4

    None.

Critical Paths under _main in BANK5

    None.

Critical Paths under _Interrupt_Manager_High in BANK5

    None.

Critical Paths under _main in BANK6

    None.

Critical Paths under _Interrupt_Manager_High in BANK6

    None.

Critical Paths under _main in BANK7

    None.

Critical Paths under _Interrupt_Manager_High in BANK7

    None.

Critical Paths under _main in BANK8

    None.

Critical Paths under _Interrupt_Manager_High in BANK8

    None.

Critical Paths under _main in BANK9

    None.

Critical Paths under _Interrupt_Manager_High in BANK9

    None.

Critical Paths under _main in BANK10

    None.

Critical Paths under _Interrupt_Manager_High in BANK10

    None.

Critical Paths under _main in BANK11

    None.

Critical Paths under _Interrupt_Manager_High in BANK11

    None.

Critical Paths under _main in BANK12

    None.

Critical Paths under _Interrupt_Manager_High in BANK12

    None.

Critical Paths under _main in BANK13

    None.

Critical Paths under _Interrupt_Manager_High in BANK13

    None.

Critical Paths under _main in BANK14

    None.

Critical Paths under _Interrupt_Manager_High in BANK14

    None.

Critical Paths under _main in BANK15

    None.

Critical Paths under _Interrupt_Manager_High in BANK15

    None.

Call Graph Tables:

 ---------------------------------------------------------------------------------
 (Depth) Function   	        Calls       Base Space   Used Autos Params    Refs
 ---------------------------------------------------------------------------------
 (0) _main                                                 0     0      0  295417
             _Application_initialize
                          _ball_move
 ---------------------------------------------------------------------------------
 (1) _ball_move                                            2     2      0  116776
                                             12 BANK0      2     2      0
        _lcd_4bit_send_char_data_pos
              _lcd_4bit_send_command
           _lcd_4bit_send_string_pos
                               _rand
 ---------------------------------------------------------------------------------
 (2) _rand                                                 6     4      2     370
                                             43 COMRAM     2     0      2
                                              0 BANK0      4     4      0
                             ___lmul
 ---------------------------------------------------------------------------------
 (3) ___lmul                                              12     4      8     370
                                             31 COMRAM    12     4      8
 ---------------------------------------------------------------------------------
 (1) _Application_initialize                               0     0      0  178641
                _Interrupt_INTx_Init
          _Seven_Segm_Display_Number
               _ecu_layer_initialize
        _lcd_4bit_send_char_data_pos
              _lcd_4bit_send_command
                      _start_message
 ---------------------------------------------------------------------------------
 (2) _start_message                                       24    24      0   52002
                                             29 BANK0      2     2      0
                                              0 BANK1     22    22      0
           _lcd_4bit_send_string_pos
                            _sprintf
 ---------------------------------------------------------------------------------
 (3) _sprintf                                             20    15      5    4897
                                             11 BANK0     18    13      5
                           _vfprintf
 ---------------------------------------------------------------------------------
 (4) _vfprintf                                             4     1      3    3871
                                              7 BANK0      4     1      3
                          _vfpfcnvrt
 ---------------------------------------------------------------------------------
 (5) _vfpfcnvrt                                           11     8      3    3410
                                             41 COMRAM     4     1      3
                                              0 BANK0      7     7      0
                            ___awdiv
                            ___awmod
                                _abs
                              _fputc
 ---------------------------------------------------------------------------------
 (6) _fputc                                                8     5      3     957
                                             31 COMRAM     8     5      3
                              _putch
 ---------------------------------------------------------------------------------
 (7) _putch                                                1     1      0       0
 ---------------------------------------------------------------------------------
 (6) _abs                                                  4     2      2     183
                                             37 COMRAM     4     2      2
                            ___awmod (ARG)
 ---------------------------------------------------------------------------------
 (6) ___awmod                                              6     2      4     613
                                             31 COMRAM     6     2      4
 ---------------------------------------------------------------------------------
 (6) ___awdiv                                              8     4      4     625
                                             31 COMRAM     8     4      4
 ---------------------------------------------------------------------------------
 (2) _lcd_4bit_send_string_pos                             6     1      5   46926
                                              6 BANK0      6     1      5
               _lcd_4bit_send_string
                _lcd_4bit_set_cursor
 ---------------------------------------------------------------------------------
 (3) _lcd_4bit_send_string                                 4     1      3   20208
                                              0 BANK0      4     1      3
            _lcd_4bit_send_char_data
 ---------------------------------------------------------------------------------
 (2) _lcd_4bit_send_char_data_pos                          5     1      4   46739
                                              6 BANK0      5     1      4
            _lcd_4bit_send_char_data
                _lcd_4bit_set_cursor
 ---------------------------------------------------------------------------------
 (3) _lcd_4bit_set_cursor                                  6     3      3   23609
                                              0 BANK0      6     3      3
              _lcd_4bit_send_command
 ---------------------------------------------------------------------------------
 (4) _lcd_4bit_send_char_data                              3     1      2   19861
                                             42 COMRAM     3     1      2
               _gpio_pin_write_logic
                  _lcd_4bits_command
              _lcd_4bits_send_enable
 ---------------------------------------------------------------------------------
 (2) _ecu_layer_initialize                                 1     1      0   39974
              _Seven_Segm_initailize
                _lcd_4bit_initailize
 ---------------------------------------------------------------------------------
 (3) _lcd_4bit_initailize                                  4     3      1   31492
                                              0 BANK0      4     3      1
                _gpio_pin_initialize
              _lcd_4bit_send_command
 ---------------------------------------------------------------------------------
 (4) _lcd_4bit_send_command                                3     1      2   22741
                                             42 COMRAM     3     1      2
               _gpio_pin_write_logic
                  _lcd_4bits_command
              _lcd_4bits_send_enable
 ---------------------------------------------------------------------------------
 (5) _lcd_4bits_send_enable                                2     1      1    6333
                                             39 COMRAM     2     1      1
               _gpio_pin_write_logic
 ---------------------------------------------------------------------------------
 (5) _lcd_4bits_command                                    3     1      2    6851
                                             39 COMRAM     3     1      2
               _gpio_pin_write_logic
 ---------------------------------------------------------------------------------
 (3) _Seven_Segm_initailize                                2     1      1    8470
                                             42 COMRAM     2     1      1
                _gpio_pin_initialize
 ---------------------------------------------------------------------------------
 (2) _Seven_Segm_Display_Number                            3     1      2    6776
                                             39 COMRAM     3     1      2
               _gpio_pin_write_logic
 ---------------------------------------------------------------------------------
 (2) _Interrupt_INTx_Init                                  2     1      1   10409
                                             44 COMRAM     1     0      1
                                              0 BANK0      1     1      0
             _Interrupt_INTx_Disable
           _Interrupt_INTx_Edge_Init
              _Interrupt_INTx_Enable
            _Interrupt_INTx_Pin_Init
    _Interrupt_Set_Interrupt_Handler
 ---------------------------------------------------------------------------------
 (3) _Interrupt_Set_Interrupt_Handler                      4     3      1     861
                                             34 COMRAM     4     3      1
         _INT0_Set_Interrupt_Handler
         _INT1_Set_Interrupt_Handler
         _INT2_Set_Interrupt_Handler
 ---------------------------------------------------------------------------------
 (4) _INT2_Set_Interrupt_Handler                           3     1      2     189
                                             31 COMRAM     3     1      2
 ---------------------------------------------------------------------------------
 (4) _INT1_Set_Interrupt_Handler                           3     1      2     189
                                             31 COMRAM     3     1      2
 ---------------------------------------------------------------------------------
 (4) _INT0_Set_Interrupt_Handler                           3     1      2     189
                                             31 COMRAM     3     1      2
 ---------------------------------------------------------------------------------
 (3) _Interrupt_INTx_Pin_Init                              2     1      1    8278
                                             42 COMRAM     2     1      1
                _gpio_pin_initialize
 ---------------------------------------------------------------------------------
 (4) _gpio_pin_initialize                                  3     2      1    8086
                                             39 COMRAM     3     2      1
       _gpio_pin_direction_intialize
               _gpio_pin_write_logic
 ---------------------------------------------------------------------------------
 (6) _gpio_pin_write_logic                                 8     6      2    5837
                                             31 COMRAM     8     6      2
 ---------------------------------------------------------------------------------
 (5) _gpio_pin_direction_intialize                         7     6      1     437
                                             31 COMRAM     7     6      1
 ---------------------------------------------------------------------------------
 (3) _Interrupt_INTx_Enable                                4     3      1     192
                                             31 COMRAM     4     3      1
 ---------------------------------------------------------------------------------
 (3) _Interrupt_INTx_Edge_Init                             4     3      1     378
                                             31 COMRAM     4     3      1
 ---------------------------------------------------------------------------------
 (3) _Interrupt_INTx_Disable                               4     3      1     282
                                             31 COMRAM     4     3      1
 ---------------------------------------------------------------------------------
 Estimated maximum stack depth 7
 ---------------------------------------------------------------------------------
 (Depth) Function   	        Calls       Base Space   Used Autos Params    Refs
 ---------------------------------------------------------------------------------
 (8) _Interrupt_Manager_High                               6     6      0   52530
                                             25 COMRAM     6     6      0
                           _INT0_ISR
                           _INT1_ISR
                           _INT2_ISR
                            _RB4_ISR
                            _RB5_ISR
                            _RB6_ISR
                            _RB7_ISR
 ---------------------------------------------------------------------------------
 (9) _RB7_ISR                                              1     1      0      30
                                              0 COMRAM     1     1      0
 ---------------------------------------------------------------------------------
 (9) _RB6_ISR                                              1     1      0      30
                                              0 COMRAM     1     1      0
 ---------------------------------------------------------------------------------
 (9) _RB5_ISR                                              1     1      0      30
                                              0 COMRAM     1     1      0
 ---------------------------------------------------------------------------------
 (9) _RB4_ISR                                              1     1      0      30
                                              0 COMRAM     1     1      0
 ---------------------------------------------------------------------------------
 (9) _INT2_ISR                                             0     0      0   17470
                                NULL *
                    _Player_one_move *
                    _Player_two_move *
 ---------------------------------------------------------------------------------
 (9) _INT1_ISR                                             0     0      0   17470
                                NULL *
                    _Player_one_move *
                    _Player_two_move *
 ---------------------------------------------------------------------------------
 (9) _INT0_ISR                                             0     0      0   17470
                                NULL *
                    _Player_one_move *
                    _Player_two_move *
 ---------------------------------------------------------------------------------
 (10) _Player_two_move                                     0     0      0    8735
        i2_Seven_Segm_Display_Number
      i2_lcd_4bit_send_char_data_pos
 ---------------------------------------------------------------------------------
 (10) _Player_one_move                                     0     0      0    8735
        i2_Seven_Segm_Display_Number
      i2_lcd_4bit_send_char_data_pos
 ---------------------------------------------------------------------------------
 (11) i2_lcd_4bit_send_char_data_pos                       5     1      4    7580
                                             20 COMRAM     5     1      4
          i2_lcd_4bit_send_char_data
              i2_lcd_4bit_set_cursor
 ---------------------------------------------------------------------------------
 (12) i2_lcd_4bit_set_cursor                               6     3      3    3733
                                             14 COMRAM     6     3      3
            i2_lcd_4bit_send_command
 ---------------------------------------------------------------------------------
 (13) i2_lcd_4bit_send_command                             3     1      2    3429
                                             11 COMRAM     3     1      2
             i2_gpio_pin_write_logic
                i2_lcd_4bits_command
            i2_lcd_4bits_send_enable
 ---------------------------------------------------------------------------------
 (12) i2_lcd_4bit_send_char_data                           3     1      2    3273
                                             11 COMRAM     3     1      2
             i2_gpio_pin_write_logic
                i2_lcd_4bits_command
            i2_lcd_4bits_send_enable
 ---------------------------------------------------------------------------------
 (14) i2_lcd_4bits_send_enable                             2     1      1     999
                                              8 COMRAM     2     1      1
             i2_gpio_pin_write_logic
 ---------------------------------------------------------------------------------
 (14) i2_lcd_4bits_command                                 3     1      2    1214
                                              8 COMRAM     3     1      2
             i2_gpio_pin_write_logic
 ---------------------------------------------------------------------------------
 (11) i2_Seven_Segm_Display_Number                         3     1      2    1155
                                              8 COMRAM     3     1      2
             i2_gpio_pin_write_logic
 ---------------------------------------------------------------------------------
 (15) i2_gpio_pin_write_logic                              8     6      2     803
                                              0 COMRAM     8     6      2
 ---------------------------------------------------------------------------------
 (10) NULL(Fake)                                           0     0      0       0
 ---------------------------------------------------------------------------------
 Estimated maximum stack depth 15
 ---------------------------------------------------------------------------------

 Call Graph Graphs:

 _main (ROOT)
   _Application_initialize
     _Interrupt_INTx_Init
       _Interrupt_INTx_Disable
       _Interrupt_INTx_Edge_Init
       _Interrupt_INTx_Enable
       _Interrupt_INTx_Pin_Init
         _gpio_pin_initialize
           _gpio_pin_direction_intialize
           _gpio_pin_write_logic
       _Interrupt_Set_Interrupt_Handler
         _INT0_Set_Interrupt_Handler
         _INT1_Set_Interrupt_Handler
         _INT2_Set_Interrupt_Handler
     _Seven_Segm_Display_Number
       _gpio_pin_write_logic
     _ecu_layer_initialize
       _Seven_Segm_initailize
         _gpio_pin_initialize
       _lcd_4bit_initailize
         _gpio_pin_initialize
         _lcd_4bit_send_command
           _gpio_pin_write_logic
           _lcd_4bits_command
             _gpio_pin_write_logic
           _lcd_4bits_send_enable
             _gpio_pin_write_logic
     _lcd_4bit_send_char_data_pos
       _lcd_4bit_send_char_data
         _gpio_pin_write_logic
         _lcd_4bits_command
         _lcd_4bits_send_enable
       _lcd_4bit_set_cursor
         _lcd_4bit_send_command
     _lcd_4bit_send_command
     _start_message
       _lcd_4bit_send_string_pos
         _lcd_4bit_send_string
           _lcd_4bit_send_char_data
         _lcd_4bit_set_cursor
       _sprintf
         _vfprintf
           _vfpfcnvrt
             ___awdiv
             ___awmod
             _abs
               ___awmod (ARG)
             _fputc
               _putch
   _ball_move
     _lcd_4bit_send_char_data_pos
     _lcd_4bit_send_command
     _lcd_4bit_send_string_pos
     _rand
       ___lmul

 _Interrupt_Manager_High (ROOT)
   _INT0_ISR
     NULL(Fake) *
     _Player_one_move *
       i2_Seven_Segm_Display_Number
         i2_gpio_pin_write_logic
       i2_lcd_4bit_send_char_data_pos
         i2_lcd_4bit_send_char_data
           i2_gpio_pin_write_logic
           i2_lcd_4bits_command
             i2_gpio_pin_write_logic
           i2_lcd_4bits_send_enable
             i2_gpio_pin_write_logic
         i2_lcd_4bit_set_cursor
           i2_lcd_4bit_send_command
             i2_gpio_pin_write_logic
             i2_lcd_4bits_command
             i2_lcd_4bits_send_enable
     _Player_two_move *
       i2_Seven_Segm_Display_Number
       i2_lcd_4bit_send_char_data_pos
   _INT1_ISR
     NULL(Fake) *
     _Player_one_move *
     _Player_two_move *
   _INT2_ISR
     NULL(Fake) *
     _Player_one_move *
     _Player_two_move *
   _RB4_ISR
   _RB5_ISR
   _RB6_ISR
   _RB7_ISR

 Address spaces:
Name               Size   Autos  Total    Cost      Usage
BIGRAM             F7F      0       0      42        0.0%
EEDATA             400      0       0       0        0.0%
BITBANK14          100      0       0      32        0.0%
BANK14             100      0       0      33        0.0%
BITBANK13          100      0       0      30        0.0%
BANK13             100      0       0      31        0.0%
BITBANK12          100      0       0      28        0.0%
BANK12             100      0       0      29        0.0%
BITBANK11          100      0       0      26        0.0%
BANK11             100      0       0      27        0.0%
BITBANK10          100      0       0      24        0.0%
BANK10             100      0       0      25        0.0%
BITBANK9           100      0       0      22        0.0%
BANK9              100      0       0      23        0.0%
BITBANK8           100      0       0      20        0.0%
BANK8              100      0       0      21        0.0%
BITBANK7           100      0       0      18        0.0%
BANK7              100      0       0      19        0.0%
BITBANK6           100      0       0      16        0.0%
BANK6              100      0       0      17        0.0%
BITBANK5           100      0       0      14        0.0%
BANK5              100      0       0      15        0.0%
BITBANK4           100      0       0      12        0.0%
BANK4              100      0       0      13        0.0%
BITBANK3           100      0       0      10        0.0%
BANK3              100      0       0      11        0.0%
BITBANK2           100      0       0       8        0.0%
BANK2              100      0       0       9        0.0%
BITBANK1           100      0       0       6        0.0%
BANK1              100     16      16       7        8.6%
BITBANK15           80      0       0      34        0.0%
BANK15              80      0       0      35        0.0%
BITBANK0            80      0       0       4        0.0%
BANK0               80     1F      78       5       93.8%
BITCOMRAM           7E      0       0       0        0.0%
COMRAM              7E     2D      5F       1       75.4%
BITBIGSFRhllh       45      0       0      37        0.0%
BITBIGSFRhllll       F      0       0      38        0.0%
BITBIGSFRhh          D      0       0      36        0.0%
BITBIGSFRlh          4      0       0      39        0.0%
BITBIGSFRll          4      0       0      40        0.0%
BIGSFR               0      0       0     200        0.0%
BITSFR               0      0       0     200        0.0%
SFR                  0      0       0     200        0.0%
STACK                0      0       0       2        0.0%
NULL                 0      0       0       0        0.0%
ABS                  0      0      ED      41        0.0%
DATA                 0      0      ED       3        0.0%
CODE                 0      0       0       0        0.0%


Microchip Technology PIC18 Macro Assembler V2.45 build 20230818022343 
Symbol Table                                                                                   Mon Feb 12 18:16:30 2024

                    ?_Interrupt_Manager_High 0001                                           l54 1D1E  
                                         l64 2774                                           l82 29F4  
                                         l59 27D0                                           l69 2A36  
                                         l77 224A                                 ___awdiv@sign 0025  
                 i2lcd_4bit_send_command@Lcd 000C                   i2lcd_4bit_send_command@ret 000E  
         __end_of_INT0_Set_Interrupt_Handler 2CA6                   _INT0_Set_Interrupt_Handler 2C7C  
                                        l310 2970                                          l330 2CE8  
                                        l172 2AB4                                          l317 23C0  
                                        l175 28D8                                          l520 23F2  
                                        l185 1FEE                                          l530 2546  
                                        l522 243A                                          l418 2718  
                                        l531 254C                                          l533 2590  
                                        l517 23DE                                          l543 1908  
                                        l519 23E8                                          l528 2540  
                                        l553 190A                                          l378 17EE  
                                        l820 25FA                                          l397 1A1A  
                                        l558 2CCC                                          l574 2CA4  
                                        l494 26BA                                          l584 2C50  
                                        l579 2C7A                                          l595 208E  
                                        l747 2128                                          l819 25EA  
                                        l764 1C2A                                          l780 1310  
                                        _abs 2B6A                                          _lcd 005A  
                                        _ret 00A2                                 ___awmod@sign 0025  
              INT0_Set_Interrupt_Handler@ret 0022                                          tosl 0FFD  
                                        wreg 0FE8                   ?_Seven_Segm_Display_Number 0028  
                __end_ofi2_lcd_4bits_command 292A                              __end_of_RB4_ISR 2D52  
                            __end_of_RB5_ISR 2D38                              __end_of_RB6_ISR 2D1E  
                            __end_of_RB7_ISR 2D04                                         ?_abs 0026  
                                       l1052 1F4C                                         l1039 1DE2  
                                       l1530 16C8                                         l1540 2B84  
                                       l1543 2B9C                                         l1536 29B2  
                                       l1555 1E9C                                         l1492 2A76  
                                       l1566 2D6C                                         l1574 2522  
                                       l5120 1998                                         l5112 190C  
                                       l5200 1DD2                                         l5114 1920  
                                       l5202 1DDA                                         l5210 1EB0  
                                       l5116 1940                                         l5140 289A  
                                       l5220 1EE4                                         l5212 1EB8  
                                       l5118 1948                                         l5126 19EE  
                                       l5142 28AC                                         l5150 2A88  
                                       l5230 1F20                                         l5222 1EEC  
                                       l5214 1EBC                                         l5206 1E9E  
                                       l5310 1540                                         l5302 1504  
                                       l5128 1A18                                         l5400 2C7C  
                                       l5144 28C0                                         l5136 288A  
                                       l5152 2A90                                         l5232 1F26  
                                       l5224 1EF4                                         l5216 1ECA  
                                       l5208 1EA2                                         l5320 15AA  
                                       l5312 154C                                         l5304 1528  
                                       l5402 2C80                                         l5138 288A  
                                       l5154 2A9C                                         l5170 1D3E  
                                       l5162 1D20                                         l5226 1F02  
                                       l5234 1F2C                                         l5218 1ED2  
                                       l5250 1E2A                                         l5242 1DE4  
                                       l5330 1632                                         l5322 15C2  
                                       l5314 156A                                         l5306 1530  
                                       l5404 2C92                                         l5420 2C78  
                                       l5412 2C52                                         l5156 2AA4  
                                       l5148 2A78                                         l5260 2776  
                                       l5180 1D72                                         l5172 1D4C  
                                       l5164 1D24                                         l5236 1F3C  
                                       l5228 1F18                                         l5252 1E5C  
                                       l5244 1DF4                                         l5332 1642  
                                       l5340 1682                                         l5324 15F2  
                                       l5316 1588                                         l5308 153C  
                                       l5406 2C9A                                         l5414 2C56  
                                       l5430 2C46                                         l5158 2AB2  
                                       l5262 2786                                         l5270 271A  
                                       l5190 1DAC                                         l5182 1D7A  
                                       l5174 1D54                                         l5166 1D32  
                                       l5238 1F44                                         l5246 1E04  
                                       l5334 1652                                         l5326 160E  
                                       l5318 15A0                                         l5342 1698  
                                       l5510 2A66                                         l5502 2A38  
                                       l5280 16CA                                         l5360 2716  
                                       l5352 26BC                                         l5408 2CA2  
                                       l5416 2C68                                         l5432 2C4E  
                                       l5424 2C28                                         l5600 2020  
                                       l5520 296E                                         l5264 278E  
                                       l5272 272A                                         l5192 1DB4  
                                       l5184 1D82                                         l5176 1D58  
                                       l5168 1D3A                                         l5256 2B6A  
                                       l5248 1E0E                                         l5336 1664  
                                       l5328 1622                                         l5440 298A  
                                       l5504 2A46                                         l5282 16DE  
                                       l5354 26D0                                         l5418 2C70  
                                       l5426 2C2C                                         l5602 2038  
                                       l5610 208C                                         l5514 292A  
                                       l5266 27CE                                         l5450 1C46  
                                       l5274 2732                                         l5370 1F70  
                                       l5194 1DB6                                         l5186 1D90  
                                       l5178 1D60                                         l5258 2B78  
                                       l5338 167E                                         l5346 16A4  
                                       l5442 29A8                                         l5506 2A4E  
                                       l5532 2552                                         l5524 2524  
                                       l5620 23D6                                         l5292 17AC  
                                       l5284 16FE                                         l5356 26F0  
                                       l5428 2C3E                                         l5516 293A  
                                       l5460 1C6E                                         l5452 1C5E  
                                       l5700 2CCE                                         l5276 2772  
                                       l5372 1F86                                         l5364 1F4E  
                                       l5196 1DBC                                         l5188 1D96  
                                       l5436 2972                                         l5508 2A56  
                                       l3940 2592                                         l5534 258E  
                                       l5526 2538                                         l5550 182C  
                                       l5542 17F0                                         l5286 1706  
                                       l5294 17EC                                         l5358 26F8  
                                       l5710 2674                                         l5518 2942  
                                       l5470 1CBE                                         l5462 1C72  
                                       l5446 1C2C                                         l5702 2CCE  
                                       l6510 1FC6                                         l5374 1F9C  
                                       l5366 1F54                                         l5390 21E0  
                                       l5198 1DC2                                         l5438 297A  
                                       l3942 25A2                                         l6326 2D52  
                                       l6520 18EA                                         l5560 1886  
                                       l5552 1846                                         l5544 1804  
                                       l5288 175C                                         l6512 206E  
                                       l5608 2050                                         l5720 26B8  
                                       l5712 267C                                         l5480 1CF4  
                                       l5472 1CC4                                         l5464 1C82  
                                       l5448 1C3E                                         l5704 2CD8  
                                       l5368 1F5A                                         l5376 1FB2  
                                       l5640 2A10                                         l5392 2210  
                                       l3944 25B0                                         l6328 2D56  
                                       l6522 2570                                         l5562 188C  
                                       l5554 184C                                         l5546 180C  
                                       l5626 23FC                                         l5618 23C2  
                                       l6514 1A02                                         l5714 2694  
                                       l5482 1D00                                         l5474 1CD0  
                                       l5466 1C94                                         l5458 1C62  
                                       l5706 2CE0                                         l5378 1FEC  
                                       l5642 2A34                                         l5394 2214  
                                       l5386 21C2                                         l5490 29B4  
                                       l5730 1B36                                         l5810 2124  
                                       l3946 25C0                                         l5564 18A6  
                                       l5556 1866                                         l5548 1826  
                                       l5628 2438                                         l6516 17D6  
                                       l5716 26A0                                         l5708 265E  
                                       l5484 1D0C                                         l5476 1CDC  
                                       l5468 1CA0                                         l5636 29F6  
                                       l5396 2246                                         l5388 21D8  
                                       l5492 29C6                                         l5740 1BB2  
                                       l5732 1B50                                         l5724 1B2C  
                                       l3948 25CA                                         l5820 10E0  
                                       l5812 1072                                         l5566 18AC  
                                       l5558 186C                                         l5574 18CC  
                                       l6518 241A                                         l5590 2CCA  
                                       l5718 26AC                                         l5478 1CE8  
                                       l5486 1D1C                                         l5638 2A08  
                                       l5494 29CE                                         l5742 1BCC  
                                       l5734 1B6E                                         l5750 24F2  
                                       l5830 1124                                         l5822 10F0  
                                       l5814 108C                                         l5568 18C6  
                                       l5576 1908                                         l5584 2CA6  
                                       l5496 29DE                                         l5744 1BEE  
                                       l5736 1B88                                         l5808 2090  
                                       l5840 1198                                         l5832 1136  
                                       l5824 10F4                                         l5816 109E  
                                       l5586 2CB6                                         l5594 1FF0  
                                       l5690 2358                                         l5498 29F2  
                                       l5746 1C08                                         l5738 1BAA  
                                       l5850 11EE                                         l5842 11B2  
                                       l5834 1148                                         l5826 1106  
                                       l5818 10B0                                         l5588 2CBE  
                                       l5596 2000                                         l5692 2368  
                                       l5748 24B6                                         l5860 124C  
                                       l5852 11FA                                         l5836 1158  
                                       l5828 1118                                         l5844 11C8  
                                       l5598 2008                                         l5694 2370  
                                       l5870 12AC                                         l5862 126C  
                                       l5854 120A                                         l5846 11CC  
                                       l5838 1178                                         l5696 23BE  
                                       l5688 2348                                         l5872 12BE  
                                       l5880 12DE                                         l5864 1286  
                                       l5856 121C                                         l5848 11DC  
                                       l5882 12F6                                         l5874 12C6  
                                       l5858 122C                                         l5866 1298  
                                       l5876 12CA                                         l5868 12A8  
                                       l5878 12DA                                         STR_1 106D  
                                       STR_4 1039                                         STR_5 1015  
                                       STR_6 1026                                         STR_7 1015  
                                       STR_8 1011                                         STR_9 104B  
                                       _LATA 0F89                                         _LATB 0F8A  
                                       _LATC 0F8B                                         _LATD 0F8C  
                                       _LATE 0F8D                                         u5020 2358  
                                       u5021 2354                                         u5030 2368  
                                       u5031 2364                                         u4320 1920  
                                       u5040 2674                                         u4400 1D90  
                                       u5200 1106                                         u4321 191C  
                                       u5041 2670                                         u4401 1D8C  
                                       u5201 1102                                         u4330 1940  
                                       u4410 1DAC                                         u5050 1BCC  
                                       u5210 1118                                         u5130 109E  
                                       u4331 193C                                         u4411 1DA8  
                                       u5051 1BC8                                         u5211 1114  
                                       u5131 109A                                         u4420 1DD2  
                                       u4500 1E04                                         u5060 2514  
                                       u5300 12DA                                         u5220 1136  
                                       u5140 10B0                                         u4421 1DCE  
                                       u4501 1E00                                         u5301 12D6  
                                       u5221 1132                                         u5141 10AC  
                                       u4430 1EB0                                         u4510 1E2A  
                                       u5230 1148                                         u5150 10C4  
                                       u4431 1EAC                                         u4511 1E26  
                                       u5231 1144                                         u5151 10BE  
                                       u4600 17C2                                         u4344 1966  
                                       u4360 2A88                                         u4440 1ECA  
                                       u4520 1E5C                                         u2920 25B0  
                                       u5240 11DC                                         u5160 10C6  
                                       u4601 17BC                                         u4345 1962  
                                       u4361 2A84                                         u4441 1EC6  
                                       u4521 1E58                                         u2921 25AC  
                                       u5065 2508                                         u5241 11D8  
                                       u4610 17C4                                         u4354 19B6  
                                       u4370 1D32                                         u4450 1EE4  
                                       u4530 2B78                                         u2930 25EA  
                                       u5250 11EE                                         u5170 10DC  
                                       u4355 19B2                                         u4371 1D2E  
                                       u4451 1EE0                                         u4531 2B74  
                                       u2931 25E6                                         u5251 11EA  
                                       u5171 10D6                                         u4540 2786  
                                       u4380 1D4C                                         u4460 1F02  
                                       u4700 1652                                         u4620 1528  
                                       u5260 120A                                         u5180 10DE  
                                       u4541 2782                                         u4381 1D48  
                                       u4461 1EFE                                         u4701 164E  
                                       u4621 1524                                         u5261 1206  
                                       u4550 272A                                         u4390 1D72  
                                       u4470 1F18                                         u4710 1694  
                                       u4630 156A                                         u5270 121C  
                                       u5190 10F0                                         u4551 2726  
                                       u4391 1D6E                                         u4471 1F14  
                                       u4711 1690                                         u4631 1566  
                                       u5271 1218                                         u5191 10EC  
                                       u4560 16DE                                         u4720 26D0  
                                       u4800 2C3E                                         u4480 1F3C  
                                       u4640 1588                                         u5280 12A8  
                                       u4561 16DA                                         u4721 26CC  
                                       u4801 2C3A                                         u4481 1F38  
                                       u4641 1584                                         u5281 12A4  
                                       u4570 16FE                                         u4730 26F0  
                                       u4490 1DF4                                         u4650 15BE  
                                       u4810 29A8                                         u5290 12BE  
                                       u4571 16FA                                         u4731 26EC  
                                       u4491 1DF0                                         u4651 15B8  
                                       u4811 29A4                                         u5291 12BA  
                                       u4900 1866                                         u4820 1C3E  
                                       u4740 21D8                                         u4660 15C0  
                                       u4901 1862                                         u4821 1C3A  
                                       u4741 21D4                                         u4910 1886  
                                       u4830 1C82                                         u4750 2206  
                                       u4670 1622                                         u4911 1882  
                                       u4831 1C7E                                         u4671 161E  
                                       u4920 18A6                                         u4584 1724  
                                       u4760 2236                                         u4840 29C6  
                                       u4680 1632                                         u4921 18A2  
                                       u4585 1720                                         u4841 29C2  
                                       u4681 162E                                         u4930 18C6  
                                       u4594 177A                                         u4850 293A  
                                       u4770 2246                                         u4690 1642  
                                       u4931 18C2                                         u4595 1776  
                                       u4851 2936                                         u4771 2242  
                                       u4691 163E                                         u4860 2538  
                                       u4940 2CB6                                         u4780 2C92  
                                       u4861 2534                                         u4941 2CB2  
                                       u4781 2C8E                                         u4757 21FC  
                                       u5717 11A4                                         u4870 1804  
                                       u4790 2C68                                         u4950 2000  
                                       u4871 1800                                         u4791 2C64  
                                       u4951 1FFC                                         u4767 222C  
                                       u5727 1278                                         i2l64 2888  
                                       u4880 1826                                         u4960 23D6  
                                       u4881 1822                                         u4961 23D2  
                                       u5737 1302                                         u4890 1846  
                                       u4970 2A08                                         i2l59 282C  
                                       u4891 1842                                         u4971 2A04  
                                       u5747 1B7A                                         i2l69 2B2E  
                                       u5757 1BFA                                         u5767 1C8A  
                                       u5777 1CA8                                         u5787 1CC0  
                                       u5797 2A9E                         _lcd_4bit_send_string 21C2  
                                       abs@a 0026                                         _dbuf 00B9  
                                       _seg1 00B4                                         _seg2 00AF  
                                       _main 2D52                                         _rand 24B6  
                                       _seed 0052                                         _prec 0030  
                                       fsr0h 0FEA                                         fsr1h 0FE2  
                                       indf0 0FEF                                         fsr2h 0FDA  
                                       fsr0l 0FE9                                         indf2 0FDF  
                                       fsr1l 0FE1                                         fsr2l 0FD9  
                                       btemp 0060          i2lcd_4bit_send_char_data_pos@column 0017  
          lcd_4bit_send_char_data_pos@column 00E1                                         prodh 0FF4  
                                       prodl 0FF3                                         start 000E  
             __end_of_Interrupt_Manager_High 1504                                 ___param_bank 0000  
                    __end_of_Player_one_move 22CA                        _lcd_4bit_send_command 2776  
                                      ??_abs 0028                         _gpio_pin_write_logic 190C  
             lcd_4bit_send_string_pos@column 00E1                             __end_of_INT0_ISR 2C28  
                           __end_of_INT1_ISR 2BFA                             __end_of_INT2_ISR 2BCC  
                     ?_lcd_4bits_send_enable 0028                    ?_Interrupt_INTx_Edge_Init 0020  
                              Relay_on@F3485 004C                                        ?_main 0001  
                                      ?_rand 002C                              __end_of___awdiv 1DE4  
                                      _EEADR 0FA9                                        STR_10 1011  
                                      STR_11 105C                              __end_of___awmod 1F4E  
INT2_Set_Interrupt_Handler@Interrupt_Handler 0020  INT1_Set_Interrupt_Handler@Interrupt_Handler 0020  
INT0_Set_Interrupt_Handler@Interrupt_Handler 0020                              ___awdiv@divisor 0022  
                                      i2l172 2AF2                                        _RB4_f 0059  
                                      i2l317 24B4                                        i2l175 2928  
                                      _RB5_f 0058                                        i2l185 21C0  
                                      i2l603 2BF8                                        _RB6_f 0057  
                                      i2l607 2BCA                                        i2l615 2D50  
                                      i2l623 2D36                                        i2l631 2D1C  
                                      _RB7_f 0056                                        i2l397 1B2A  
                                      i2l639 2D02                                        i2l753 22C8  
                                      i2l684 14E8                                        i2l759 2346  
                                      i2l599 2C26                              ___awdiv@counter 0024  
                               vfpfcnvrt@fmt 002B                   i2lcd_4bits_send_enable@Lcd 0009  
                                      _PORTA 0F80                                        _PORTB 0F81  
                                      _PORTC 0F82                                        _PORTD 0F83  
                                      _PORTE 0F84                                        _TRISA 0F92  
                                      _TRISB 0F93                                        _TRISC 0F94  
                                      _TRISD 0F95                                        _TRISE 0F96  
                    __end_of_Player_two_move 2348                   i2lcd_4bits_send_enable@ret 000A  
                  lcd_4bit_set_cursor@column 00DB                          ___lmul@multiplicand 0024  
                                      _flags 0048                                _start_message 1B2C  
                   Interrupt_INTx_Enable@obj 0020                     Interrupt_INTx_Enable@ret 0023  
          __end_of_Seven_Segm_Display_Number 23C2                                        _fputc 1DE4  
                                      _width 002E                                        _putch 2D6C  
                      ?_lcd_4bit_send_string 00D9                                        pclath 0FFA  
                                      pclatu 0FFB                                        tablat 0FF5  
                                      ttemp5 0061                                        ttemp6 0064  
                                      ttemp7 0068                                        status 0FD8  
                                      wtemp8 0061                              __end_of_sprintf 2A78  
                     _Interrupt_INTx_Disable 2524                              __initialization 25FC  
                               __end_of_main 2D62                                 __end_of_rand 2524  
                  i2gpio_pin_write_logic@ret 0008                        ?_gpio_pin_write_logic 0020  
                    i2_lcd_4bits_send_enable 2AB6                                _lat_registers 008A  
                                     ??_main 002E                                       ??_rand 00D9  
                              __activetblptr 0003                 ??_INT1_Set_Interrupt_Handler 0022  
                           led_turn_on@F3487 0050                                    ??_RB4_ISR 0001  
                                  ??_RB5_ISR 0001                                    ??_RB6_ISR 0001  
                                  ??_RB7_ISR 0001                               ?_start_message 0001  
            Seven_Segm_initailize@_Seven_Seg 002B                                       ?_fputc 0020  
                                     _EEADRH 0FAA                                       _EEDATA 0FA8  
                                     _EECON2 0FA7                             ___awdiv@dividend 0020  
                                     ?_putch 0001                                       i2l4100 22CA  
                                     i2l4110 231A                                       i2l4102 22E2  
                                     i2l4112 231E                                       i2l4104 22F2  
                                     i2l4114 232E                                       i2l4106 2302  
                                     i2l2450 2D3C                                       i2l3500 2ACE  
                                     i2l4108 2308                                       i2l2460 2D22  
                                     i2l3350 1A30                                       i2l3510 28DA  
                                     i2l3502 2ADA                                       i2l2454 2D50  
                                     i2l2470 2D08                                       i2l3352 1A50  
                                     i2l3512 28DA                                       i2l3504 2AE2  
                                     i2l2448 2D3A                                       i2l2464 2D36  
                                     i2l2480 2CEE                                       i2l3354 1A58  
                                     i2l3362 1AFE                                       i2l3514 28EA  
                                     i2l3506 2AF0                                       i2l4090 2284  
                                     i2l2458 2D20                                       i2l2474 2D1C  
                                     i2l3356 1AA8                                       i2l3364 1B28  
                                     i2l3348 1A1C                                       i2l3516 28FC  
                                     i2l3620 282A                                       i2l4092 228A  
                                     i2l4084 224C                                       i2l4180 2C0E  
                                     i2l2468 2D06                                       i2l2484 2D02  
                                     i2l3518 2910                                       i2l3614 27D2  
                                     i2l4094 229C                                       i2l4086 2264  
                                     i2l4182 2BCC                                       i2l4190 2BA0  
                                     i2l2478 2CEC                                       i2l3720 283E  
                                     i2l3616 27E2                                       i2l4096 22A0  
                                     i2l4088 2274                                       i2l4176 2BFA  
                                     i2l4184 2BCE                                       i2l4192 2BB2  
                                     i2l3722 2846                                       i2l3618 27EA  
                                     i2l3730 212E                                       i2l4098 22B0  
                                     i2l4178 2BFC                                       i2l4186 2BE0  
                                     i2l3724 2886                                       i2l3732 2134  
                                     i2l3740 2184                                       i2l4188 2B9E  
                                     i2l3718 282E                                       i2l3734 2148  
                                     i2l3742 21BE                                       i2l3496 2AB6  
                                     i2l3736 215C                                       i2l3728 212A  
                                     i2l3498 2AC6                                       i2l3738 2170  
                                     i2l4900 1466                                       i2l3950 2AF4  
                                     i2l4910 1492                                       i2l4902 146A  
                                     i2l3960 243C                                       i2l3952 2B04  
                                     i2l4920 14C0                                       i2l4912 1498  
                                     i2l4904 1470                                       i2l3962 244C  
                                     i2l3954 2B0C                                       i2l4922 14CE  
                                     i2l4914 14A6                                       i2l4906 147E  
                                     i2l4850 135A                                       i2l4842 132C  
                                     i2l3964 245C                                       i2l6524 2198  
                                     i2l3956 2B2C                                       i2l4924 14DE  
                                     i2l4916 14B6                                       i2l4908 148E  
                                     i2l4860 138C                                       i2l4852 1368  
                                     i2l4844 133A                                       i2l6526 1B12  
                                     i2l3966 2464                                       i2l4926 14E2  
                                     i2l4918 14BA                                       i2l4870 13CA  
                                     i2l4862 139A                                       i2l4854 136C  
                                     i2l4846 1348                                       i2l3968 24B2  
                                     i2l4880 13F8                                       i2l4872 13D0  
                                     i2l4864 13A8                                       i2l4856 137A  
                                     i2l4848 134C                                       i2l4890 142E  
                                     i2l4882 1406                                       i2l4874 13DE  
                                     i2l4866 13B6                                       i2l4858 1388  
                                     i2l4892 143E                                       i2l4884 1416  
                                     i2l4876 13EE                                       i2l4868 13C6  
                                     i2l4894 1442                                       i2l4886 141A  
                                     i2l4878 13F2                                       i2l4896 1448  
                                     i2l4888 1420                                       i2l4898 1456  
                              vfpfcnvrt@done 00D9             __end_of_lcd_4bit_send_string_pos 29F6  
                             Relay_off@F3490 004B                     i2lcd_4bit_set_cursor@Lcd 000F  
                     ?_lcd_4bit_send_command 002B                                 vfprintf@cfmt 00E3  
                   i2lcd_4bit_set_cursor@ret 0014                     i2lcd_4bit_set_cursor@row 0010  
                           ?_Player_one_move 0001                                       ___lmul 2592  
                                     _ball_x 009F                                       _ball_y 009E  
                                  ??___awdiv 0024                                    ??___awmod 0024  
                    ?_Application_initialize 0001                __end_of_Seven_Segm_initailize 2972  
                                     clear_0 2642                                       clear_1 264E  
                           ___awdiv@quotient 0026                              ___awmod@divisor 0022  
                                     isa$std 0001                              ___awmod@counter 0024  
              __end_of_Interrupt_INTx_Enable 243C      gpio_pin_direction_intialize@_pin_config 0020  
                                     fputc@c 0020                                 __pdataCOMRAM 0056  
                           ?_Player_two_move 0001                                 __mediumconst 0000  
                                     tblptrh 0FF7                                       tblptrl 0FF6  
                                     tblptru 0FF8                                       putch@c 0001  
                           __end_of_vfprintf 29B4                       ??_lcd_4bit_send_string 002E  
                                  ??_sprintf 002E                                   __accesstop 0080  
                    __end_of__initialization 2654                                    ?_INT0_ISR 0001  
                                  ?_INT1_ISR 0001                                    ?_INT2_ISR 0001  
                              ___rparam_used 0001      __end_of_Interrupt_Set_Interrupt_Handler 2090  
          ??_Interrupt_Set_Interrupt_Handler 0024             ?_Interrupt_Set_Interrupt_Handler 0023  
            _Interrupt_Set_Interrupt_Handler 1FF0                   ?i2_lcd_4bit_send_char_data 000C  
                    _lcd_4bit_send_char_data 271A                      _Interrupt_INTx_Pin_Init 2CA6  
                    i2_lcd_4bit_send_command 27D2                       ??_gpio_pin_write_logic 0022  
                             __pcstackCOMRAM 0001               __end_of_Application_initialize 212A  
                  ??i2_lcd_4bits_send_enable 000A                                 __pidataBANK0 2B30  
                              RB4_ISR@source 0001                                __end_of_fputc 1E9E  
                              __end_of_putch 2D6E                     lcd_4bit_send_command@Lcd 002B  
                   lcd_4bit_send_command@ret 002D                  ?_INT0_Set_Interrupt_Handler 0020  
                 _RB6_Interrupt_Handler_High 0038                              ??_start_message 00F6  
                ??_Seven_Segm_Display_Number 002A                 ?_lcd_4bit_send_char_data_pos 00DF  
                    lcd_4bit_send_string@Lcd 00D9                  __end_of_Interrupt_INTx_Init 26BC  
                              RB5_ISR@source 0001                                      ??_fputc 0023  
                    lcd_4bit_send_string@ret 00DC                    _RB5_Interrupt_Handler_Low 003A  
                    lcd_4bit_send_string@str 00DA              Seven_Segm_Display_Number@number 0029  
          i2Seven_Segm_Display_Number@number 000A                                      ??_putch 0020  
                             _player_one_row 00A1                                   __pbssBANK0 00B9  
                                 ??_INT0_ISR 001A                                   ??_INT1_ISR 001A  
                                 ??_INT2_ISR 001A                       _INT2_Interrupt_Handler 0042  
                             _player_two_row 00A0           Interrupt_Set_Interrupt_Handler@obj 0023  
         Interrupt_Set_Interrupt_Handler@ret 0026             __end_of_Interrupt_INTx_Edge_Init 190C  
                      i2_lcd_4bit_set_cursor 212A            __end_ofi2_lcd_4bit_send_char_data 288A  
                    ??_lcd_4bits_send_enable 0029                                      ?___lmul 0020  
                              RB6_ISR@source 0001                            led_turn_off@F3492 004F  
                             ___lmul@product 0028                         lcd_4bits_command@Lcd 0028  
                       lcd_4bits_command@ret 002A           __end_of_INT1_Set_Interrupt_Handler 2C7C  
                 _INT1_Set_Interrupt_Handler 2C52                                      _RB4_ISR 2D38  
                                    _RB5_ISR 2D1E                                      _RB6_ISR 2D04  
                                    _RB7_ISR 2CEA                     lcd_4bits_send_enable@Lcd 0028  
                  ?_lcd_4bit_send_string_pos 00DF                                   _xDirection 004A  
                   lcd_4bits_send_enable@ret 0029                            __end_of_ball_move 1312  
                                 _yDirection 0049                                RB7_ISR@source 0001  
                                 _btn_values 1001                      ?_Interrupt_INTx_Disable 0020  
                             _tris_registers 0094                    ??_lcd_4bit_send_char_data 002D  
                  ??_Interrupt_INTx_Pin_Init 002C                    ??i2_lcd_4bit_send_command 000E  
              INT1_Set_Interrupt_Handler@ret 0022                                      __Hparam 0000  
                                    _Player1 00A9                                      _Player2 00A3  
                                    __Lparam 0000                 ?i2_Seven_Segm_Display_Number 0009  
                  _Seven_Segm_Display_Number 2348                          _gpio_pin_initialize 26BC  
                                    ___awdiv 1D20                                      ___awmod 1E9E  
                                  ?_vfprintf 00E0                                 __psmallconst 1000  
                                    __pcinit 25FC                                      __ramtop 1000  
               i2lcd_4bit_send_char_data@Lcd 000C                                      __ptext0 2D52  
                                    __ptext1 1072                                      __ptext2 24B6  
                                    __ptext3 2592                                      __ptext4 2090  
                                    __ptext5 1B2C                                      __ptext6 2A38  
                                    __ptext7 2972                                      __ptext8 1504  
                                    __ptext9 1DE4                         start_message@message 0100  
               i2lcd_4bit_send_char_data@ret 000E                             ___awmod@dividend 0020  
                       ?_gpio_pin_initialize 0028               __end_of_Interrupt_INTx_Disable 2592  
                   ??i2_gpio_pin_write_logic 0003                                      _sprintf 2A38  
                             __pintcode_body 1312                         end_of_initialization 2654  
                                    fputc@fp 0022                                      int_func 1312  
                    ??_lcd_4bit_send_command 002D                       ?i2_lcd_4bit_set_cursor 000F  
                          __end_of_vfpfcnvrt 16CA                 Seven_Segm_Display_Number@ret 002A  
                                    postdec1 0FE5                                      postdec2 0FDD  
                   _Interrupt_INTx_Edge_Init 17F0              ??i2_lcd_4bit_send_char_data_pos 0019  
                                    postinc0 0FEE                                      postinc1 0FE6  
                                    postinc2 0FDE                             vfpfcnvrt@convarg 00DB  
              ??i2_Seven_Segm_Display_Number 000B                                   ??_vfprintf 002E  
                        _lcd_4bit_initailize 1C2C              __end_of_lcd_4bit_send_char_data 2776  
                                  _PORTBbits 0F81                         lcd_4bit_initailize@i 00DB  
                 lcd_4bit_send_char_data@Lcd 002B                 ??_INT2_Set_Interrupt_Handler 0022  
                 lcd_4bit_send_char_data@ret 002D         __end_of_gpio_pin_direction_intialize 17F0  
               _gpio_pin_direction_intialize 16CA                        ??_gpio_pin_initialize 0029  
                       ?_lcd_4bit_initailize 00D9            i2lcd_4bit_send_char_data_pos@data 0018  
            lcd_4bit_send_char_data_pos@data 00E2                  Interrupt_INTx_Edge_Init@obj 0020  
                Interrupt_INTx_Edge_Init@ret 0023                     ??_Interrupt_Manager_High 001A  
                ??i2_lcd_4bit_send_char_data 000E                          _lcd_4bit_set_cursor 1F4E  
                lcd_4bit_send_string_pos@Lcd 00DF                  lcd_4bit_send_string_pos@ret 00E4  
                lcd_4bit_send_string_pos@row 00E0                  lcd_4bit_send_string_pos@str 00E2  
                     Interrupt_INTx_Init@obj 002D                       Interrupt_INTx_Init@ret 00D9  
                             __end_of___lmul 25FC                                  vfpfcnvrt@ap 002C  
                                vfpfcnvrt@cp 00DA                                  vfpfcnvrt@fp 002A  
                              __pidataCOMRAM 2D62                        _Seven_Segm_initailize 292A  
                         fp__Player_one_move 0000                  i2lcd_4bit_set_cursor@column 0011  
                      _Interrupt_INTx_Enable 23C2                          start_initialization 25FC  
                       ?_lcd_4bit_set_cursor 00D9                                  __end_of_abs 2B9E  
              ?_gpio_pin_direction_intialize 0020                        ??_lcd_4bit_initailize 00DA  
                         fp__Player_two_move 0000                                  vfprintf@fmt 00E1  
                                   ??___lmul 0028                __end_of_lcd_4bits_send_enable 2AB6  
                                __pdataBANK0 0080                   _RB5_Interrupt_Handler_High 003C  
               __end_of_ecu_layer_initialize 2CEA                 lcd_4bit_send_command@command 002C  
      __end_ofi2_lcd_4bit_send_char_data_pos 2B30                i2_lcd_4bit_send_char_data_pos 2AF4  
                ?_INT1_Set_Interrupt_Handler 0020                          i2_lcd_4bits_command 28DA  
                                   ?_RB4_ISR 0001                                     ?_RB5_ISR 0001  
                                   ?_RB6_ISR 0001                                     ?_RB7_ISR 0001  
                                __pbssCOMRAM 002E                        ??_lcd_4bit_set_cursor 00DC  
                  i2_lcd_4bit_send_char_data 282E                                __pcstackBANK0 00D9  
                              __pcstackBANK1 0100                        __end_of_start_message 1C2C  
                  _RB6_Interrupt_Handler_Low 0036                                    _ball_move 1072  
                     _INT0_Interrupt_Handler 0046              gpio_pin_direction_intialize@ret 0026  
                       ?i2_lcd_4bits_command 0009                     ?i2_lcd_4bits_send_enable 0009  
                      Relay_initialize@F3480 004D                                    __pintcode 0008  
                     i2_gpio_pin_write_logic 1A1C              gpio_pin_write_logic@_pin_config 0020  
          i2gpio_pin_write_logic@_pin_config 0001                                     ?___awdiv 0020  
                                   ?___awmod 0020                       ?_Seven_Segm_initailize 002B  
         __end_of_INT2_Set_Interrupt_Handler 2C52                   _INT2_Set_Interrupt_Handler 2C28  
              lcd_4bits_command@data_command 0029                       ?_Interrupt_INTx_Enable 0020  
            i2lcd_4bits_command@data_command 000A                                  __smallconst 1000  
                                   ?_sprintf 00E4                            ??_Player_one_move 001A  
                    ??i2_lcd_4bit_set_cursor 0012                                   ?_ball_move 0001  
             ??_gpio_pin_direction_intialize 0021                   ??_Interrupt_INTx_Edge_Init 0021  
                                   _INT0_ISR 2BFA                        ??i2_lcd_4bits_command 000B  
                                   _INT1_ISR 2BCC                                     _INT2_ISR 2B9E  
                   ??_Application_initialize 002E                                     i2u106_40 2D4C  
                                   i2u106_41 2D48                                     i2u107_40 2D32  
                                   i2u107_41 2D2E                                     i2u108_40 2D18  
                                   i2u108_41 2D14                __end_of_lcd_4bit_send_command 27D2  
                                   i2u109_40 2CFE                                     i2u109_41 2CFA  
                                   i2u310_40 2302                                     i2u310_41 22FE  
                                   i2u311_40 231A                                     i2u311_41 2316  
                                   i2u224_40 1A30                                     i2u224_41 1A2C  
                                   i2u225_40 1A50                                     i2u320_48 2C14  
                                   i2u321_40 2BE0                                     i2u225_41 1A4C  
                                   i2u320_49 2C26                                     i2u321_41 2BDC  
                                   i2u306_40 2274                                     i2u410_40 135A  
                                   i2u306_41 2270                                     i2u410_41 1356  
                                   i2u226_44 1A76                                     i2u226_45 1A72  
                                   i2u307_40 2284                                     i2u322_48 2BE6  
                                   i2u323_40 2BB2                                     i2u411_40 1368  
                                   i2u307_41 2280                                     i2u322_49 2BF8  
                                   i2u323_41 2BAE                                     i2u411_41 1364  
                                   i2u227_44 1AC6                                     i2u227_45 1AC2  
                                   i2u308_40 229C                                     i2u420_40 1406  
                                   i2u412_40 137A                                     i2u308_41 2298  
                                   i2u420_41 1402                                     i2u412_41 1376  
                                   i2u309_40 22F2                                     i2u324_48 2BB8  
                                   i2u421_40 1416                                     i2u413_40 1388  
                                   i2u309_41 22EE                                     i2u324_49 2BCA  
                                   i2u421_41 1412                                     i2u413_41 1384  
                                   i2u246_40 2AC6                                     i2u430_40 14CE  
                                   i2u422_40 142E                                     i2u414_40 139A  
                                   i2u246_41 2AC2                                     i2u430_41 14CA  
                                   i2u422_41 142A                                     i2u414_41 1396  
                                   i2u319_40 2C0E                                     i2u431_40 14DE  
                                   i2u423_40 143E                                     i2u415_40 13A8  
                                   i2u319_41 2C0A                                     i2u431_41 14DA  
                                   i2u423_41 143A                                     i2u415_41 13A4  
                                   i2u424_40 1456                                     i2u416_40 13B6  
                                   i2u408_40 133A                                     i2u424_41 1452  
                                   i2u416_41 13B2                                     i2u408_41 1336  
                                   i2u265_40 27E2                                     i2u425_40 1466  
                                   i2u417_40 13C6                                     i2u409_40 1348  
                                   i2u265_41 27DE                                     i2u425_41 1462  
                                   i2u417_41 13C2                                     i2u409_41 1344  
                                   i2u426_40 147E                                     i2u418_40 13DE  
                                   i2u426_41 147A                                     i2u418_41 13DA  
                                   i2u427_40 148E                                     i2u419_40 13EE  
                                   i2u427_41 148A                                     i2u419_41 13EA  
                                   i2u276_40 283E                                     i2u428_40 14A6  
                                   i2u276_41 283A                                     i2u428_41 14A2  
                                   i2u429_40 14B6                                     i2u429_41 14B2  
                                   i2u294_40 2B04                                     i2u294_41 2B00  
                                   i2u295_40 244C                                     i2u295_41 2448  
                                   i2u296_40 245C                                     i2u296_41 2458  
                                   i2u580_47 2ADC                            ??_Player_two_move 001A  
                                  _vfpfcnvrt 1504                     _lcd_4bit_send_string_pos 29B4  
                     _Interrupt_Manager_High 0008             i2lcd_4bit_send_char_data_pos@Lcd 0015  
             lcd_4bit_send_char_data_pos@Lcd 00DF             i2lcd_4bit_send_char_data_pos@ret 0019  
             lcd_4bit_send_char_data_pos@ret 00E3             i2lcd_4bit_send_char_data_pos@row 0016  
             lcd_4bit_send_char_data_pos@row 00E0                INT2_Set_Interrupt_Handler@ret 0022  
                     gpio_pin_initialize@ret 002A               i2Seven_Segm_Display_Number@ret 000B  
        __end_of_lcd_4bit_send_char_data_pos 2A38               ?i2_lcd_4bit_send_char_data_pos 0015  
                _lcd_4bit_send_char_data_pos 29F6                                   vfpfcnvrt@c 00DF  
                    gpio_pin_write_logic@ret 0027                            ___lmul@multiplier 0020  
                                _INTCON2bits 0FF1                                  _INTCON3bits 0FF0  
                   ?_lcd_4bit_send_char_data 002B                                    copy_data0 2610  
                                  copy_data1 2630                     ?_Interrupt_INTx_Pin_Init 002B  
                   ?i2_lcd_4bit_send_command 000C              __end_ofi2_lcd_4bits_send_enable 2AF4  
                       _ecu_layer_initialize 2CCE                ??_lcd_4bit_send_char_data_pos 002E  
                                 _EECON1bits 0FA6                                     __Hrparam 0000  
                                 vfprintf@ap 00E2                                     __Lrparam 0000  
                                 vfprintf@fp 00E0                       lcd_4bit_set_cursor@Lcd 00D9  
                  Interrupt_INTx_Disable@obj 0020                    Interrupt_INTx_Disable@ret 0023  
                     lcd_4bit_set_cursor@ret 00DE                                   ?_vfpfcnvrt 002A  
                     lcd_4bit_set_cursor@row 00DA                  __end_of_gpio_pin_initialize 271A  
                         __end_of_btn_values 1011               gpio_pin_initialize@_pin_config 0028  
               ??_INT0_Set_Interrupt_Handler 0022                           led_intialize@F3482 0051  
                                 sprintf@fmt 00E6                                     __ptext10 2D6C  
                                   __ptext11 2B6A                                     __ptext20 1C2C  
                                   __ptext12 1E9E                                     __ptext21 2776  
                                   __ptext13 1D20                                     __ptext30 2C7C  
                                   __ptext22 2A78                                     __ptext14 29B4  
                                   __ptext31 2CA6                                     __ptext23 288A  
                                   __ptext15 21C2                                     __ptext40 2D04  
                                   __ptext32 26BC                                     __ptext24 292A  
                                   __ptext16 29F6                                     __ptext41 2D1E  
                                   __ptext33 190C                                     __ptext25 2348  
                                   __ptext17 1F4E                                     __ptext50 27D2  
                                   __ptext42 2D38                                     __ptext34 16CA  
                                   __ptext26 265E                                     __ptext18 271A  
                                   __ptext51 282E                                     __ptext43 2B9E  
                                   __ptext35 23C2                                     __ptext27 1FF0  
                                   __ptext19 2CCE                                     __ptext52 2AB6  
                                   __ptext44 2BCC                                     __ptext36 17F0  
                                   __ptext28 2C28                                     __ptext53 28DA  
                                   __ptext45 2BFA                                     __ptext37 2524  
                                   __ptext29 2C52                                     __ptext54 243C  
                                   __ptext46 224C                                     __ptext55 1A1C  
                                   __ptext47 22CA                                     __ptext39 2CEA  
                                   __ptext56 0000                                     __ptext48 2AF4  
                                   __ptext49 212A                i2lcd_4bit_send_char_data@data 000D  
                                ??_ball_move 00E5                        ?_ecu_layer_initialize 0001  
        Seven_Segm_Display_Number@_Seven_Seg 0028        i2Seven_Segm_Display_Number@_Seven_Seg 0009  
        __end_ofi2_Seven_Segm_Display_Number 24B6                  i2_Seven_Segm_Display_Number 243C  
                                   isa$xinst 0000                                     int$flags 0060  
               __end_of_lcd_4bit_send_string 224C                                     _vfprintf 2972  
               i2gpio_pin_write_logic@logic_ 0002                     ??_Interrupt_INTx_Disable 0021  
                        _Interrupt_INTx_Init 265E                                   _INTCONbits 0FF2  
                __end_of_lcd_4bit_initailize 1D20              __end_of_Interrupt_INTx_Pin_Init 2CCE  
            __end_ofi2_lcd_4bit_send_command 282E                 __end_of_gpio_pin_write_logic 1A1C  
                                   intlevel2 0000                                    sprintf@ap 00E9  
             i2lcd_4bit_send_command@command 000D                         ?_Interrupt_INTx_Init 002D  
                          _lcd_4bits_command 288A                      ?i2_gpio_pin_write_logic 0001  
                     led_toggle_status@F3497 004E                           ?_lcd_4bits_command 0028  
                    ??_Seven_Segm_initailize 002C                   Interrupt_INTx_Pin_Init@obj 002B  
                 Interrupt_INTx_Pin_Init@ret 002C                   _RB4_Interrupt_Handler_High 0040  
                    ??_Interrupt_INTx_Enable 0021                       i2lcd_4bits_command@Lcd 0009  
                                ??_vfpfcnvrt 002D                  __end_of_lcd_4bit_set_cursor 1FF0  
                        ??_lcd_4bits_command 002A                       i2lcd_4bits_command@ret 000B  
                            _Player_one_move 224C                        _lcd_4bits_send_enable 2A78  
                   Seven_Segm_initailize@ret 002C                       _Application_initialize 2090  
                 gpio_pin_write_logic@logic_ 0021                                     sprintf@f 00EA  
                ?_INT2_Set_Interrupt_Handler 0020                                     sprintf@s 00E4  
                 _RB7_Interrupt_Handler_High 0034                               start_message@i 0114  
                             _port_registers 0080                       lcd_4bit_initailize@Lcd 00D9  
                     lcd_4bit_initailize@ret 00DC                    _RB4_Interrupt_Handler_Low 003E  
                            _Player_two_move 22CA                    _RB7_Interrupt_Handler_Low 0032  
                     ??_ecu_layer_initialize 002E                    __end_of_lcd_4bits_command 28DA  
                      ??_Interrupt_INTx_Init 002E                  lcd_4bit_send_char_data@data 002C  
                     _INT1_Interrupt_Handler 0044               __end_ofi2_gpio_pin_write_logic 1B2C  
              __end_ofi2_lcd_4bit_set_cursor 21C2                   ??_lcd_4bit_send_string_pos 002E  
