

Microchip MPLAB XC8 Assembler V2.45 build 20230818022343 
                                                                                               Sun Mar 10 19:18:44 2024

Microchip MPLAB XC8 C Compiler v2.45 (Free license) build 20230818022343 Og1 
     1                           	processor	18F4620
     2                           	fnconf	rparam,??,?,0
     3                           	pagewidth 120
     4                           	opt	flic
     5                           	psect	idataCOMRAM,global,class=CODE,delta=1,noexec
     6                           	psect	smallconst,global,reloc=2,class=SMALLCONST,delta=1,noexec
     7                           	psect	nvCOMRAM,global,class=COMRAM,space=1,delta=1,lowdata,noexec
     8                           	psect	cinit,global,reloc=2,class=CODE,delta=1
     9                           	psect	bssCOMRAM,global,class=COMRAM,space=1,delta=1,lowdata,noexec
    10                           	psect	dataCOMRAM,global,class=COMRAM,space=1,delta=1,lowdata,noexec
    11                           	psect	cstackBANK0,global,class=BANK0,space=1,delta=1,lowdata,noexec
    12                           	psect	cstackCOMRAM,global,class=COMRAM,space=1,delta=1,lowdata,noexec
    13                           	psect	text0,global,reloc=2,class=CODE,delta=1
    14                           	psect	text1,global,reloc=2,class=CODE,delta=1
    15                           	psect	text2,global,reloc=2,class=CODE,delta=1
    16                           	psect	text3,global,reloc=2,class=CODE,delta=1
    17                           	psect	text4,global,reloc=2,class=CODE,delta=1
    18                           	psect	text5,global,reloc=2,class=CODE,delta=1
    19                           	psect	text6,global,reloc=2,class=CODE,delta=1
    20                           	psect	text7,global,reloc=2,class=CODE,delta=1
    21                           	psect	text8,global,reloc=2,class=CODE,delta=1,inline
    22                           	psect	intcode,global,reloc=2,class=CODE,delta=1
    23                           	psect	intcode_body,global,reloc=2,class=CODE,delta=1
    24                           	psect	text10,global,reloc=2,class=CODE,delta=1
    25                           	psect	text11,global,reloc=2,class=CODE,delta=1
    26                           	psect	text12,global,reloc=2,class=CODE,delta=1
    27                           	psect	text13,global,reloc=2,class=CODE,delta=1
    28                           	psect	text14,global,reloc=2,class=CODE,delta=1
    29                           	psect	text15,global,reloc=2,class=CODE,delta=1
    30                           	psect	text16,global,reloc=2,class=CODE,delta=1
    31                           	psect	text17,global,reloc=2,class=CODE,delta=1
    32                           	psect	text18,global,reloc=2,class=CODE,delta=1
    33                           	psect	text19,global,reloc=2,class=CODE,delta=1
    34                           	psect	text20,global,reloc=2,class=CODE,delta=1
    35                           	psect	text21,global,reloc=2,class=CODE,delta=1
    36                           	psect	text22,global,reloc=2,class=CODE,delta=1
    37                           	psect	text23,global,reloc=2,class=CODE,delta=1
    38                           	psect	intsave_regs,global,class=BIGRAM,space=1,delta=1,noexec
    39                           	psect	text24,global,reloc=2,class=CODE,delta=1
    40                           	psect	rparam,global,class=COMRAM,space=1,delta=1,noexec
    41                           	psect	temp,global,ovrld,common,class=COMRAM,space=1,delta=1
    42                           	psect	config,global,abs,ovrld,class=CONFIG,space=4,delta=1,noexec
    43   000000                     
    44                           ; Generated 23/03/2023 GMT
    45                           ; 
    46                           ; Copyright © 2023, Microchip Technology Inc. and its subsidiaries ("Microchip")
    47                           ; All rights reserved.
    48                           ; 
    49                           ; This software is developed by Microchip Technology Inc. and its subsidiaries ("Microch
      +                          ip").
    50                           ; 
    51                           ; Redistribution and use in source and binary forms, with or without modification, are
    52                           ; permitted provided that the following conditions are met:
    53                           ; 
    54                           ;     1. Redistributions of source code must retain the above copyright notice, this lis
      +                          t of
    55                           ;        conditions and the following disclaimer.
    56                           ; 
    57                           ;     2. Redistributions in binary form must reproduce the above copyright notice, this 
      +                          list
    58                           ;        of conditions and the following disclaimer in the documentation and/or other
    59                           ;        materials provided with the distribution. Publication is not required when
    60                           ;        this file is used in an embedded application.
    61                           ; 
    62                           ;     3. Microchip's name may not be used to endorse or promote products derived from th
      +                          is
    63                           ;        software without specific prior written permission.
    64                           ; 
    65                           ; THIS SOFTWARE IS PROVIDED BY MICROCHIP "AS IS" AND ANY EXPRESS OR IMPLIED WARRANTIES,
    66                           ; INCLUDING, BUT NOT LIMITED TO, THE IMPLIED WARRANTIES OF MERCHANTABILITY AND FITNESS F
      +                          OR
    67                           ; PURPOSE ARE DISCLAIMED.  IN NO EVENT SHALL MICROCHIP BE LIABLE FOR ANY DIRECT, INDIREC
      +                          T,
    68                           ; INCIDENTAL, SPECIAL, EXEMPLARY, OR CONSEQUENTIAL DAMAGES (INCLUDING BUT NOT LIMITED TO
    69                           ; PROCUREMENT OF SUBSTITUTE GOODS OR SERVICES; LOSS OF USE, DATA OR PROFITS; OR BUSINESS
    70                           ; INTERRUPTION) HOWSOEVER CAUSED AND ON ANY THEORY OF LIABILITY, WHETHER IN CONTRACT, ST
      +                          RICT
    71                           ; LIABILITY, OR TORT (INCLUDING NEGLIGENCE OR OTHERWISE) ARISING IN ANY WAY OUT OF THE U
      +                          SE OF
    72                           ; THIS SOFTWARE, EVEN IF ADVISED OF THE POSSIBILITY OF SUCH DAMAGE.
    73                           ; 
    74                           ; 
    75                           ; Code-generator required, PIC18F4620 Definitions
    76                           ; 
    77                           ; SFR Addresses
    78   000000                     
    79                           	psect	idataCOMRAM
    80   0017E2                     __pidataCOMRAM:
    81                           	callstack 0
    82                           
    83                           ;initializer for _port_registers
    84   0017E2  80                 	db	128
    85   0017E3  0F                 	db	15
    86   0017E4  81                 	db	129
    87   0017E5  0F                 	db	15
    88   0017E6  82                 	db	130
    89   0017E7  0F                 	db	15
    90   0017E8  83                 	db	131
    91   0017E9  0F                 	db	15
    92   0017EA  84                 	db	132
    93   0017EB  0F                 	db	15
    94                           
    95                           ;initializer for _lat_registers
    96   0017EC  89                 	db	137
    97   0017ED  0F                 	db	15
    98   0017EE  8A                 	db	138
    99   0017EF  0F                 	db	15
   100   0017F0  8B                 	db	139
   101   0017F1  0F                 	db	15
   102   0017F2  8C                 	db	140
   103   0017F3  0F                 	db	15
   104   0017F4  8D                 	db	141
   105   0017F5  0F                 	db	15
   106                           
   107                           ;initializer for _tris_registers
   108   0017F6  92                 	db	146
   109   0017F7  0F                 	db	15
   110   0017F8  93                 	db	147
   111   0017F9  0F                 	db	15
   112   0017FA  94                 	db	148
   113   0017FB  0F                 	db	15
   114   0017FC  95                 	db	149
   115   0017FD  0F                 	db	15
   116   0017FE  96                 	db	150
   117   0017FF  0F                 	db	15
   118                           
   119                           ;initializer for _ret
   120   001800  01                 	db	1
   121                           
   122                           ;initializer for _RB7_f
   123   001801  01                 	db	1
   124                           
   125                           ;initializer for _RB6_f
   126   001802  01                 	db	1
   127                           
   128                           ;initializer for _RB5_f
   129   001803  01                 	db	1
   130                           
   131                           ;initializer for _RB4_f
   132   001804  01                 	db	1
   133                           
   134                           ;initializer for _timer1
   135   001805  A6                 	db	low _Isr
   136   001806  18                 	db	high _Isr
   137   001807  00                 	db	0
   138   001808  03                 	db	3
   139   001809  0BDC               	dw	3036
   140   00180B  09                 	db	9
   141                           
   142                           ;initializer for _led
   143   00180C  02                 	db	2
   144                           
   145                           	psect	smallconst
   146   001000                     __psmallconst:
   147                           	callstack 0
   148   001000  00                 	db	0
   149   001001                     _btn_values:
   150                           	callstack 0
   151   001001  37                 	db	55
   152   001002  38                 	db	56
   153   001003  39                 	db	57
   154   001004  2F                 	db	47
   155   001005  34                 	db	52
   156   001006  35                 	db	53
   157   001007  36                 	db	54
   158   001008  2A                 	db	42
   159   001009  31                 	db	49
   160   00100A  32                 	db	50
   161   00100B  33                 	db	51
   162   00100C  2D                 	db	45
   163   00100D  23                 	db	35
   164   00100E  30                 	db	48
   165   00100F  3D                 	db	61
   166   001010  2B                 	db	43
   167   001011                     __end_of_btn_values:
   168                           	callstack 0
   169   000000                     _TMR1L	set	4046
   170   000000                     _TMR1H	set	4047
   171   000000                     _TMR0L	set	4054
   172   000000                     _TMR0H	set	4055
   173   000000                     _INTCON2bits	set	4081
   174   000000                     _EECON2	set	4007
   175   000000                     _ADCON1bits	set	4033
   176   000000                     _ADRESL	set	4035
   177   000000                     _ADRESH	set	4036
   178   000000                     _INTCONbits	set	4082
   179   000000                     _TRISD	set	3989
   180   000000                     _TRISC	set	3988
   181   000000                     _TRISB	set	3987
   182   000000                     _TRISE	set	3990
   183   001011                     STR_1:
   184   001011  25                 	db	37
   185   001012  69                 	db	105	;'i'
   186   001013  00                 	db	0
   187   001014  00                 	db	0	; dummy byte at the end
   188   000000                     
   189                           	psect	nvCOMRAM
   190   00006F                     __pnvCOMRAM:
   191                           	callstack 0
   192   00006F                     _pre_work_out@hal_timer1$F2119:
   193                           	callstack 0
   194   00006F                     	ds	2
   195   000000                     _PORTBbits	set	3969
   196   000000                     _PIE1bits	set	3997
   197   000000                     _ADCON2bits	set	4032
   198   000000                     _ADCON0bits	set	4034
   199   000000                     _PORTE	set	3972
   200   000000                     _PORTD	set	3971
   201   000000                     _PORTC	set	3970
   202   000000                     _PORTB	set	3969
   203   000000                     _PORTA	set	3968
   204   000000                     _LATA	set	3977
   205   000000                     _TRISA	set	3986
   206   000000                     _EECON1bits	set	4006
   207   000000                     _EEDATA	set	4008
   208   000000                     _EEADR	set	4009
   209   000000                     _EEADRH	set	4010
   210   000000                     _PIR1bits	set	3998
   211   000000                     _T2CONbits	set	4042
   212   000000                     _T1CONbits	set	4045
   213   000000                     _T0CONbits	set	4053
   214   000000                     _INTCON3bits	set	4080
   215   000000                     _LATE	set	3981
   216   000000                     _LATD	set	3980
   217   000000                     _LATC	set	3979
   218   000000                     _LATB	set	3978
   219   000000                     _TMR2	set	4044
   220                           
   221                           ; #config settings
   222                           
   223                           	psect	cinit
   224   001776                     __pcinit:
   225                           	callstack 0
   226   001776                     start_initialization:
   227                           	callstack 0
   228   001776                     __initialization:
   229                           	callstack 0
   230                           
   231                           ; Initialize objects allocated to COMRAM (43 bytes)
   232                           ; load TBLPTR registers with __pidataCOMRAM
   233   001776  0EE2               	movlw	low __pidataCOMRAM
   234   001778  6EF6               	movwf	tblptrl,c
   235   00177A  0E17               	movlw	high __pidataCOMRAM
   236   00177C  6EF7               	movwf	tblptrh,c
   237   00177E  0E00               	movlw	low (__pidataCOMRAM shr (0+16))
   238   001780  6EF8               	movwf	tblptru,c
   239   001782  EE00  F001         	lfsr	0,__pdataCOMRAM
   240   001786  EE10 F02B          	lfsr	1,43
   241   00178A                     copy_data0:
   242   00178A  0009               	tblrd		*+
   243   00178C  CFF5 FFEE          	movff	tablat,postinc0
   244   001790  50E5               	movf	postdec1,w,c
   245   001792  50E1               	movf	fsr1l,w,c
   246   001794  E1FA               	bnz	copy_data0
   247                           
   248                           ; Clear objects allocated to COMRAM (42 bytes)
   249   001796  EE00  F02C         	lfsr	0,__pbssCOMRAM
   250   00179A  0E2A               	movlw	42
   251   00179C                     clear_0:
   252   00179C  6AEE               	clrf	postinc0,c
   253   00179E  06E8               	decf	wreg,f,c
   254   0017A0  E1FD               	bnz	clear_0
   255   0017A2                     end_of_initialization:
   256                           	callstack 0
   257   0017A2                     __end_of__initialization:
   258                           	callstack 0
   259   0017A2  9071               	bcf	int$flags,0,c	;clear compiler interrupt flag (level 1)
   260   0017A4  9271               	bcf	int$flags,1,c	;clear compiler interrupt flag (level 2)
   261   0017A6  0100               	movlb	0
   262   0017A8  EF47  F00C         	goto	_main	;jump to C main() function
   263                           
   264                           	psect	bssCOMRAM
   265   00002C                     __pbssCOMRAM:
   266                           	callstack 0
   267   00002C                     _val:
   268                           	callstack 0
   269   00002C                     	ds	2
   270   00002E                     _Timer2_Interrupt_Handler:
   271                           	callstack 0
   272   00002E                     	ds	2
   273   000030                     _Timer1_Interrupt_Handler:
   274                           	callstack 0
   275   000030                     	ds	2
   276   000032                     _pre_work_out:
   277                           	callstack 0
   278   000032                     	ds	2
   279   000034                     _Timer0_Interrupt_Handler:
   280                           	callstack 0
   281   000034                     	ds	2
   282   000036                     _RB7_Interrupt_Handler_Low:
   283                           	callstack 0
   284   000036                     	ds	2
   285   000038                     _RB7_Interrupt_Handler_High:
   286                           	callstack 0
   287   000038                     	ds	2
   288   00003A                     _RB6_Interrupt_Handler_Low:
   289                           	callstack 0
   290   00003A                     	ds	2
   291   00003C                     _RB6_Interrupt_Handler_High:
   292                           	callstack 0
   293   00003C                     	ds	2
   294   00003E                     _RB5_Interrupt_Handler_Low:
   295                           	callstack 0
   296   00003E                     	ds	2
   297   000040                     _RB5_Interrupt_Handler_High:
   298                           	callstack 0
   299   000040                     	ds	2
   300   000042                     _RB4_Interrupt_Handler_Low:
   301                           	callstack 0
   302   000042                     	ds	2
   303   000044                     _RB4_Interrupt_Handler_High:
   304                           	callstack 0
   305   000044                     	ds	2
   306   000046                     _INT2_Interrupt_Handler:
   307                           	callstack 0
   308   000046                     	ds	2
   309   000048                     _INT1_Interrupt_Handler:
   310                           	callstack 0
   311   000048                     	ds	2
   312   00004A                     _INT0_Interrupt_Handler:
   313                           	callstack 0
   314   00004A                     	ds	2
   315   00004C                     __ADC_Interrupt_Handler:
   316                           	callstack 0
   317   00004C                     	ds	2
   318   00004E                     _pre:
   319                           	callstack 0
   320   00004E                     	ds	1
   321   00004F                     Relay_off@F3490:
   322                           	callstack 0
   323   00004F                     	ds	1
   324   000050                     Relay_on@F3485:
   325                           	callstack 0
   326   000050                     	ds	1
   327   000051                     Relay_initialize@F3480:
   328                           	callstack 0
   329   000051                     	ds	1
   330   000052                     led_toggle_status@F3497:
   331                           	callstack 0
   332   000052                     	ds	1
   333   000053                     led_turn_off@F3492:
   334                           	callstack 0
   335   000053                     	ds	1
   336   000054                     led_turn_on@F3487:
   337                           	callstack 0
   338   000054                     	ds	1
   339   000055                     led_intialize@F3482:
   340                           	callstack 0
   341   000055                     	ds	1
   342                           
   343                           	psect	dataCOMRAM
   344   000001                     __pdataCOMRAM:
   345                           	callstack 0
   346   000001                     _port_registers:
   347                           	callstack 0
   348   000001                     	ds	10
   349   00000B                     _lat_registers:
   350                           	callstack 0
   351   00000B                     	ds	10
   352   000015                     _tris_registers:
   353                           	callstack 0
   354   000015                     	ds	10
   355   00001F                     _ret:
   356                           	callstack 0
   357   00001F                     	ds	1
   358   000020                     _RB7_f:
   359                           	callstack 0
   360   000020                     	ds	1
   361   000021                     _RB6_f:
   362                           	callstack 0
   363   000021                     	ds	1
   364   000022                     _RB5_f:
   365                           	callstack 0
   366   000022                     	ds	1
   367   000023                     _RB4_f:
   368                           	callstack 0
   369   000023                     	ds	1
   370   000024                     _timer1:
   371                           	callstack 0
   372   000024                     	ds	7
   373   00002B                     _led:
   374                           	callstack 0
   375   00002B                     	ds	1
   376                           
   377                           	psect	cstackBANK0
   378   000080                     __pcstackBANK0:
   379                           	callstack 0
   380   000080                     led_intialize@Led:
   381                           	callstack 0
   382                           
   383                           ; 1 bytes @ 0x0
   384   000080                     	ds	1
   385   000081                     ??_led_intialize:
   386                           
   387                           ; 1 bytes @ 0x1
   388   000081                     	ds	1
   389   000082                     led_intialize@pin_obj:
   390                           	callstack 0
   391                           
   392                           ; 1 bytes @ 0x2
   393   000082                     	ds	1
   394                           
   395                           	psect	cstackCOMRAM
   396   000056                     __pcstackCOMRAM:
   397                           	callstack 0
   398   000056                     gpio_pin_toggle_logic@_pin_config:
   399                           	callstack 0
   400   000056                     RB4_ISR@source:
   401                           	callstack 0
   402   000056                     RB5_ISR@source:
   403                           	callstack 0
   404   000056                     RB6_ISR@source:
   405                           	callstack 0
   406   000056                     RB7_ISR@source:
   407                           	callstack 0
   408                           
   409                           ; 1 bytes @ 0x0
   410   000056                     	ds	1
   411   000057                     ??_gpio_pin_toggle_logic:
   412                           
   413                           ; 1 bytes @ 0x1
   414   000057                     	ds	4
   415   00005B                     led_toggle_status@Led:
   416                           	callstack 0
   417                           
   418                           ; 1 bytes @ 0x5
   419   00005B                     	ds	1
   420   00005C                     ??_led_toggle_status:
   421                           
   422                           ; 1 bytes @ 0x6
   423   00005C                     	ds	1
   424   00005D                     led_toggle_status@pin_obj:
   425                           	callstack 0
   426                           
   427                           ; 1 bytes @ 0x7
   428   00005D                     	ds	1
   429   00005E                     ??_Interrupt_Manager_High:
   430   00005E                     
   431                           ; 1 bytes @ 0x8
   432   00005E                     	ds	6
   433   000064                     gpio_pin_direction_intialize@_pin_config:
   434                           	callstack 0
   435   000064                     gpio_pin_write_logic@_pin_config:
   436                           	callstack 0
   437   000064                     Timer1_Mode_Config@timer:
   438                           	callstack 0
   439                           
   440                           ; 1 bytes @ 0xE
   441   000064                     	ds	1
   442   000065                     ??_gpio_pin_direction_intialize:
   443   000065                     gpio_pin_write_logic@logic_:
   444                           	callstack 0
   445   000065                     Timer1_Init@timer:
   446                           	callstack 0
   447                           
   448                           ; 1 bytes @ 0xF
   449   000065                     	ds	1
   450   000066                     ??_gpio_pin_write_logic:
   451   000066                     ??_Timer1_Init:
   452                           
   453                           ; 1 bytes @ 0x10
   454   000066                     	ds	4
   455   00006A                     gpio_pin_direction_intialize@ret:
   456                           	callstack 0
   457                           
   458                           ; 1 bytes @ 0x14
   459   00006A                     	ds	1
   460   00006B                     gpio_pin_write_logic@ret:
   461                           	callstack 0
   462                           
   463                           ; 1 bytes @ 0x15
   464   00006B                     	ds	1
   465   00006C                     gpio_pin_initialize@_pin_config:
   466                           	callstack 0
   467                           
   468                           ; 1 bytes @ 0x16
   469   00006C                     	ds	1
   470   00006D                     ??_gpio_pin_initialize:
   471                           
   472                           ; 1 bytes @ 0x17
   473   00006D                     	ds	1
   474   00006E                     gpio_pin_initialize@ret:
   475                           	callstack 0
   476                           
   477                           ; 1 bytes @ 0x18
   478   00006E                     	ds	1
   479   00006F                     
   480                           ; 1 bytes @ 0x19
   481 ;;
   482 ;;Main: autosize = 0, tempsize = 0, incstack = 0, save=0
   483 ;;
   484 ;; *************** function _main *****************
   485 ;; Defined at:
   486 ;;		line 33 in file "app.c"
   487 ;; Parameters:    Size  Location     Type
   488 ;;		None
   489 ;; Auto vars:     Size  Location     Type
   490 ;;		None
   491 ;; Return value:  Size  Location     Type
   492 ;;                  2  1017[None  ] int 
   493 ;; Registers used:
   494 ;;		wreg, fsr2l, fsr2h, status,2, status,0, prodl, prodh, cstack
   495 ;; Tracked objects:
   496 ;;		On entry : 0/0
   497 ;;		On exit  : 0/0
   498 ;;		Unchanged: 0/0
   499 ;; Data sizes:     COMRAM   BANK0   BANK1   BANK2   BANK3   BANK4   BANK5   BANK6   BANK7   BANK8   BANK9  BANK10  BANK1
      +1  BANK12  BANK13  BANK14  BANK15
   500 ;;      Params:         0       0       0       0       0       0       0       0       0       0       0       0       
      +0       0       0       0       0
   501 ;;      Locals:         0       0       0       0       0       0       0       0       0       0       0       0       
      +0       0       0       0       0
   502 ;;      Temps:          0       0       0       0       0       0       0       0       0       0       0       0       
      +0       0       0       0       0
   503 ;;      Totals:         0       0       0       0       0       0       0       0       0       0       0       0       
      +0       0       0       0       0
   504 ;;Total ram usage:        0 bytes
   505 ;; Hardware stack levels required when called: 9
   506 ;; This function calls:
   507 ;;		_Application_initialize
   508 ;; This function is called by:
   509 ;;		Startup code after reset
   510 ;; This function uses a non-reentrant model
   511 ;;
   512                           
   513                           	psect	text0
   514   00188E                     __ptext0:
   515                           	callstack 0
   516   00188E                     _main:
   517                           	callstack 22
   518   00188E                     
   519                           ;app.c: 35:     Application_initialize();
   520   00188E  EC3B  F00C         	call	_Application_initialize	;wreg free
   521   001892                     l1018:
   522   001892  EF49  F00C         	goto	l1018
   523   001896  EF07  F000         	goto	start
   524   00189A                     __end_of_main:
   525                           	callstack 0
   526                           
   527 ;; *************** function _Application_initialize *****************
   528 ;; Defined at:
   529 ;;		line 45 in file "app.c"
   530 ;; Parameters:    Size  Location     Type
   531 ;;		None
   532 ;; Auto vars:     Size  Location     Type
   533 ;;		None
   534 ;; Return value:  Size  Location     Type
   535 ;;                  1    wreg      void 
   536 ;; Registers used:
   537 ;;		wreg, fsr2l, fsr2h, status,2, status,0, prodl, prodh, cstack
   538 ;; Tracked objects:
   539 ;;		On entry : 0/0
   540 ;;		On exit  : 0/0
   541 ;;		Unchanged: 0/0
   542 ;; Data sizes:     COMRAM   BANK0   BANK1   BANK2   BANK3   BANK4   BANK5   BANK6   BANK7   BANK8   BANK9  BANK10  BANK1
      +1  BANK12  BANK13  BANK14  BANK15
   543 ;;      Params:         0       0       0       0       0       0       0       0       0       0       0       0       
      +0       0       0       0       0
   544 ;;      Locals:         0       0       0       0       0       0       0       0       0       0       0       0       
      +0       0       0       0       0
   545 ;;      Temps:          0       0       0       0       0       0       0       0       0       0       0       0       
      +0       0       0       0       0
   546 ;;      Totals:         0       0       0       0       0       0       0       0       0       0       0       0       
      +0       0       0       0       0
   547 ;;Total ram usage:        0 bytes
   548 ;; Hardware stack levels used: 1
   549 ;; Hardware stack levels required when called: 8
   550 ;; This function calls:
   551 ;;		_Timer1_Init
   552 ;;		_ecu_layer_initialize
   553 ;;		_led_intialize
   554 ;; This function is called by:
   555 ;;		_main
   556 ;; This function uses a non-reentrant model
   557 ;;
   558                           
   559                           	psect	text1
   560   001876                     __ptext1:
   561                           	callstack 0
   562   001876                     _Application_initialize:
   563                           	callstack 22
   564   001876                     
   565                           ;app.c: 47:     ecu_layer_initialize();
   566   001876  EC64  F00C         	call	_ecu_layer_initialize	;wreg free
   567   00187A                     
   568                           ;app.c: 48:     Timer1_Init(&timer1);
   569   00187A  0E24               	movlw	low _timer1
   570   00187C  6E65               	movwf	Timer1_Init@timer^0,c
   571   00187E  EC5F  F00A         	call	_Timer1_Init	;wreg free
   572   001882                     
   573                           ;app.c: 49:     led_intialize(&led);
   574   001882  0E2B               	movlw	low _led
   575   001884  0100               	movlb	0	; () banked
   576   001886  6F80               	movwf	led_intialize@Led& (0+255),b
   577   001888  EC20  F00B         	call	_led_intialize	;wreg free
   578   00188C  0012               	return		;funcret
   579   00188E                     __end_of_Application_initialize:
   580                           	callstack 0
   581                           
   582 ;; *************** function _led_intialize *****************
   583 ;; Defined at:
   584 ;;		line 12 in file "ECU_LAYER/Led/ecu_led.c"
   585 ;; Parameters:    Size  Location     Type
   586 ;;  Led             1    0[BANK0 ] PTR const struct .
   587 ;;		 -> led(1), 
   588 ;; Auto vars:     Size  Location     Type
   589 ;;  pin_obj         1    2[BANK0 ] struct .
   590 ;;  ret             1    0        unsigned char 
   591 ;; Return value:  Size  Location     Type
   592 ;;                  1    wreg      unsigned char 
   593 ;; Registers used:
   594 ;;		wreg, fsr2l, fsr2h, status,2, status,0, prodl, prodh, cstack
   595 ;; Tracked objects:
   596 ;;		On entry : 0/0
   597 ;;		On exit  : 0/0
   598 ;;		Unchanged: 0/0
   599 ;; Data sizes:     COMRAM   BANK0   BANK1   BANK2   BANK3   BANK4   BANK5   BANK6   BANK7   BANK8   BANK9  BANK10  BANK1
      +1  BANK12  BANK13  BANK14  BANK15
   600 ;;      Params:         0       1       0       0       0       0       0       0       0       0       0       0       
      +0       0       0       0       0
   601 ;;      Locals:         0       1       0       0       0       0       0       0       0       0       0       0       
      +0       0       0       0       0
   602 ;;      Temps:          0       1       0       0       0       0       0       0       0       0       0       0       
      +0       0       0       0       0
   603 ;;      Totals:         0       3       0       0       0       0       0       0       0       0       0       0       
      +0       0       0       0       0
   604 ;;Total ram usage:        3 bytes
   605 ;; Hardware stack levels used: 1
   606 ;; Hardware stack levels required when called: 7
   607 ;; This function calls:
   608 ;;		_gpio_pin_initialize
   609 ;; This function is called by:
   610 ;;		_Application_initialize
   611 ;; This function uses a non-reentrant model
   612 ;;
   613                           
   614                           	psect	text2
   615   001640                     __ptext2:
   616                           	callstack 0
   617   001640                     _led_intialize:
   618                           	callstack 22
   619   001640                     
   620                           ;ECU_LAYER/Led/ecu_led.c: 14:     if (((void*)0) == Led) {
   621   001640  0100               	movlb	0	; () banked
   622   001642  5180               	movf	led_intialize@Led& (0+255),w,b
   623   001644  A4D8               	btfss	status,2,c
   624   001646  EF27  F00B         	goto	u3321
   625   00164A  EF29  F00B         	goto	u3320
   626   00164E                     u3321:
   627   00164E  EF2B  F00B         	goto	l251
   628   001652                     u3320:
   629   001652                     
   630                           ; BSR set to: 0
   631                           ;ECU_LAYER/Led/ecu_led.c: 16:     } else {
   632   001652  EF56  F00B         	goto	l255
   633   001656                     l251:
   634                           
   635                           ; BSR set to: 0
   636                           ;ECU_LAYER/Led/ecu_led.c: 18:         pin_config_t pin_obj = {
   637   001656  C055  F082         	movff	led_intialize@F3482,led_intialize@pin_obj
   638   00165A                     
   639                           ; BSR set to: 0
   640   00165A  5180               	movf	led_intialize@Led& (0+255),w,b
   641   00165C  6ED9               	movwf	fsr2l,c
   642   00165E  6ADA               	clrf	fsr2h,c
   643   001660  50DF               	movf	223,w,c
   644   001662  0B07               	andlw	7
   645   001664  6F81               	movwf	??_led_intialize& (0+255),b
   646   001666  5182               	movf	led_intialize@pin_obj& (0+255),w,b
   647   001668  1981               	xorwf	??_led_intialize& (0+255),w,b
   648   00166A  0BF8               	andlw	-8
   649   00166C  1981               	xorwf	??_led_intialize& (0+255),w,b
   650   00166E  6F82               	movwf	led_intialize@pin_obj& (0+255),b
   651   001670  5180               	movf	led_intialize@Led& (0+255),w,b
   652   001672  6ED9               	movwf	fsr2l,c
   653   001674  6ADA               	clrf	fsr2h,c
   654   001676  30DF               	rrcf	223,w,c
   655   001678  32E8               	rrcf	wreg,f,c
   656   00167A  32E8               	rrcf	wreg,f,c
   657   00167C  0B07               	andlw	7
   658   00167E  6F81               	movwf	??_led_intialize& (0+255),b
   659   001680  4781               	rlncf	??_led_intialize& (0+255),f,b
   660   001682  4781               	rlncf	??_led_intialize& (0+255),f,b
   661   001684  4781               	rlncf	??_led_intialize& (0+255),f,b
   662   001686  5182               	movf	led_intialize@pin_obj& (0+255),w,b
   663   001688  1981               	xorwf	??_led_intialize& (0+255),w,b
   664   00168A  0BC7               	andlw	-57
   665   00168C  1981               	xorwf	??_led_intialize& (0+255),w,b
   666   00168E  6F82               	movwf	led_intialize@pin_obj& (0+255),b
   667   001690                     
   668                           ; BSR set to: 0
   669   001690  9D82               	bcf	led_intialize@pin_obj& (0+255),6,b
   670   001692                     
   671                           ; BSR set to: 0
   672   001692  5180               	movf	led_intialize@Led& (0+255),w,b
   673   001694  6ED9               	movwf	fsr2l,c
   674   001696  6ADA               	clrf	fsr2h,c
   675   001698  ACDF               	btfss	indf2,6,c
   676   00169A  D002               	bra	u3335
   677   00169C  8F82               	bsf	led_intialize@pin_obj& (0+255),7,b
   678   00169E  D002               	bra	u3337
   679   0016A0                     u3335:
   680   0016A0  0100               	movlb	0	; () banked
   681   0016A2  9F82               	bcf	led_intialize@pin_obj& (0+255),7,b
   682   0016A4                     u3337:
   683   0016A4                     
   684                           ; BSR set to: 0
   685                           ;ECU_LAYER/Led/ecu_led.c: 24:         gpio_pin_initialize(&pin_obj);
   686   0016A4  0E82               	movlw	low led_intialize@pin_obj
   687   0016A6  6E6C               	movwf	gpio_pin_initialize@_pin_config^0,c
   688   0016A8  EC8C  F00B         	call	_gpio_pin_initialize	;wreg free
   689   0016AC                     l255:
   690   0016AC  0012               	return		;funcret
   691   0016AE                     __end_of_led_intialize:
   692                           	callstack 0
   693                           
   694 ;; *************** function _gpio_pin_initialize *****************
   695 ;; Defined at:
   696 ;;		line 101 in file "MCAL_Layer/GPIO/hal_gpio.c"
   697 ;; Parameters:    Size  Location     Type
   698 ;;  _pin_config     1   22[COMRAM] PTR const struct .
   699 ;;		 -> Relay_initialize@pin_obj(1), led_intialize@pin_obj(1), 
   700 ;; Auto vars:     Size  Location     Type
   701 ;;  ret             1   24[COMRAM] unsigned char 
   702 ;; Return value:  Size  Location     Type
   703 ;;                  1    wreg      unsigned char 
   704 ;; Registers used:
   705 ;;		wreg, fsr2l, fsr2h, status,2, status,0, prodl, prodh, cstack
   706 ;; Tracked objects:
   707 ;;		On entry : 0/0
   708 ;;		On exit  : 0/0
   709 ;;		Unchanged: 0/0
   710 ;; Data sizes:     COMRAM   BANK0   BANK1   BANK2   BANK3   BANK4   BANK5   BANK6   BANK7   BANK8   BANK9  BANK10  BANK1
      +1  BANK12  BANK13  BANK14  BANK15
   711 ;;      Params:         1       0       0       0       0       0       0       0       0       0       0       0       
      +0       0       0       0       0
   712 ;;      Locals:         1       0       0       0       0       0       0       0       0       0       0       0       
      +0       0       0       0       0
   713 ;;      Temps:          1       0       0       0       0       0       0       0       0       0       0       0       
      +0       0       0       0       0
   714 ;;      Totals:         3       0       0       0       0       0       0       0       0       0       0       0       
      +0       0       0       0       0
   715 ;;Total ram usage:        3 bytes
   716 ;; Hardware stack levels used: 1
   717 ;; Hardware stack levels required when called: 6
   718 ;; This function calls:
   719 ;;		_gpio_pin_direction_intialize
   720 ;;		_gpio_pin_write_logic
   721 ;; This function is called by:
   722 ;;		_led_intialize
   723 ;;		_button_intialize
   724 ;;		_lcd_4bit_initailize
   725 ;;		_lcd_8bit_initailize
   726 ;;		_Dc_motor_initialize
   727 ;;		_keypad_initialize
   728 ;;		_Relay_initialize
   729 ;;		_Seven_Segm_initailize
   730 ;;		_Interrupt_INTx_Pin_Init
   731 ;; This function uses a non-reentrant model
   732 ;;
   733                           
   734                           	psect	text3
   735   001718                     __ptext3:
   736                           	callstack 0
   737   001718                     _gpio_pin_initialize:
   738                           	callstack 22
   739   001718                     
   740                           ;MCAL_Layer/GPIO/hal_gpio.c: 102:     Std_ReturnType ret = (Std_ReturnType)0X01;
   741   001718  0E01               	movlw	1
   742   00171A  6E6E               	movwf	gpio_pin_initialize@ret^0,c
   743                           
   744                           ;MCAL_Layer/GPIO/hal_gpio.c: 103:     if (((void*)0) == _pin_config || _pin_config->pin 
      +                          > 8 - 1) {
   745   00171C  506C               	movf	gpio_pin_initialize@_pin_config^0,w,c
   746   00171E  B4D8               	btfsc	status,2,c
   747   001720  EF94  F00B         	goto	u3241
   748   001724  EF96  F00B         	goto	u3240
   749   001728                     u3241:
   750   001728  EFA6  F00B         	goto	l4451
   751   00172C                     u3240:
   752   00172C  506C               	movf	gpio_pin_initialize@_pin_config^0,w,c
   753   00172E  6ED9               	movwf	fsr2l,c
   754   001730  6ADA               	clrf	fsr2h,c
   755   001732  30DF               	rrcf	223,w,c
   756   001734  32E8               	rrcf	wreg,f,c
   757   001736  32E8               	rrcf	wreg,f,c
   758   001738  0B07               	andlw	7
   759   00173A  6E6D               	movwf	??_gpio_pin_initialize^0,c
   760   00173C  0E07               	movlw	7
   761   00173E  646D               	cpfsgt	??_gpio_pin_initialize^0,c
   762   001740  EFA4  F00B         	goto	u3251
   763   001744  EFA6  F00B         	goto	u3250
   764   001748                     u3251:
   765   001748  EFAA  F00B         	goto	l4453
   766   00174C                     u3250:
   767   00174C                     l4451:
   768                           
   769                           ;MCAL_Layer/GPIO/hal_gpio.c: 104:         ret = (Std_ReturnType)0X00;
   770   00174C  0E00               	movlw	0
   771   00174E  6E6E               	movwf	gpio_pin_initialize@ret^0,c
   772                           
   773                           ;MCAL_Layer/GPIO/hal_gpio.c: 105:     } else {
   774   001750  EFB9  F00B         	goto	l4455
   775   001754                     l4453:
   776                           
   777                           ;MCAL_Layer/GPIO/hal_gpio.c: 106:         gpio_pin_direction_intialize(_pin_config);
   778   001754  C06C  F064         	movff	gpio_pin_initialize@_pin_config,gpio_pin_direction_intialize@_pin_config
   779   001758  EC44  F009         	call	_gpio_pin_direction_intialize	;wreg free
   780                           
   781                           ;MCAL_Layer/GPIO/hal_gpio.c: 107:         gpio_pin_write_logic(_pin_config, _pin_config-
      +                          >logic);
   782   00175C  C06C  F064         	movff	gpio_pin_initialize@_pin_config,gpio_pin_write_logic@_pin_config
   783   001760  506C               	movf	gpio_pin_initialize@_pin_config^0,w,c
   784   001762  6ED9               	movwf	fsr2l,c
   785   001764  6ADA               	clrf	fsr2h,c
   786   001766  0E00               	movlw	0
   787   001768  BEDF               	btfsc	indf2,7,c
   788   00176A  0E01               	movlw	1
   789   00176C  6E65               	movwf	gpio_pin_write_logic@logic_^0,c
   790   00176E  ECD7  F009         	call	_gpio_pin_write_logic	;wreg free
   791   001772                     l4455:
   792                           
   793                           ;MCAL_Layer/GPIO/hal_gpio.c: 110:     return ret;
   794   001772  506E               	movf	gpio_pin_initialize@ret^0,w,c
   795   001774  0012               	return		;funcret
   796   001776                     __end_of_gpio_pin_initialize:
   797                           	callstack 0
   798                           
   799 ;; *************** function _gpio_pin_write_logic *****************
   800 ;; Defined at:
   801 ;;		line 55 in file "MCAL_Layer/GPIO/hal_gpio.c"
   802 ;; Parameters:    Size  Location     Type
   803 ;;  _pin_config     1   14[COMRAM] PTR const struct .
   804 ;;		 -> Relay_off@pin_obj(1), Relay_on@pin_obj(1), Relay_initialize@pin_obj(1), led_turn_off@pin_obj(1), 
   805 ;;		 -> led_turn_on@pin_obj(1), led_intialize@pin_obj(1), 
   806 ;;  logic_          1   15[COMRAM] enum E3402
   807 ;; Auto vars:     Size  Location     Type
   808 ;;  ret             1   21[COMRAM] unsigned char 
   809 ;; Return value:  Size  Location     Type
   810 ;;                  1    wreg      unsigned char 
   811 ;; Registers used:
   812 ;;		wreg, fsr2l, fsr2h, status,2, status,0, prodl, prodh
   813 ;; Tracked objects:
   814 ;;		On entry : 0/0
   815 ;;		On exit  : 0/0
   816 ;;		Unchanged: 0/0
   817 ;; Data sizes:     COMRAM   BANK0   BANK1   BANK2   BANK3   BANK4   BANK5   BANK6   BANK7   BANK8   BANK9  BANK10  BANK1
      +1  BANK12  BANK13  BANK14  BANK15
   818 ;;      Params:         2       0       0       0       0       0       0       0       0       0       0       0       
      +0       0       0       0       0
   819 ;;      Locals:         1       0       0       0       0       0       0       0       0       0       0       0       
      +0       0       0       0       0
   820 ;;      Temps:          5       0       0       0       0       0       0       0       0       0       0       0       
      +0       0       0       0       0
   821 ;;      Totals:         8       0       0       0       0       0       0       0       0       0       0       0       
      +0       0       0       0       0
   822 ;;Total ram usage:        8 bytes
   823 ;; Hardware stack levels used: 1
   824 ;; Hardware stack levels required when called: 5
   825 ;; This function calls:
   826 ;;		Nothing
   827 ;; This function is called by:
   828 ;;		_gpio_pin_initialize
   829 ;;		_lcd_4bit_send_command
   830 ;;		_lcd_4bit_send_char_data
   831 ;;		_lcd_8bit_send_command
   832 ;;		_lcd_8bit_send_char_data
   833 ;;		_lcd_8bits_send_enable
   834 ;;		_lcd_4bits_send_enable
   835 ;;		_lcd_4bits_command
   836 ;;		_Dc_motor_rotate_right
   837 ;;		_Dc_motor_rotate_left
   838 ;;		_Dc_motor_stop
   839 ;;		_keypad_get_value
   840 ;;		_led_turn_on
   841 ;;		_led_turn_off
   842 ;;		_Relay_on
   843 ;;		_Relay_off
   844 ;;		_Seven_Segm_Display_Number
   845 ;; This function uses a non-reentrant model
   846 ;;
   847                           
   848                           	psect	text4
   849   0013AE                     __ptext4:
   850                           	callstack 0
   851   0013AE                     _gpio_pin_write_logic:
   852                           	callstack 22
   853   0013AE                     
   854                           ;MCAL_Layer/GPIO/hal_gpio.c: 56:     Std_ReturnType ret = (Std_ReturnType)0X01;
   855   0013AE  0E01               	movlw	1
   856   0013B0  6E6B               	movwf	gpio_pin_write_logic@ret^0,c
   857                           
   858                           ;MCAL_Layer/GPIO/hal_gpio.c: 57:     if (((void*)0) == _pin_config || _pin_config->pin >
      +                           8 - 1) {
   859   0013B2  5064               	movf	gpio_pin_write_logic@_pin_config^0,w,c
   860   0013B4  B4D8               	btfsc	status,2,c
   861   0013B6  EFDF  F009         	goto	u3141
   862   0013BA  EFE1  F009         	goto	u3140
   863   0013BE                     u3141:
   864   0013BE  EFF1  F009         	goto	l4405
   865   0013C2                     u3140:
   866   0013C2  5064               	movf	gpio_pin_write_logic@_pin_config^0,w,c
   867   0013C4  6ED9               	movwf	fsr2l,c
   868   0013C6  6ADA               	clrf	fsr2h,c
   869   0013C8  30DF               	rrcf	223,w,c
   870   0013CA  32E8               	rrcf	wreg,f,c
   871   0013CC  32E8               	rrcf	wreg,f,c
   872   0013CE  0B07               	andlw	7
   873   0013D0  6E66               	movwf	??_gpio_pin_write_logic^0,c
   874   0013D2  0E07               	movlw	7
   875   0013D4  6466               	cpfsgt	??_gpio_pin_write_logic^0,c
   876   0013D6  EFEF  F009         	goto	u3151
   877   0013DA  EFF1  F009         	goto	u3150
   878   0013DE                     u3151:
   879   0013DE  EF48  F00A         	goto	l4415
   880   0013E2                     u3150:
   881   0013E2                     l4405:
   882                           
   883                           ;MCAL_Layer/GPIO/hal_gpio.c: 58:         ret = (Std_ReturnType)0X00;
   884   0013E2  0E00               	movlw	0
   885   0013E4  6E6B               	movwf	gpio_pin_write_logic@ret^0,c
   886                           
   887                           ;MCAL_Layer/GPIO/hal_gpio.c: 59:     } else {
   888   0013E6  EF5D  F00A         	goto	l4417
   889   0013EA                     l4407:
   890                           
   891                           ;MCAL_Layer/GPIO/hal_gpio.c: 63:                 (*lat_registers[_pin_config->port] |= (
      +                          (uint8)1 << _pin_config->pin));
   892   0013EA  5064               	movf	gpio_pin_write_logic@_pin_config^0,w,c
   893   0013EC  6ED9               	movwf	fsr2l,c
   894   0013EE  6ADA               	clrf	fsr2h,c
   895   0013F0  30DF               	rrcf	223,w,c
   896   0013F2  32E8               	rrcf	wreg,f,c
   897   0013F4  32E8               	rrcf	wreg,f,c
   898   0013F6  0B07               	andlw	7
   899   0013F8  6E66               	movwf	??_gpio_pin_write_logic^0,c
   900   0013FA  0E01               	movlw	1
   901   0013FC  6E67               	movwf	(??_gpio_pin_write_logic+1)^0,c
   902   0013FE  2A66               	incf	??_gpio_pin_write_logic^0,f,c
   903   001400  EF04  F00A         	goto	u3164
   904   001404                     u3165:
   905   001404  90D8               	bcf	status,0,c
   906   001406  3667               	rlcf	(??_gpio_pin_write_logic+1)^0,f,c
   907   001408                     u3164:
   908   001408  2E66               	decfsz	??_gpio_pin_write_logic^0,f,c
   909   00140A  EF02  F00A         	goto	u3165
   910   00140E  5064               	movf	gpio_pin_write_logic@_pin_config^0,w,c
   911   001410  6ED9               	movwf	fsr2l,c
   912   001412  6ADA               	clrf	fsr2h,c
   913   001414  50DF               	movf	223,w,c
   914   001416  0B07               	andlw	7
   915   001418  0D02               	mullw	2
   916   00141A  50F3               	movf	243,w,c
   917   00141C  0F0B               	addlw	low _lat_registers
   918   00141E  6ED9               	movwf	fsr2l,c
   919   001420  6ADA               	clrf	fsr2h,c
   920   001422  CFDE F068          	movff	postinc2,??_gpio_pin_write_logic+2
   921   001426  CFDD F069          	movff	postdec2,??_gpio_pin_write_logic+3
   922   00142A  C068  FFD9         	movff	??_gpio_pin_write_logic+2,fsr2l
   923   00142E  C069  FFDA         	movff	??_gpio_pin_write_logic+3,fsr2h
   924   001432  5067               	movf	(??_gpio_pin_write_logic+1)^0,w,c
   925   001434  12DF               	iorwf	indf2,f,c
   926                           
   927                           ;MCAL_Layer/GPIO/hal_gpio.c: 64:                 break;
   928   001436  EF5D  F00A         	goto	l4417
   929   00143A                     l4409:
   930                           
   931                           ;MCAL_Layer/GPIO/hal_gpio.c: 67:                 (*lat_registers[_pin_config->port] &= ~
      +                          ((uint8)1 << _pin_config->pin));
   932   00143A  5064               	movf	gpio_pin_write_logic@_pin_config^0,w,c
   933   00143C  6ED9               	movwf	fsr2l,c
   934   00143E  6ADA               	clrf	fsr2h,c
   935   001440  30DF               	rrcf	223,w,c
   936   001442  32E8               	rrcf	wreg,f,c
   937   001444  32E8               	rrcf	wreg,f,c
   938   001446  0B07               	andlw	7
   939   001448  6E66               	movwf	??_gpio_pin_write_logic^0,c
   940   00144A  0E01               	movlw	1
   941   00144C  6E67               	movwf	(??_gpio_pin_write_logic+1)^0,c
   942   00144E  2A66               	incf	??_gpio_pin_write_logic^0,f,c
   943   001450  EF2C  F00A         	goto	u3174
   944   001454                     u3175:
   945   001454  90D8               	bcf	status,0,c
   946   001456  3667               	rlcf	(??_gpio_pin_write_logic+1)^0,f,c
   947   001458                     u3174:
   948   001458  2E66               	decfsz	??_gpio_pin_write_logic^0,f,c
   949   00145A  EF2A  F00A         	goto	u3175
   950   00145E  5067               	movf	(??_gpio_pin_write_logic+1)^0,w,c
   951   001460  0AFF               	xorlw	255
   952   001462  6E68               	movwf	(??_gpio_pin_write_logic+2)^0,c
   953   001464  5064               	movf	gpio_pin_write_logic@_pin_config^0,w,c
   954   001466  6ED9               	movwf	fsr2l,c
   955   001468  6ADA               	clrf	fsr2h,c
   956   00146A  50DF               	movf	223,w,c
   957   00146C  0B07               	andlw	7
   958   00146E  0D02               	mullw	2
   959   001470  50F3               	movf	243,w,c
   960   001472  0F0B               	addlw	low _lat_registers
   961   001474  6ED9               	movwf	fsr2l,c
   962   001476  6ADA               	clrf	fsr2h,c
   963   001478  CFDE F069          	movff	postinc2,??_gpio_pin_write_logic+3
   964   00147C  CFDD F06A          	movff	postdec2,??_gpio_pin_write_logic+4
   965   001480  C069  FFD9         	movff	??_gpio_pin_write_logic+3,fsr2l
   966   001484  C06A  FFDA         	movff	??_gpio_pin_write_logic+4,fsr2h
   967   001488  5068               	movf	(??_gpio_pin_write_logic+2)^0,w,c
   968   00148A  16DF               	andwf	indf2,f,c
   969                           
   970                           ;MCAL_Layer/GPIO/hal_gpio.c: 68:                 break;
   971   00148C  EF5D  F00A         	goto	l4417
   972   001490                     l4415:
   973   001490  5065               	movf	gpio_pin_write_logic@logic_^0,w,c
   974   001492  6E66               	movwf	??_gpio_pin_write_logic^0,c
   975   001494  6A67               	clrf	(??_gpio_pin_write_logic+1)^0,c
   976                           
   977                           ; Switch on 2 bytes has been partitioned into a top level switch of size 1, and 1 sub-sw
      +                          itches
   978                           ; Switch size 1, requested type "simple"
   979                           ; Number of cases is 1, Range of values is 0 to 0
   980                           ; switch strategies available:
   981                           ; Name         Instructions Cycles
   982                           ; simple_byte            4     3 (average)
   983                           ;	Chosen strategy is simple_byte
   984   001496  5067               	movf	(??_gpio_pin_write_logic+1)^0,w,c
   985   001498  0A00               	xorlw	0	; case 0
   986   00149A  B4D8               	btfsc	status,2,c
   987   00149C  EF52  F00A         	goto	l5195
   988   0014A0  EFF1  F009         	goto	l4405
   989   0014A4                     l5195:
   990                           
   991                           ; Switch size 1, requested type "simple"
   992                           ; Number of cases is 2, Range of values is 0 to 1
   993                           ; switch strategies available:
   994                           ; Name         Instructions Cycles
   995                           ; simple_byte            7     4 (average)
   996                           ;	Chosen strategy is simple_byte
   997   0014A4  5066               	movf	??_gpio_pin_write_logic^0,w,c
   998   0014A6  0A00               	xorlw	0	; case 0
   999   0014A8  B4D8               	btfsc	status,2,c
  1000   0014AA  EF1D  F00A         	goto	l4409
  1001   0014AE  0A01               	xorlw	1	; case 1
  1002   0014B0  B4D8               	btfsc	status,2,c
  1003   0014B2  EFF5  F009         	goto	l4407
  1004   0014B6  EFF1  F009         	goto	l4405
  1005   0014BA                     l4417:
  1006                           
  1007                           ;MCAL_Layer/GPIO/hal_gpio.c: 77:     return ret;
  1008   0014BA  506B               	movf	gpio_pin_write_logic@ret^0,w,c
  1009   0014BC  0012               	return		;funcret
  1010   0014BE                     __end_of_gpio_pin_write_logic:
  1011                           	callstack 0
  1012                           
  1013 ;; *************** function _gpio_pin_direction_intialize *****************
  1014 ;; Defined at:
  1015 ;;		line 19 in file "MCAL_Layer/GPIO/hal_gpio.c"
  1016 ;; Parameters:    Size  Location     Type
  1017 ;;  _pin_config     1   14[COMRAM] PTR const struct .
  1018 ;;		 -> Relay_initialize@pin_obj(1), led_intialize@pin_obj(1), 
  1019 ;; Auto vars:     Size  Location     Type
  1020 ;;  ret             1   20[COMRAM] unsigned char 
  1021 ;; Return value:  Size  Location     Type
  1022 ;;                  1    wreg      unsigned char 
  1023 ;; Registers used:
  1024 ;;		wreg, fsr2l, fsr2h, status,2, status,0, prodl, prodh
  1025 ;; Tracked objects:
  1026 ;;		On entry : 0/0
  1027 ;;		On exit  : 0/0
  1028 ;;		Unchanged: 0/0
  1029 ;; Data sizes:     COMRAM   BANK0   BANK1   BANK2   BANK3   BANK4   BANK5   BANK6   BANK7   BANK8   BANK9  BANK10  BANK1
      +1  BANK12  BANK13  BANK14  BANK15
  1030 ;;      Params:         1       0       0       0       0       0       0       0       0       0       0       0       
      +0       0       0       0       0
  1031 ;;      Locals:         1       0       0       0       0       0       0       0       0       0       0       0       
      +0       0       0       0       0
  1032 ;;      Temps:          5       0       0       0       0       0       0       0       0       0       0       0       
      +0       0       0       0       0
  1033 ;;      Totals:         7       0       0       0       0       0       0       0       0       0       0       0       
      +0       0       0       0       0
  1034 ;;Total ram usage:        7 bytes
  1035 ;; Hardware stack levels used: 1
  1036 ;; Hardware stack levels required when called: 5
  1037 ;; This function calls:
  1038 ;;		Nothing
  1039 ;; This function is called by:
  1040 ;;		_gpio_pin_initialize
  1041 ;;		_Interrupt_RBx_Init
  1042 ;; This function uses a non-reentrant model
  1043 ;;
  1044                           
  1045                           	psect	text5
  1046   001288                     __ptext5:
  1047                           	callstack 0
  1048   001288                     _gpio_pin_direction_intialize:
  1049                           	callstack 22
  1050   001288                     
  1051                           ;MCAL_Layer/GPIO/hal_gpio.c: 20:     Std_ReturnType ret = (Std_ReturnType)0X01;
  1052   001288  0E01               	movlw	1
  1053   00128A  6E6A               	movwf	gpio_pin_direction_intialize@ret^0,c
  1054                           
  1055                           ;MCAL_Layer/GPIO/hal_gpio.c: 22:     if (((void*)0) == _pin_config || (_pin_config->pin 
      +                          > 8 - 1)) {
  1056   00128C  5064               	movf	gpio_pin_direction_intialize@_pin_config^0,w,c
  1057   00128E  B4D8               	btfsc	status,2,c
  1058   001290  EF4C  F009         	goto	u3181
  1059   001294  EF4E  F009         	goto	u3180
  1060   001298                     u3181:
  1061   001298  EF5E  F009         	goto	l4429
  1062   00129C                     u3180:
  1063   00129C  5064               	movf	gpio_pin_direction_intialize@_pin_config^0,w,c
  1064   00129E  6ED9               	movwf	fsr2l,c
  1065   0012A0  6ADA               	clrf	fsr2h,c
  1066   0012A2  30DF               	rrcf	223,w,c
  1067   0012A4  32E8               	rrcf	wreg,f,c
  1068   0012A6  32E8               	rrcf	wreg,f,c
  1069   0012A8  0B07               	andlw	7
  1070   0012AA  6E65               	movwf	??_gpio_pin_direction_intialize^0,c
  1071   0012AC  0E07               	movlw	7
  1072   0012AE  6465               	cpfsgt	??_gpio_pin_direction_intialize^0,c
  1073   0012B0  EF5C  F009         	goto	u3191
  1074   0012B4  EF5E  F009         	goto	u3190
  1075   0012B8                     u3191:
  1076   0012B8  EFB5  F009         	goto	l4437
  1077   0012BC                     u3190:
  1078   0012BC                     l4429:
  1079                           
  1080                           ;MCAL_Layer/GPIO/hal_gpio.c: 23:         ret = (Std_ReturnType)0X00;
  1081   0012BC  0E00               	movlw	0
  1082   0012BE  6E6A               	movwf	gpio_pin_direction_intialize@ret^0,c
  1083                           
  1084                           ;MCAL_Layer/GPIO/hal_gpio.c: 24:     } else {
  1085   0012C0  EFD5  F009         	goto	l4439
  1086   0012C4                     l4431:
  1087                           
  1088                           ;MCAL_Layer/GPIO/hal_gpio.c: 28:                 (*tris_registers[_pin_config->port] &= 
      +                          ~((uint8)1 << _pin_config->pin));
  1089   0012C4  5064               	movf	gpio_pin_direction_intialize@_pin_config^0,w,c
  1090   0012C6  6ED9               	movwf	fsr2l,c
  1091   0012C8  6ADA               	clrf	fsr2h,c
  1092   0012CA  30DF               	rrcf	223,w,c
  1093   0012CC  32E8               	rrcf	wreg,f,c
  1094   0012CE  32E8               	rrcf	wreg,f,c
  1095   0012D0  0B07               	andlw	7
  1096   0012D2  6E65               	movwf	??_gpio_pin_direction_intialize^0,c
  1097   0012D4  0E01               	movlw	1
  1098   0012D6  6E66               	movwf	(??_gpio_pin_direction_intialize+1)^0,c
  1099   0012D8  2A65               	incf	??_gpio_pin_direction_intialize^0,f,c
  1100   0012DA  EF71  F009         	goto	u3204
  1101   0012DE                     u3205:
  1102   0012DE  90D8               	bcf	status,0,c
  1103   0012E0  3666               	rlcf	(??_gpio_pin_direction_intialize+1)^0,f,c
  1104   0012E2                     u3204:
  1105   0012E2  2E65               	decfsz	??_gpio_pin_direction_intialize^0,f,c
  1106   0012E4  EF6F  F009         	goto	u3205
  1107   0012E8  5066               	movf	(??_gpio_pin_direction_intialize+1)^0,w,c
  1108   0012EA  0AFF               	xorlw	255
  1109   0012EC  6E67               	movwf	(??_gpio_pin_direction_intialize+2)^0,c
  1110   0012EE  5064               	movf	gpio_pin_direction_intialize@_pin_config^0,w,c
  1111   0012F0  6ED9               	movwf	fsr2l,c
  1112   0012F2  6ADA               	clrf	fsr2h,c
  1113   0012F4  50DF               	movf	223,w,c
  1114   0012F6  0B07               	andlw	7
  1115   0012F8  0D02               	mullw	2
  1116   0012FA  50F3               	movf	243,w,c
  1117   0012FC  0F15               	addlw	low _tris_registers
  1118   0012FE  6ED9               	movwf	fsr2l,c
  1119   001300  6ADA               	clrf	fsr2h,c
  1120   001302  CFDE F068          	movff	postinc2,??_gpio_pin_direction_intialize+3
  1121   001306  CFDD F069          	movff	postdec2,??_gpio_pin_direction_intialize+4
  1122   00130A  C068  FFD9         	movff	??_gpio_pin_direction_intialize+3,fsr2l
  1123   00130E  C069  FFDA         	movff	??_gpio_pin_direction_intialize+4,fsr2h
  1124   001312  5067               	movf	(??_gpio_pin_direction_intialize+2)^0,w,c
  1125   001314  16DF               	andwf	indf2,f,c
  1126                           
  1127                           ;MCAL_Layer/GPIO/hal_gpio.c: 30:                 break;
  1128   001316  EFD5  F009         	goto	l4439
  1129   00131A                     l4433:
  1130                           
  1131                           ;MCAL_Layer/GPIO/hal_gpio.c: 33:                 (*tris_registers[_pin_config->port] |= 
      +                          ((uint8)1 << _pin_config->pin));
  1132   00131A  5064               	movf	gpio_pin_direction_intialize@_pin_config^0,w,c
  1133   00131C  6ED9               	movwf	fsr2l,c
  1134   00131E  6ADA               	clrf	fsr2h,c
  1135   001320  30DF               	rrcf	223,w,c
  1136   001322  32E8               	rrcf	wreg,f,c
  1137   001324  32E8               	rrcf	wreg,f,c
  1138   001326  0B07               	andlw	7
  1139   001328  6E65               	movwf	??_gpio_pin_direction_intialize^0,c
  1140   00132A  0E01               	movlw	1
  1141   00132C  6E66               	movwf	(??_gpio_pin_direction_intialize+1)^0,c
  1142   00132E  2A65               	incf	??_gpio_pin_direction_intialize^0,f,c
  1143   001330  EF9C  F009         	goto	u3214
  1144   001334                     u3215:
  1145   001334  90D8               	bcf	status,0,c
  1146   001336  3666               	rlcf	(??_gpio_pin_direction_intialize+1)^0,f,c
  1147   001338                     u3214:
  1148   001338  2E65               	decfsz	??_gpio_pin_direction_intialize^0,f,c
  1149   00133A  EF9A  F009         	goto	u3215
  1150   00133E  5064               	movf	gpio_pin_direction_intialize@_pin_config^0,w,c
  1151   001340  6ED9               	movwf	fsr2l,c
  1152   001342  6ADA               	clrf	fsr2h,c
  1153   001344  50DF               	movf	223,w,c
  1154   001346  0B07               	andlw	7
  1155   001348  0D02               	mullw	2
  1156   00134A  50F3               	movf	243,w,c
  1157   00134C  0F15               	addlw	low _tris_registers
  1158   00134E  6ED9               	movwf	fsr2l,c
  1159   001350  6ADA               	clrf	fsr2h,c
  1160   001352  CFDE F067          	movff	postinc2,??_gpio_pin_direction_intialize+2
  1161   001356  CFDD F068          	movff	postdec2,??_gpio_pin_direction_intialize+3
  1162   00135A  C067  FFD9         	movff	??_gpio_pin_direction_intialize+2,fsr2l
  1163   00135E  C068  FFDA         	movff	??_gpio_pin_direction_intialize+3,fsr2h
  1164   001362  5066               	movf	(??_gpio_pin_direction_intialize+1)^0,w,c
  1165   001364  12DF               	iorwf	indf2,f,c
  1166                           
  1167                           ;MCAL_Layer/GPIO/hal_gpio.c: 34:                 break;
  1168   001366  EFD5  F009         	goto	l4439
  1169   00136A                     l4437:
  1170   00136A  5064               	movf	gpio_pin_direction_intialize@_pin_config^0,w,c
  1171   00136C  6ED9               	movwf	fsr2l,c
  1172   00136E  6ADA               	clrf	fsr2h,c
  1173   001370  BCDF               	btfsc	indf2,6,c
  1174   001372  EFBD  F009         	goto	u3221
  1175   001376  EFC0  F009         	goto	u3220
  1176   00137A                     u3221:
  1177   00137A  0E01               	movlw	1
  1178   00137C  EFC1  F009         	goto	u3230
  1179   001380                     u3220:
  1180   001380  0E00               	movlw	0
  1181   001382                     u3230:
  1182   001382  6E65               	movwf	??_gpio_pin_direction_intialize^0,c
  1183   001384  6A66               	clrf	(??_gpio_pin_direction_intialize+1)^0,c
  1184                           
  1185                           ; Switch on 2 bytes has been partitioned into a top level switch of size 1, and 1 sub-sw
      +                          itches
  1186                           ; Switch size 1, requested type "simple"
  1187                           ; Number of cases is 1, Range of values is 0 to 0
  1188                           ; switch strategies available:
  1189                           ; Name         Instructions Cycles
  1190                           ; simple_byte            4     3 (average)
  1191                           ;	Chosen strategy is simple_byte
  1192   001386  5066               	movf	(??_gpio_pin_direction_intialize+1)^0,w,c
  1193   001388  0A00               	xorlw	0	; case 0
  1194   00138A  B4D8               	btfsc	status,2,c
  1195   00138C  EFCA  F009         	goto	l5197
  1196   001390  EF5E  F009         	goto	l4429
  1197   001394                     l5197:
  1198                           
  1199                           ; Switch size 1, requested type "simple"
  1200                           ; Number of cases is 2, Range of values is 0 to 1
  1201                           ; switch strategies available:
  1202                           ; Name         Instructions Cycles
  1203                           ; simple_byte            7     4 (average)
  1204                           ;	Chosen strategy is simple_byte
  1205   001394  5065               	movf	??_gpio_pin_direction_intialize^0,w,c
  1206   001396  0A00               	xorlw	0	; case 0
  1207   001398  B4D8               	btfsc	status,2,c
  1208   00139A  EF62  F009         	goto	l4431
  1209   00139E  0A01               	xorlw	1	; case 1
  1210   0013A0  B4D8               	btfsc	status,2,c
  1211   0013A2  EF8D  F009         	goto	l4433
  1212   0013A6  EF5E  F009         	goto	l4429
  1213   0013AA                     l4439:
  1214                           
  1215                           ;MCAL_Layer/GPIO/hal_gpio.c: 41:     return ret;
  1216   0013AA  506A               	movf	gpio_pin_direction_intialize@ret^0,w,c
  1217   0013AC  0012               	return		;funcret
  1218   0013AE                     __end_of_gpio_pin_direction_intialize:
  1219                           	callstack 0
  1220                           
  1221 ;; *************** function _ecu_layer_initialize *****************
  1222 ;; Defined at:
  1223 ;;		line 11 in file "ECU_LAYER/ecu_layer_init.c"
  1224 ;; Parameters:    Size  Location     Type
  1225 ;;		None
  1226 ;; Auto vars:     Size  Location     Type
  1227 ;;  ret             1    0        unsigned char 
  1228 ;; Return value:  Size  Location     Type
  1229 ;;                  1    wreg      void 
  1230 ;; Registers used:
  1231 ;;		wreg, status,2
  1232 ;; Tracked objects:
  1233 ;;		On entry : 0/0
  1234 ;;		On exit  : 0/0
  1235 ;;		Unchanged: 0/0
  1236 ;; Data sizes:     COMRAM   BANK0   BANK1   BANK2   BANK3   BANK4   BANK5   BANK6   BANK7   BANK8   BANK9  BANK10  BANK1
      +1  BANK12  BANK13  BANK14  BANK15
  1237 ;;      Params:         0       0       0       0       0       0       0       0       0       0       0       0       
      +0       0       0       0       0
  1238 ;;      Locals:         0       0       0       0       0       0       0       0       0       0       0       0       
      +0       0       0       0       0
  1239 ;;      Temps:          0       0       0       0       0       0       0       0       0       0       0       0       
      +0       0       0       0       0
  1240 ;;      Totals:         0       0       0       0       0       0       0       0       0       0       0       0       
      +0       0       0       0       0
  1241 ;;Total ram usage:        0 bytes
  1242 ;; Hardware stack levels used: 1
  1243 ;; Hardware stack levels required when called: 5
  1244 ;; This function calls:
  1245 ;;		Nothing
  1246 ;; This function is called by:
  1247 ;;		_Application_initialize
  1248 ;; This function uses a non-reentrant model
  1249 ;;
  1250                           
  1251                           	psect	text6
  1252   0018C8                     __ptext6:
  1253                           	callstack 0
  1254   0018C8                     _ecu_layer_initialize:
  1255                           	callstack 24
  1256   0018C8  0012               	return		;funcret
  1257   0018CA                     __end_of_ecu_layer_initialize:
  1258                           	callstack 0
  1259                           
  1260 ;; *************** function _Timer1_Init *****************
  1261 ;; Defined at:
  1262 ;;		line 16 in file "MCAL_LAYER/Timer/hal_timer1.c"
  1263 ;; Parameters:    Size  Location     Type
  1264 ;;  timer           1   15[COMRAM] PTR const struct .
  1265 ;;		 -> timer1(7), 
  1266 ;; Auto vars:     Size  Location     Type
  1267 ;;  ret             1    0        unsigned char 
  1268 ;; Return value:  Size  Location     Type
  1269 ;;                  1    wreg      unsigned char 
  1270 ;; Registers used:
  1271 ;;		wreg, fsr2l, fsr2h, status,2, status,0, cstack
  1272 ;; Tracked objects:
  1273 ;;		On entry : 0/0
  1274 ;;		On exit  : 0/0
  1275 ;;		Unchanged: 0/0
  1276 ;; Data sizes:     COMRAM   BANK0   BANK1   BANK2   BANK3   BANK4   BANK5   BANK6   BANK7   BANK8   BANK9  BANK10  BANK1
      +1  BANK12  BANK13  BANK14  BANK15
  1277 ;;      Params:         1       0       0       0       0       0       0       0       0       0       0       0       
      +0       0       0       0       0
  1278 ;;      Locals:         0       0       0       0       0       0       0       0       0       0       0       0       
      +0       0       0       0       0
  1279 ;;      Temps:          2       0       0       0       0       0       0       0       0       0       0       0       
      +0       0       0       0       0
  1280 ;;      Totals:         3       0       0       0       0       0       0       0       0       0       0       0       
      +0       0       0       0       0
  1281 ;;Total ram usage:        3 bytes
  1282 ;; Hardware stack levels used: 1
  1283 ;; Hardware stack levels required when called: 6
  1284 ;; This function calls:
  1285 ;;		_Timer1_Mode_Config
  1286 ;; This function is called by:
  1287 ;;		_Application_initialize
  1288 ;; This function uses a non-reentrant model
  1289 ;;
  1290                           
  1291                           	psect	text7
  1292   0014BE                     __ptext7:
  1293                           	callstack 0
  1294   0014BE                     _Timer1_Init:
  1295                           	callstack 23
  1296   0014BE                     
  1297                           ;MCAL_LAYER/Timer/hal_timer1.c: 18:     pre_work_out = timer->timer1_preload_value;
  1298   0014BE  5065               	movf	Timer1_Init@timer^0,w,c
  1299   0014C0  6ED9               	movwf	fsr2l,c
  1300   0014C2  6ADA               	clrf	fsr2h,c
  1301   0014C4  0E04               	movlw	4
  1302   0014C6  26D9               	addwf	fsr2l,f,c
  1303   0014C8  CFDE F06F          	movff	postinc2,_pre_work_out@hal_timer1$F2119
  1304   0014CC  CFDD F070          	movff	postdec2,_pre_work_out@hal_timer1$F2119+1
  1305   0014D0                     
  1306                           ;MCAL_LAYER/Timer/hal_timer1.c: 22:     if (((void*)0) == timer) {
  1307   0014D0  5065               	movf	Timer1_Init@timer^0,w,c
  1308   0014D2  A4D8               	btfss	status,2,c
  1309   0014D4  EF6E  F00A         	goto	u2281
  1310   0014D8  EF70  F00A         	goto	u2280
  1311   0014DC                     u2281:
  1312   0014DC  EF72  F00A         	goto	l922
  1313   0014E0                     u2280:
  1314   0014E0                     
  1315                           ;MCAL_LAYER/Timer/hal_timer1.c: 24:     } else {
  1316   0014E0  EFA5  F00A         	goto	l924
  1317   0014E4                     l922:
  1318                           
  1319                           ;MCAL_LAYER/Timer/hal_timer1.c: 26:         (T1CONbits.TMR1ON=0);
  1320   0014E4  90CD               	bcf	205,0,c	;volatile
  1321   0014E6                     
  1322                           ;MCAL_LAYER/Timer/hal_timer1.c: 29:         Timer1_Mode_Config(timer);
  1323   0014E6  C065  F064         	movff	Timer1_Init@timer,Timer1_Mode_Config@timer
  1324   0014EA  ECE7  F00A         	call	_Timer1_Mode_Config	;wreg free
  1325   0014EE                     
  1326                           ;MCAL_LAYER/Timer/hal_timer1.c: 32:         (T1CONbits.T1CKPS=timer->prescaler_value);
  1327   0014EE  5065               	movf	Timer1_Init@timer^0,w,c
  1328   0014F0  6ED9               	movwf	fsr2l,c
  1329   0014F2  6ADA               	clrf	fsr2h,c
  1330   0014F4  0E03               	movlw	3
  1331   0014F6  26D9               	addwf	fsr2l,f,c
  1332   0014F8  50DF               	movf	indf2,w,c
  1333   0014FA  6E66               	movwf	??_Timer1_Init^0,c
  1334   0014FC  3A66               	swapf	??_Timer1_Init^0,f,c
  1335   0014FE  50CD               	movf	205,w,c	;volatile
  1336   001500  1866               	xorwf	??_Timer1_Init^0,w,c
  1337   001502  0BCF               	andlw	-49
  1338   001504  1866               	xorwf	??_Timer1_Init^0,w,c
  1339   001506  6ECD               	movwf	205,c	;volatile
  1340   001508                     
  1341                           ;MCAL_LAYER/Timer/hal_timer1.c: 35:         TMR1H = (timer->timer1_preload_value) >> 8;
  1342   001508  5065               	movf	Timer1_Init@timer^0,w,c
  1343   00150A  6ED9               	movwf	fsr2l,c
  1344   00150C  6ADA               	clrf	fsr2h,c
  1345   00150E  0E04               	movlw	4
  1346   001510  26D9               	addwf	fsr2l,f,c
  1347   001512  CFDE F066          	movff	postinc2,??_Timer1_Init
  1348   001516  CFDD F067          	movff	postdec2,??_Timer1_Init+1
  1349   00151A  C067  F066         	movff	??_Timer1_Init+1,??_Timer1_Init
  1350   00151E  6A67               	clrf	(??_Timer1_Init+1)^0,c
  1351   001520  5066               	movf	??_Timer1_Init^0,w,c
  1352   001522  6ECF               	movwf	207,c	;volatile
  1353   001524                     
  1354                           ;MCAL_LAYER/Timer/hal_timer1.c: 36:         TMR1L = (uint8) (timer->timer1_preload_value
      +                          );
  1355   001524  5065               	movf	Timer1_Init@timer^0,w,c
  1356   001526  6ED9               	movwf	fsr2l,c
  1357   001528  6ADA               	clrf	fsr2h,c
  1358   00152A  0E04               	movlw	4
  1359   00152C  26D9               	addwf	fsr2l,f,c
  1360   00152E  50DF               	movf	indf2,w,c
  1361   001530  6ECE               	movwf	206,c	;volatile
  1362   001532                     
  1363                           ;MCAL_LAYER/Timer/hal_timer1.c: 40:         (PIE1bits.TMR1IE = 1);
  1364   001532  809D               	bsf	157,0,c	;volatile
  1365   001534                     
  1366                           ;MCAL_LAYER/Timer/hal_timer1.c: 41:         (PIR1bits.TMR1IF = 0);
  1367   001534  909E               	bcf	158,0,c	;volatile
  1368   001536                     
  1369                           ;MCAL_LAYER/Timer/hal_timer1.c: 42:         Timer1_Interrupt_Handler = timer->Timer1_Int
      +                          errupt_Handler;
  1370   001536  5065               	movf	Timer1_Init@timer^0,w,c
  1371   001538  6ED9               	movwf	fsr2l,c
  1372   00153A  6ADA               	clrf	fsr2h,c
  1373   00153C  CFDE F030          	movff	postinc2,_Timer1_Interrupt_Handler
  1374   001540  CFDD F031          	movff	postdec2,_Timer1_Interrupt_Handler+1
  1375   001544                     
  1376                           ;MCAL_LAYER/Timer/hal_timer1.c: 56:         (INTCONbits.GIEH = 1);
  1377   001544  8EF2               	bsf	242,7,c	;volatile
  1378   001546                     
  1379                           ;MCAL_LAYER/Timer/hal_timer1.c: 57:         (INTCONbits.PEIE = 1);
  1380   001546  8CF2               	bsf	242,6,c	;volatile
  1381   001548                     
  1382                           ;MCAL_LAYER/Timer/hal_timer1.c: 61:         (T1CONbits.TMR1ON=1);
  1383   001548  80CD               	bsf	205,0,c	;volatile
  1384   00154A                     l924:
  1385   00154A  0012               	return		;funcret
  1386   00154C                     __end_of_Timer1_Init:
  1387                           	callstack 0
  1388                           
  1389 ;; *************** function _Timer1_Mode_Config *****************
  1390 ;; Defined at:
  1391 ;;		line 123 in file "MCAL_LAYER/Timer/hal_timer1.c"
  1392 ;; Parameters:    Size  Location     Type
  1393 ;;  timer           1   14[COMRAM] PTR const struct .
  1394 ;;		 -> timer1(7), 
  1395 ;; Auto vars:     Size  Location     Type
  1396 ;;		None
  1397 ;; Return value:  Size  Location     Type
  1398 ;;                  1    wreg      void 
  1399 ;; Registers used:
  1400 ;;		wreg, fsr2l, fsr2h, status,2, status,0
  1401 ;; Tracked objects:
  1402 ;;		On entry : 0/0
  1403 ;;		On exit  : 0/0
  1404 ;;		Unchanged: 0/0
  1405 ;; Data sizes:     COMRAM   BANK0   BANK1   BANK2   BANK3   BANK4   BANK5   BANK6   BANK7   BANK8   BANK9  BANK10  BANK1
      +1  BANK12  BANK13  BANK14  BANK15
  1406 ;;      Params:         1       0       0       0       0       0       0       0       0       0       0       0       
      +0       0       0       0       0
  1407 ;;      Locals:         0       0       0       0       0       0       0       0       0       0       0       0       
      +0       0       0       0       0
  1408 ;;      Temps:          0       0       0       0       0       0       0       0       0       0       0       0       
      +0       0       0       0       0
  1409 ;;      Totals:         1       0       0       0       0       0       0       0       0       0       0       0       
      +0       0       0       0       0
  1410 ;;Total ram usage:        1 bytes
  1411 ;; Hardware stack levels used: 1
  1412 ;; Hardware stack levels required when called: 5
  1413 ;; This function calls:
  1414 ;;		Nothing
  1415 ;; This function is called by:
  1416 ;;		_Timer1_Init
  1417 ;; This function uses a non-reentrant model
  1418 ;;
  1419                           
  1420                           	psect	text8
  1421   0015CE                     __ptext8:
  1422                           	callstack 0
  1423   0015CE                     _Timer1_Mode_Config:
  1424                           	callstack 23
  1425   0015CE                     
  1426                           ;MCAL_LAYER/Timer/hal_timer1.c: 125:     if (0 == timer->timer1_mode) {
  1427   0015CE  5064               	movf	Timer1_Mode_Config@timer^0,w,c
  1428   0015D0  6ED9               	movwf	fsr2l,c
  1429   0015D2  6ADA               	clrf	fsr2h,c
  1430   0015D4  0E06               	movlw	6
  1431   0015D6  26D9               	addwf	fsr2l,f,c
  1432   0015D8  B0DF               	btfsc	indf2,0,c
  1433   0015DA  EFF1  F00A         	goto	u2161
  1434   0015DE  EFF3  F00A         	goto	u2160
  1435   0015E2                     u2161:
  1436   0015E2  EF12  F00B         	goto	l3539
  1437   0015E6                     u2160:
  1438   0015E6                     
  1439                           ;MCAL_LAYER/Timer/hal_timer1.c: 126:         (T1CONbits.TMR1CS=1);
  1440   0015E6  82CD               	bsf	205,1,c	;volatile
  1441   0015E8                     
  1442                           ;MCAL_LAYER/Timer/hal_timer1.c: 129:         if (1 == timer->counter_mode) {
  1443   0015E8  5064               	movf	Timer1_Mode_Config@timer^0,w,c
  1444   0015EA  6ED9               	movwf	fsr2l,c
  1445   0015EC  6ADA               	clrf	fsr2h,c
  1446   0015EE  0E06               	movlw	6
  1447   0015F0  26D9               	addwf	fsr2l,f,c
  1448   0015F2  A2DF               	btfss	indf2,1,c
  1449   0015F4  EFFE  F00A         	goto	u2171
  1450   0015F8  EF00  F00B         	goto	u2170
  1451   0015FC                     u2171:
  1452   0015FC  EF03  F00B         	goto	l3535
  1453   001600                     u2170:
  1454   001600                     
  1455                           ;MCAL_LAYER/Timer/hal_timer1.c: 130:             (T1CONbits.T1SYNC=1);
  1456   001600  84CD               	bsf	205,2,c	;volatile
  1457                           
  1458                           ;MCAL_LAYER/Timer/hal_timer1.c: 131:         } else if (0 == timer->counter_mode) {
  1459   001602  EF1F  F00B         	goto	l948
  1460   001606                     l3535:
  1461   001606  5064               	movf	Timer1_Mode_Config@timer^0,w,c
  1462   001608  6ED9               	movwf	fsr2l,c
  1463   00160A  6ADA               	clrf	fsr2h,c
  1464   00160C  0E06               	movlw	6
  1465   00160E  26D9               	addwf	fsr2l,f,c
  1466   001610  B2DF               	btfsc	indf2,1,c
  1467   001612  EF0D  F00B         	goto	u2181
  1468   001616  EF0F  F00B         	goto	u2180
  1469   00161A                     u2181:
  1470   00161A  EF1F  F00B         	goto	l948
  1471   00161E                     u2180:
  1472   00161E                     
  1473                           ;MCAL_LAYER/Timer/hal_timer1.c: 132:             (T1CONbits.T1SYNC=0);
  1474   00161E  94CD               	bcf	205,2,c	;volatile
  1475   001620  EF1F  F00B         	goto	l948
  1476   001624                     l3539:
  1477   001624  5064               	movf	Timer1_Mode_Config@timer^0,w,c
  1478   001626  6ED9               	movwf	fsr2l,c
  1479   001628  6ADA               	clrf	fsr2h,c
  1480   00162A  0E06               	movlw	6
  1481   00162C  26D9               	addwf	fsr2l,f,c
  1482   00162E  A0DF               	btfss	indf2,0,c
  1483   001630  EF1C  F00B         	goto	u2191
  1484   001634  EF1E  F00B         	goto	u2190
  1485   001638                     u2191:
  1486   001638  EF1F  F00B         	goto	l948
  1487   00163C                     u2190:
  1488   00163C                     
  1489                           ;MCAL_LAYER/Timer/hal_timer1.c: 137:         (T1CONbits.TMR1CS=0);
  1490   00163C  92CD               	bcf	205,1,c	;volatile
  1491   00163E                     l948:
  1492   00163E  0012               	return		;funcret
  1493   001640                     __end_of_Timer1_Mode_Config:
  1494                           	callstack 0
  1495                           
  1496 ;; *************** function _Interrupt_Manager_High *****************
  1497 ;; Defined at:
  1498 ;;		line 29 in file "MCAL_LAYER/Interrupt/mcal_interrupt_manager.c"
  1499 ;; Parameters:    Size  Location     Type
  1500 ;;		None
  1501 ;; Auto vars:     Size  Location     Type
  1502 ;;		None
  1503 ;; Return value:  Size  Location     Type
  1504 ;;                  1    wreg      void 
  1505 ;; Registers used:
  1506 ;;		wreg, fsr2l, fsr2h, status,2, status,0, pcl, pclath, pclatu, tosl, prodl, prodh, cstack
  1507 ;; Tracked objects:
  1508 ;;		On entry : 0/0
  1509 ;;		On exit  : 0/0
  1510 ;;		Unchanged: 0/0
  1511 ;; Data sizes:     COMRAM   BANK0   BANK1   BANK2   BANK3   BANK4   BANK5   BANK6   BANK7   BANK8   BANK9  BANK10  BANK1
      +1  BANK12  BANK13  BANK14  BANK15
  1512 ;;      Params:         0       0       0       0       0       0       0       0       0       0       0       0       
      +0       0       0       0       0
  1513 ;;      Locals:         0       0       0       0       0       0       0       0       0       0       0       0       
      +0       0       0       0       0
  1514 ;;      Temps:          6       0       0       0       0       0       0       0       0       0       0       0       
      +0       0       0       0       0
  1515 ;;      Totals:         6       0       0       0       0       0       0       0       0       0       0       0       
      +0       0       0       0       0
  1516 ;;Total ram usage:        6 bytes
  1517 ;; Hardware stack levels used: 1
  1518 ;; Hardware stack levels required when called: 4
  1519 ;; This function calls:
  1520 ;;		_ADC_ISR
  1521 ;;		_INT0_ISR
  1522 ;;		_INT1_ISR
  1523 ;;		_INT2_ISR
  1524 ;;		_RB4_ISR
  1525 ;;		_RB5_ISR
  1526 ;;		_RB6_ISR
  1527 ;;		_RB7_ISR
  1528 ;;		_TIMER0_ISR
  1529 ;;		_TIMER1_ISR
  1530 ;;		_TIMER2_ISR
  1531 ;; This function is called by:
  1532 ;;		Interrupt level 2
  1533 ;; This function uses a non-reentrant model
  1534 ;;
  1535                           
  1536                           	psect	intcode
  1537   000008                     __pintcode:
  1538                           	callstack 0
  1539   000008                     _Interrupt_Manager_High:
  1540                           	callstack 22
  1541                           
  1542                           ;incstack = 0
  1543   000008  8271               	bsf	int$flags,1,c	;set compiler interrupt flag (level 2)
  1544   00000A  ED0B  F008         	call	int_func,f	;refresh shadow registers
  1545                           
  1546                           	psect	intcode_body
  1547   001016                     __pintcode_body:
  1548                           	callstack 22
  1549   001016                     int_func:
  1550                           	callstack 22
  1551   001016  0006               	pop		; remove dummy address from shadow register refresh
  1552   001018  CFFA F05E          	movff	pclath,??_Interrupt_Manager_High
  1553   00101C  CFFB F05F          	movff	pclatu,??_Interrupt_Manager_High+1
  1554   001020  CFD9 F060          	movff	fsr2l,??_Interrupt_Manager_High+2
  1555   001024  CFDA F061          	movff	fsr2h,??_Interrupt_Manager_High+3
  1556   001028  CFF3 F062          	movff	prodl,??_Interrupt_Manager_High+4
  1557   00102C  CFF4 F063          	movff	prodh,??_Interrupt_Manager_High+5
  1558   001030                     
  1559                           ;MCAL_LAYER/Interrupt/mcal_interrupt_manager.c: 31:     if ((INTCONbits.INT0IE == 1) && 
      +                          (INTCONbits.INT0IF == 1)) {
  1560   001030  A8F2               	btfss	242,4,c	;volatile
  1561   001032  EF1D  F008         	goto	i2u282_41
  1562   001036  EF1F  F008         	goto	i2u282_40
  1563   00103A                     i2u282_41:
  1564   00103A  EF28  F008         	goto	i2l4287
  1565   00103E                     i2u282_40:
  1566   00103E  A2F2               	btfss	242,1,c	;volatile
  1567   001040  EF24  F008         	goto	i2u283_41
  1568   001044  EF26  F008         	goto	i2u283_40
  1569   001048                     i2u283_41:
  1570   001048  EF28  F008         	goto	i2l4287
  1571   00104C                     i2u283_40:
  1572   00104C                     
  1573                           ;MCAL_LAYER/Interrupt/mcal_interrupt_manager.c: 32:         INT0_ISR();
  1574   00104C  EC60  F00C         	call	_INT0_ISR	;wreg free
  1575   001050                     i2l4287:
  1576                           
  1577                           ;MCAL_LAYER/Interrupt/mcal_interrupt_manager.c: 35:     if ((INTCON3bits.INT1IE == 1) &&
      +                           (INTCON3bits.INT1IF == 1)) {
  1578   001050  A6F0               	btfss	240,3,c	;volatile
  1579   001052  EF2D  F008         	goto	i2u284_41
  1580   001056  EF2F  F008         	goto	i2u284_40
  1581   00105A                     i2u284_41:
  1582   00105A  EF38  F008         	goto	i2l4293
  1583   00105E                     i2u284_40:
  1584   00105E  A0F0               	btfss	240,0,c	;volatile
  1585   001060  EF34  F008         	goto	i2u285_41
  1586   001064  EF36  F008         	goto	i2u285_40
  1587   001068                     i2u285_41:
  1588   001068  EF38  F008         	goto	i2l4293
  1589   00106C                     i2u285_40:
  1590   00106C                     
  1591                           ;MCAL_LAYER/Interrupt/mcal_interrupt_manager.c: 36:         INT1_ISR();
  1592   00106C  EC5E  F00C         	call	_INT1_ISR	;wreg free
  1593   001070                     i2l4293:
  1594                           
  1595                           ;MCAL_LAYER/Interrupt/mcal_interrupt_manager.c: 39:     if ((INTCON3bits.INT2IE == 1) &&
      +                           (INTCON3bits.INT2IF == 1)) {
  1596   001070  A8F0               	btfss	240,4,c	;volatile
  1597   001072  EF3D  F008         	goto	i2u286_41
  1598   001076  EF3F  F008         	goto	i2u286_40
  1599   00107A                     i2u286_41:
  1600   00107A  EF48  F008         	goto	i2l4299
  1601   00107E                     i2u286_40:
  1602   00107E  A2F0               	btfss	240,1,c	;volatile
  1603   001080  EF44  F008         	goto	i2u287_41
  1604   001084  EF46  F008         	goto	i2u287_40
  1605   001088                     i2u287_41:
  1606   001088  EF48  F008         	goto	i2l4299
  1607   00108C                     i2u287_40:
  1608   00108C                     
  1609                           ;MCAL_LAYER/Interrupt/mcal_interrupt_manager.c: 40:         INT2_ISR();
  1610   00108C  EC5C  F00C         	call	_INT2_ISR	;wreg free
  1611   001090                     i2l4299:
  1612                           
  1613                           ;MCAL_LAYER/Interrupt/mcal_interrupt_manager.c: 42:     if (1 == PIE1bits.ADIE && 1 == P
      +                          IR1bits.ADIF) {
  1614   001090  AC9D               	btfss	157,6,c	;volatile
  1615   001092  EF4D  F008         	goto	i2u288_41
  1616   001096  EF4F  F008         	goto	i2u288_40
  1617   00109A                     i2u288_41:
  1618   00109A  EF58  F008         	goto	i2l4305
  1619   00109E                     i2u288_40:
  1620   00109E  AC9E               	btfss	158,6,c	;volatile
  1621   0010A0  EF54  F008         	goto	i2u289_41
  1622   0010A4  EF56  F008         	goto	i2u289_40
  1623   0010A8                     i2u289_41:
  1624   0010A8  EF58  F008         	goto	i2l4305
  1625   0010AC                     i2u289_40:
  1626   0010AC                     
  1627                           ;MCAL_LAYER/Interrupt/mcal_interrupt_manager.c: 43:         ADC_ISR();
  1628   0010AC  EC62  F00C         	call	_ADC_ISR	;wreg free
  1629   0010B0                     i2l4305:
  1630                           
  1631                           ;MCAL_LAYER/Interrupt/mcal_interrupt_manager.c: 45:     if (1 == INTCONbits.TMR0IE && 1 
      +                          == INTCONbits.TMR0IF) {
  1632   0010B0  AAF2               	btfss	242,5,c	;volatile
  1633   0010B2  EF5D  F008         	goto	i2u290_41
  1634   0010B6  EF5F  F008         	goto	i2u290_40
  1635   0010BA                     i2u290_41:
  1636   0010BA  EF68  F008         	goto	i2l4311
  1637   0010BE                     i2u290_40:
  1638   0010BE  A4F2               	btfss	242,2,c	;volatile
  1639   0010C0  EF64  F008         	goto	i2u291_41
  1640   0010C4  EF66  F008         	goto	i2u291_40
  1641   0010C8                     i2u291_41:
  1642   0010C8  EF68  F008         	goto	i2l4311
  1643   0010CC                     i2u291_40:
  1644   0010CC                     
  1645                           ;MCAL_LAYER/Interrupt/mcal_interrupt_manager.c: 46:         TIMER0_ISR();
  1646   0010CC  EC4D  F00C         	call	_TIMER0_ISR	;wreg free
  1647   0010D0                     i2l4311:
  1648                           
  1649                           ;MCAL_LAYER/Interrupt/mcal_interrupt_manager.c: 48:     if (1 == PIE1bits.TMR1IE && 1 ==
      +                           PIR1bits.TMR1IF) {
  1650   0010D0  A09D               	btfss	157,0,c	;volatile
  1651   0010D2  EF6D  F008         	goto	i2u292_41
  1652   0010D6  EF6F  F008         	goto	i2u292_40
  1653   0010DA                     i2u292_41:
  1654   0010DA  EF78  F008         	goto	i2l4317
  1655   0010DE                     i2u292_40:
  1656   0010DE  A09E               	btfss	158,0,c	;volatile
  1657   0010E0  EF74  F008         	goto	i2u293_41
  1658   0010E4  EF76  F008         	goto	i2u293_40
  1659   0010E8                     i2u293_41:
  1660   0010E8  EF78  F008         	goto	i2l4317
  1661   0010EC                     i2u293_40:
  1662   0010EC                     
  1663                           ;MCAL_LAYER/Interrupt/mcal_interrupt_manager.c: 49:         TIMER1_ISR();
  1664   0010EC  ECD6  F00B         	call	_TIMER1_ISR	;wreg free
  1665   0010F0                     i2l4317:
  1666                           
  1667                           ;MCAL_LAYER/Interrupt/mcal_interrupt_manager.c: 51:     if (1 == PIE1bits.TMR2IE && 1 ==
      +                           PIR1bits.TMR2IF) {
  1668   0010F0  A29D               	btfss	157,1,c	;volatile
  1669   0010F2  EF7D  F008         	goto	i2u294_41
  1670   0010F6  EF7F  F008         	goto	i2u294_40
  1671   0010FA                     i2u294_41:
  1672   0010FA  EF88  F008         	goto	i2l4323
  1673   0010FE                     i2u294_40:
  1674   0010FE  A29E               	btfss	158,1,c	;volatile
  1675   001100  EF84  F008         	goto	i2u295_41
  1676   001104  EF86  F008         	goto	i2u295_40
  1677   001108                     i2u295_41:
  1678   001108  EF88  F008         	goto	i2l4323
  1679   00110C                     i2u295_40:
  1680   00110C                     
  1681                           ;MCAL_LAYER/Interrupt/mcal_interrupt_manager.c: 52:         TIMER2_ISR();
  1682   00110C  EC58  F00C         	call	_TIMER2_ISR	;wreg free
  1683   001110                     i2l4323:
  1684                           
  1685                           ;MCAL_LAYER/Interrupt/mcal_interrupt_manager.c: 55:     if ((INTCONbits.RBIE == 1) && (I
      +                          NTCONbits.RBIF == 1)) {
  1686   001110  A6F2               	btfss	242,3,c	;volatile
  1687   001112  EF8D  F008         	goto	i2u296_41
  1688   001116  EF8F  F008         	goto	i2u296_40
  1689   00111A                     i2u296_41:
  1690   00111A  EF36  F009         	goto	i2l839
  1691   00111E                     i2u296_40:
  1692   00111E  A0F2               	btfss	242,0,c	;volatile
  1693   001120  EF94  F008         	goto	i2u297_41
  1694   001124  EF96  F008         	goto	i2u297_40
  1695   001128                     i2u297_41:
  1696   001128  EF36  F009         	goto	i2l839
  1697   00112C                     i2u297_40:
  1698   00112C                     
  1699                           ;MCAL_LAYER/Interrupt/mcal_interrupt_manager.c: 59:         if ((PORTBbits.RB4 == GPIO_H
      +                          IGH) && RB4_f == 1) {
  1700   00112C  A881               	btfss	129,4,c	;volatile
  1701   00112E  EF9B  F008         	goto	i2u298_41
  1702   001132  EF9D  F008         	goto	i2u298_40
  1703   001136                     i2u298_41:
  1704   001136  EFAA  F008         	goto	i2l4335
  1705   00113A                     i2u298_40:
  1706   00113A  0423               	decf	_RB4_f^0,w,c	;volatile
  1707   00113C  A4D8               	btfss	status,2,c
  1708   00113E  EFA3  F008         	goto	i2u299_41
  1709   001142  EFA5  F008         	goto	i2u299_40
  1710   001146                     i2u299_41:
  1711   001146  EFAA  F008         	goto	i2l4335
  1712   00114A                     i2u299_40:
  1713   00114A                     
  1714                           ;MCAL_LAYER/Interrupt/mcal_interrupt_manager.c: 60:             RB4_f = 0;
  1715   00114A  0E00               	movlw	0
  1716   00114C  6E23               	movwf	_RB4_f^0,c	;volatile
  1717   00114E                     
  1718                           ;MCAL_LAYER/Interrupt/mcal_interrupt_manager.c: 61:             RB4_ISR(0);
  1719   00114E  0E00               	movlw	0
  1720   001150  EC2E  F00C         	call	_RB4_ISR
  1721   001154                     i2l4335:
  1722                           
  1723                           ;MCAL_LAYER/Interrupt/mcal_interrupt_manager.c: 63:         if ((PORTBbits.RB4 == GPIO_L
      +                          OW) && RB4_f == 0) {
  1724   001154  B881               	btfsc	129,4,c	;volatile
  1725   001156  EFAF  F008         	goto	i2u300_41
  1726   00115A  EFB1  F008         	goto	i2u300_40
  1727   00115E                     i2u300_41:
  1728   00115E  EFBE  F008         	goto	i2l4343
  1729   001162                     i2u300_40:
  1730   001162  5023               	movf	_RB4_f^0,w,c	;volatile
  1731   001164  A4D8               	btfss	status,2,c
  1732   001166  EFB7  F008         	goto	i2u301_41
  1733   00116A  EFB9  F008         	goto	i2u301_40
  1734   00116E                     i2u301_41:
  1735   00116E  EFBE  F008         	goto	i2l4343
  1736   001172                     i2u301_40:
  1737   001172                     
  1738                           ;MCAL_LAYER/Interrupt/mcal_interrupt_manager.c: 64:             RB4_f = 1;
  1739   001172  0E01               	movlw	1
  1740   001174  6E23               	movwf	_RB4_f^0,c	;volatile
  1741   001176                     
  1742                           ;MCAL_LAYER/Interrupt/mcal_interrupt_manager.c: 65:             RB4_ISR(1);
  1743   001176  0E01               	movlw	1
  1744   001178  EC2E  F00C         	call	_RB4_ISR
  1745   00117C                     i2l4343:
  1746                           
  1747                           ;MCAL_LAYER/Interrupt/mcal_interrupt_manager.c: 68:         if ((PORTBbits.RB5 == GPIO_H
      +                          IGH) && RB5_f == 1) {
  1748   00117C  AA81               	btfss	129,5,c	;volatile
  1749   00117E  EFC3  F008         	goto	i2u302_41
  1750   001182  EFC5  F008         	goto	i2u302_40
  1751   001186                     i2u302_41:
  1752   001186  EFD2  F008         	goto	i2l4351
  1753   00118A                     i2u302_40:
  1754   00118A  0422               	decf	_RB5_f^0,w,c	;volatile
  1755   00118C  A4D8               	btfss	status,2,c
  1756   00118E  EFCB  F008         	goto	i2u303_41
  1757   001192  EFCD  F008         	goto	i2u303_40
  1758   001196                     i2u303_41:
  1759   001196  EFD2  F008         	goto	i2l4351
  1760   00119A                     i2u303_40:
  1761   00119A                     
  1762                           ;MCAL_LAYER/Interrupt/mcal_interrupt_manager.c: 69:             RB5_f = 0;
  1763   00119A  0E00               	movlw	0
  1764   00119C  6E22               	movwf	_RB5_f^0,c	;volatile
  1765   00119E                     
  1766                           ;MCAL_LAYER/Interrupt/mcal_interrupt_manager.c: 70:             RB5_ISR(0);
  1767   00119E  0E00               	movlw	0
  1768   0011A0  EC21  F00C         	call	_RB5_ISR
  1769   0011A4                     i2l4351:
  1770                           
  1771                           ;MCAL_LAYER/Interrupt/mcal_interrupt_manager.c: 72:         if ((PORTBbits.RB5 == GPIO_L
      +                          OW) && RB5_f == 0) {
  1772   0011A4  BA81               	btfsc	129,5,c	;volatile
  1773   0011A6  EFD7  F008         	goto	i2u304_41
  1774   0011AA  EFD9  F008         	goto	i2u304_40
  1775   0011AE                     i2u304_41:
  1776   0011AE  EFE6  F008         	goto	i2l4359
  1777   0011B2                     i2u304_40:
  1778   0011B2  5022               	movf	_RB5_f^0,w,c	;volatile
  1779   0011B4  A4D8               	btfss	status,2,c
  1780   0011B6  EFDF  F008         	goto	i2u305_41
  1781   0011BA  EFE1  F008         	goto	i2u305_40
  1782   0011BE                     i2u305_41:
  1783   0011BE  EFE6  F008         	goto	i2l4359
  1784   0011C2                     i2u305_40:
  1785   0011C2                     
  1786                           ;MCAL_LAYER/Interrupt/mcal_interrupt_manager.c: 73:             RB5_f = 1;
  1787   0011C2  0E01               	movlw	1
  1788   0011C4  6E22               	movwf	_RB5_f^0,c	;volatile
  1789   0011C6                     
  1790                           ;MCAL_LAYER/Interrupt/mcal_interrupt_manager.c: 74:             RB5_ISR(1);
  1791   0011C6  0E01               	movlw	1
  1792   0011C8  EC21  F00C         	call	_RB5_ISR
  1793   0011CC                     i2l4359:
  1794                           
  1795                           ;MCAL_LAYER/Interrupt/mcal_interrupt_manager.c: 77:         if ((PORTBbits.RB6 == GPIO_H
      +                          IGH) && RB6_f == 1) {
  1796   0011CC  AC81               	btfss	129,6,c	;volatile
  1797   0011CE  EFEB  F008         	goto	i2u306_41
  1798   0011D2  EFED  F008         	goto	i2u306_40
  1799   0011D6                     i2u306_41:
  1800   0011D6  EFFA  F008         	goto	i2l4367
  1801   0011DA                     i2u306_40:
  1802   0011DA  0421               	decf	_RB6_f^0,w,c	;volatile
  1803   0011DC  A4D8               	btfss	status,2,c
  1804   0011DE  EFF3  F008         	goto	i2u307_41
  1805   0011E2  EFF5  F008         	goto	i2u307_40
  1806   0011E6                     i2u307_41:
  1807   0011E6  EFFA  F008         	goto	i2l4367
  1808   0011EA                     i2u307_40:
  1809   0011EA                     
  1810                           ;MCAL_LAYER/Interrupt/mcal_interrupt_manager.c: 78:             RB6_f = 0;
  1811   0011EA  0E00               	movlw	0
  1812   0011EC  6E21               	movwf	_RB6_f^0,c	;volatile
  1813   0011EE                     
  1814                           ;MCAL_LAYER/Interrupt/mcal_interrupt_manager.c: 79:             RB6_ISR(0);
  1815   0011EE  0E00               	movlw	0
  1816   0011F0  EC14  F00C         	call	_RB6_ISR
  1817   0011F4                     i2l4367:
  1818                           
  1819                           ;MCAL_LAYER/Interrupt/mcal_interrupt_manager.c: 81:         if ((PORTBbits.RB6 == GPIO_L
      +                          OW) && RB6_f == 0) {
  1820   0011F4  BC81               	btfsc	129,6,c	;volatile
  1821   0011F6  EFFF  F008         	goto	i2u308_41
  1822   0011FA  EF01  F009         	goto	i2u308_40
  1823   0011FE                     i2u308_41:
  1824   0011FE  EF0E  F009         	goto	i2l4375
  1825   001202                     i2u308_40:
  1826   001202  5021               	movf	_RB6_f^0,w,c	;volatile
  1827   001204  A4D8               	btfss	status,2,c
  1828   001206  EF07  F009         	goto	i2u309_41
  1829   00120A  EF09  F009         	goto	i2u309_40
  1830   00120E                     i2u309_41:
  1831   00120E  EF0E  F009         	goto	i2l4375
  1832   001212                     i2u309_40:
  1833   001212                     
  1834                           ;MCAL_LAYER/Interrupt/mcal_interrupt_manager.c: 82:             RB6_f = 1;
  1835   001212  0E01               	movlw	1
  1836   001214  6E21               	movwf	_RB6_f^0,c	;volatile
  1837   001216                     
  1838                           ;MCAL_LAYER/Interrupt/mcal_interrupt_manager.c: 83:             RB6_ISR(1);
  1839   001216  0E01               	movlw	1
  1840   001218  EC14  F00C         	call	_RB6_ISR
  1841   00121C                     i2l4375:
  1842                           
  1843                           ;MCAL_LAYER/Interrupt/mcal_interrupt_manager.c: 86:         if ((PORTBbits.RB7 == GPIO_H
      +                          IGH) && RB7_f == 1) {
  1844   00121C  AE81               	btfss	129,7,c	;volatile
  1845   00121E  EF13  F009         	goto	i2u310_41
  1846   001222  EF15  F009         	goto	i2u310_40
  1847   001226                     i2u310_41:
  1848   001226  EF22  F009         	goto	i2l4383
  1849   00122A                     i2u310_40:
  1850   00122A  0420               	decf	_RB7_f^0,w,c	;volatile
  1851   00122C  A4D8               	btfss	status,2,c
  1852   00122E  EF1B  F009         	goto	i2u311_41
  1853   001232  EF1D  F009         	goto	i2u311_40
  1854   001236                     i2u311_41:
  1855   001236  EF22  F009         	goto	i2l4383
  1856   00123A                     i2u311_40:
  1857   00123A                     
  1858                           ;MCAL_LAYER/Interrupt/mcal_interrupt_manager.c: 87:             RB7_f = 0;
  1859   00123A  0E00               	movlw	0
  1860   00123C  6E20               	movwf	_RB7_f^0,c	;volatile
  1861   00123E                     
  1862                           ;MCAL_LAYER/Interrupt/mcal_interrupt_manager.c: 88:             RB7_ISR(0);
  1863   00123E  0E00               	movlw	0
  1864   001240  EC07  F00C         	call	_RB7_ISR
  1865   001244                     i2l4383:
  1866                           
  1867                           ;MCAL_LAYER/Interrupt/mcal_interrupt_manager.c: 90:         if ((PORTBbits.RB7 == GPIO_L
      +                          OW) && RB7_f == 0) {
  1868   001244  BE81               	btfsc	129,7,c	;volatile
  1869   001246  EF27  F009         	goto	i2u312_41
  1870   00124A  EF29  F009         	goto	i2u312_40
  1871   00124E                     i2u312_41:
  1872   00124E  EF36  F009         	goto	i2l839
  1873   001252                     i2u312_40:
  1874   001252  5020               	movf	_RB7_f^0,w,c	;volatile
  1875   001254  A4D8               	btfss	status,2,c
  1876   001256  EF2F  F009         	goto	i2u313_41
  1877   00125A  EF31  F009         	goto	i2u313_40
  1878   00125E                     i2u313_41:
  1879   00125E  EF36  F009         	goto	i2l839
  1880   001262                     i2u313_40:
  1881   001262                     
  1882                           ;MCAL_LAYER/Interrupt/mcal_interrupt_manager.c: 91:             RB7_f = 1;
  1883   001262  0E01               	movlw	1
  1884   001264  6E20               	movwf	_RB7_f^0,c	;volatile
  1885   001266                     
  1886                           ;MCAL_LAYER/Interrupt/mcal_interrupt_manager.c: 92:             RB7_ISR(1);
  1887   001266  0E01               	movlw	1
  1888   001268  EC07  F00C         	call	_RB7_ISR
  1889   00126C                     i2l839:
  1890   00126C  C063  FFF4         	movff	??_Interrupt_Manager_High+5,prodh
  1891   001270  C062  FFF3         	movff	??_Interrupt_Manager_High+4,prodl
  1892   001274  C061  FFDA         	movff	??_Interrupt_Manager_High+3,fsr2h
  1893   001278  C060  FFD9         	movff	??_Interrupt_Manager_High+2,fsr2l
  1894   00127C  C05F  FFFB         	movff	??_Interrupt_Manager_High+1,pclatu
  1895   001280  C05E  FFFA         	movff	??_Interrupt_Manager_High,pclath
  1896   001284  9271               	bcf	int$flags,1,c	;clear compiler interrupt flag (level 2)
  1897   001286  0011               	retfie		f
  1898   001288                     __end_of_Interrupt_Manager_High:
  1899                           	callstack 0
  1900                           
  1901 ;; *************** function _TIMER2_ISR *****************
  1902 ;; Defined at:
  1903 ;;		line 110 in file "MCAL_LAYER/Timer/hal_timer2.c"
  1904 ;; Parameters:    Size  Location     Type
  1905 ;;		None
  1906 ;; Auto vars:     Size  Location     Type
  1907 ;;		None
  1908 ;; Return value:  Size  Location     Type
  1909 ;;                  1    wreg      void 
  1910 ;; Registers used:
  1911 ;;		None
  1912 ;; Tracked objects:
  1913 ;;		On entry : 0/0
  1914 ;;		On exit  : 0/0
  1915 ;;		Unchanged: 0/0
  1916 ;; Data sizes:     COMRAM   BANK0   BANK1   BANK2   BANK3   BANK4   BANK5   BANK6   BANK7   BANK8   BANK9  BANK10  BANK1
      +1  BANK12  BANK13  BANK14  BANK15
  1917 ;;      Params:         0       0       0       0       0       0       0       0       0       0       0       0       
      +0       0       0       0       0
  1918 ;;      Locals:         0       0       0       0       0       0       0       0       0       0       0       0       
      +0       0       0       0       0
  1919 ;;      Temps:          0       0       0       0       0       0       0       0       0       0       0       0       
      +0       0       0       0       0
  1920 ;;      Totals:         0       0       0       0       0       0       0       0       0       0       0       0       
      +0       0       0       0       0
  1921 ;;Total ram usage:        0 bytes
  1922 ;; Hardware stack levels used: 1
  1923 ;; This function calls:
  1924 ;;		Nothing
  1925 ;; This function is called by:
  1926 ;;		_Interrupt_Manager_High
  1927 ;; This function uses a non-reentrant model
  1928 ;;
  1929                           
  1930                           	psect	text10
  1931   0018B0                     __ptext10:
  1932                           	callstack 0
  1933   0018B0                     _TIMER2_ISR:
  1934                           	callstack 25
  1935   0018B0                     
  1936                           ;MCAL_LAYER/Timer/hal_timer2.c: 112:     (PIR1bits.TMR2IF = 0);
  1937   0018B0  929E               	bcf	158,1,c	;volatile
  1938                           
  1939                           ;MCAL_LAYER/Timer/hal_timer2.c: 113:     TMR2 = pre;
  1940   0018B2  C04E  FFCC         	movff	_pre,4044	;volatile
  1941   0018B6  0012               	return		;funcret
  1942   0018B8                     __end_of_TIMER2_ISR:
  1943                           	callstack 0
  1944                           
  1945 ;; *************** function _TIMER1_ISR *****************
  1946 ;; Defined at:
  1947 ;;		line 144 in file "MCAL_LAYER/Timer/hal_timer1.c"
  1948 ;; Parameters:    Size  Location     Type
  1949 ;;		None
  1950 ;; Auto vars:     Size  Location     Type
  1951 ;;		None
  1952 ;; Return value:  Size  Location     Type
  1953 ;;                  1    wreg      void 
  1954 ;; Registers used:
  1955 ;;		wreg, fsr2l, fsr2h, status,2, status,0, pcl, pclath, pclatu, tosl, prodl, prodh, cstack
  1956 ;; Tracked objects:
  1957 ;;		On entry : 0/0
  1958 ;;		On exit  : 0/0
  1959 ;;		Unchanged: 0/0
  1960 ;; Data sizes:     COMRAM   BANK0   BANK1   BANK2   BANK3   BANK4   BANK5   BANK6   BANK7   BANK8   BANK9  BANK10  BANK1
      +1  BANK12  BANK13  BANK14  BANK15
  1961 ;;      Params:         0       0       0       0       0       0       0       0       0       0       0       0       
      +0       0       0       0       0
  1962 ;;      Locals:         0       0       0       0       0       0       0       0       0       0       0       0       
      +0       0       0       0       0
  1963 ;;      Temps:          0       0       0       0       0       0       0       0       0       0       0       0       
      +0       0       0       0       0
  1964 ;;      Totals:         0       0       0       0       0       0       0       0       0       0       0       0       
      +0       0       0       0       0
  1965 ;;Total ram usage:        0 bytes
  1966 ;; Hardware stack levels used: 1
  1967 ;; Hardware stack levels required when called: 3
  1968 ;; This function calls:
  1969 ;;		NULL
  1970 ;;		_Isr
  1971 ;; This function is called by:
  1972 ;;		_Interrupt_Manager_High
  1973 ;; This function uses a non-reentrant model
  1974 ;;
  1975                           
  1976                           	psect	text11
  1977   0017AC                     __ptext11:
  1978                           	callstack 0
  1979   0017AC                     _TIMER1_ISR:
  1980                           	callstack 22
  1981   0017AC                     
  1982                           ;MCAL_LAYER/Timer/hal_timer1.c: 146:     (PIR1bits.TMR1IF = 0);
  1983   0017AC  909E               	bcf	158,0,c	;volatile
  1984   0017AE                     
  1985                           ;MCAL_LAYER/Timer/hal_timer1.c: 147:     TMR1H = (pre_work_out) >> 8;
  1986   0017AE  5070               	movf	(_pre_work_out@hal_timer1$F2119+1)^0,w,c
  1987   0017B0  6ECF               	movwf	207,c	;volatile
  1988   0017B2                     
  1989                           ;MCAL_LAYER/Timer/hal_timer1.c: 148:     TMR1L = (uint8) (pre_work_out);
  1990   0017B2  C06F  FFCE         	movff	_pre_work_out@hal_timer1$F2119,4046	;volatile
  1991   0017B6                     
  1992                           ;MCAL_LAYER/Timer/hal_timer1.c: 150:     if (Timer1_Interrupt_Handler) {
  1993   0017B6  5030               	movf	_Timer1_Interrupt_Handler^0,w,c
  1994   0017B8  1031               	iorwf	(_Timer1_Interrupt_Handler+1)^0,w,c
  1995   0017BA  B4D8               	btfsc	status,2,c
  1996   0017BC  EFE2  F00B         	goto	i2u239_41
  1997   0017C0  EFE4  F00B         	goto	i2u239_40
  1998   0017C4                     i2u239_41:
  1999   0017C4  EFF0  F00B         	goto	i2l952
  2000   0017C8                     i2u239_40:
  2001   0017C8                     
  2002                           ;MCAL_LAYER/Timer/hal_timer1.c: 151:         Timer1_Interrupt_Handler();
  2003   0017C8  D802               	call	i2u240_48
  2004   0017CA  EFF0  F00B         	goto	i2u240_49
  2005   0017CE                     i2u240_48:
  2006   0017CE  0005               	push	
  2007   0017D0  6EFA               	movwf	pclath,c
  2008   0017D2  5030               	movf	_Timer1_Interrupt_Handler^0,w,c
  2009   0017D4  6EFD               	movwf	tosl,c
  2010   0017D6  5031               	movf	(_Timer1_Interrupt_Handler+1)^0,w,c
  2011   0017D8  6EFE               	movwf	tosh,c
  2012   0017DA  6AFF               	clrf	tosu,c
  2013   0017DC  50FA               	movf	pclath,w,c
  2014   0017DE  0012               	return		;indir
  2015   0017E0                     i2u240_49:
  2016   0017E0                     i2l952:
  2017   0017E0  0012               	return		;funcret
  2018   0017E2                     __end_of_TIMER1_ISR:
  2019                           	callstack 0
  2020                           
  2021 ;; *************** function _Isr *****************
  2022 ;; Defined at:
  2023 ;;		line 18 in file "app.c"
  2024 ;; Parameters:    Size  Location     Type
  2025 ;;		None
  2026 ;; Auto vars:     Size  Location     Type
  2027 ;;		None
  2028 ;; Return value:  Size  Location     Type
  2029 ;;                  1    wreg      void 
  2030 ;; Registers used:
  2031 ;;		wreg, fsr2l, fsr2h, status,2, status,0, prodl, prodh, cstack
  2032 ;; Tracked objects:
  2033 ;;		On entry : 0/0
  2034 ;;		On exit  : 0/0
  2035 ;;		Unchanged: 0/0
  2036 ;; Data sizes:     COMRAM   BANK0   BANK1   BANK2   BANK3   BANK4   BANK5   BANK6   BANK7   BANK8   BANK9  BANK10  BANK1
      +1  BANK12  BANK13  BANK14  BANK15
  2037 ;;      Params:         0       0       0       0       0       0       0       0       0       0       0       0       
      +0       0       0       0       0
  2038 ;;      Locals:         0       0       0       0       0       0       0       0       0       0       0       0       
      +0       0       0       0       0
  2039 ;;      Temps:          0       0       0       0       0       0       0       0       0       0       0       0       
      +0       0       0       0       0
  2040 ;;      Totals:         0       0       0       0       0       0       0       0       0       0       0       0       
      +0       0       0       0       0
  2041 ;;Total ram usage:        0 bytes
  2042 ;; Hardware stack levels used: 1
  2043 ;; Hardware stack levels required when called: 2
  2044 ;; This function calls:
  2045 ;;		_led_toggle_status
  2046 ;; This function is called by:
  2047 ;;		_TIMER1_ISR
  2048 ;; This function uses a non-reentrant model
  2049 ;;
  2050                           
  2051                           	psect	text12
  2052   0018A6                     __ptext12:
  2053                           	callstack 0
  2054   0018A6                     _Isr:
  2055                           	callstack 22
  2056   0018A6                     
  2057                           ;app.c: 19:     led_toggle_status(&led);
  2058   0018A6  0E2B               	movlw	low _led
  2059   0018A8  6E5B               	movwf	led_toggle_status@Led^0,c
  2060   0018AA  EC57  F00B         	call	_led_toggle_status	;wreg free
  2061   0018AE  0012               	return		;funcret
  2062   0018B0                     __end_of_Isr:
  2063                           	callstack 0
  2064                           
  2065 ;; *************** function _led_toggle_status *****************
  2066 ;; Defined at:
  2067 ;;		line 87 in file "ECU_LAYER/Led/ecu_led.c"
  2068 ;; Parameters:    Size  Location     Type
  2069 ;;  Led             1    5[COMRAM] PTR const struct .
  2070 ;;		 -> led(1), 
  2071 ;; Auto vars:     Size  Location     Type
  2072 ;;  pin_obj         1    7[COMRAM] struct .
  2073 ;;  ret             1    0        unsigned char 
  2074 ;; Return value:  Size  Location     Type
  2075 ;;                  1    wreg      unsigned char 
  2076 ;; Registers used:
  2077 ;;		wreg, fsr2l, fsr2h, status,2, status,0, prodl, prodh, cstack
  2078 ;; Tracked objects:
  2079 ;;		On entry : 0/0
  2080 ;;		On exit  : 0/0
  2081 ;;		Unchanged: 0/0
  2082 ;; Data sizes:     COMRAM   BANK0   BANK1   BANK2   BANK3   BANK4   BANK5   BANK6   BANK7   BANK8   BANK9  BANK10  BANK1
      +1  BANK12  BANK13  BANK14  BANK15
  2083 ;;      Params:         1       0       0       0       0       0       0       0       0       0       0       0       
      +0       0       0       0       0
  2084 ;;      Locals:         1       0       0       0       0       0       0       0       0       0       0       0       
      +0       0       0       0       0
  2085 ;;      Temps:          1       0       0       0       0       0       0       0       0       0       0       0       
      +0       0       0       0       0
  2086 ;;      Totals:         3       0       0       0       0       0       0       0       0       0       0       0       
      +0       0       0       0       0
  2087 ;;Total ram usage:        3 bytes
  2088 ;; Hardware stack levels used: 1
  2089 ;; Hardware stack levels required when called: 1
  2090 ;; This function calls:
  2091 ;;		_gpio_pin_toggle_logic
  2092 ;; This function is called by:
  2093 ;;		_Isr
  2094 ;; This function uses a non-reentrant model
  2095 ;;
  2096                           
  2097                           	psect	text13
  2098   0016AE                     __ptext13:
  2099                           	callstack 0
  2100   0016AE                     _led_toggle_status:
  2101                           	callstack 22
  2102   0016AE                     
  2103                           ;ECU_LAYER/Led/ecu_led.c: 89:     if (((void*)0) == Led) {
  2104   0016AE  505B               	movf	led_toggle_status@Led^0,w,c
  2105   0016B0  A4D8               	btfss	status,2,c
  2106   0016B2  EF5D  F00B         	goto	i2u214_41
  2107   0016B6  EF5F  F00B         	goto	i2u214_40
  2108   0016BA                     i2u214_41:
  2109   0016BA  EF61  F00B         	goto	i2l272
  2110   0016BE                     i2u214_40:
  2111   0016BE                     
  2112                           ;ECU_LAYER/Led/ecu_led.c: 91:     } else {
  2113   0016BE  EF8B  F00B         	goto	i2l276
  2114   0016C2                     i2l272:
  2115                           
  2116                           ;ECU_LAYER/Led/ecu_led.c: 93:         pin_config_t pin_obj = {
  2117   0016C2  C052  F05D         	movff	led_toggle_status@F3497,led_toggle_status@pin_obj
  2118   0016C6  505B               	movf	led_toggle_status@Led^0,w,c
  2119   0016C8  6ED9               	movwf	fsr2l,c
  2120   0016CA  6ADA               	clrf	fsr2h,c
  2121   0016CC  50DF               	movf	223,w,c
  2122   0016CE  0B07               	andlw	7
  2123   0016D0  6E5C               	movwf	??_led_toggle_status^0,c
  2124   0016D2  505D               	movf	led_toggle_status@pin_obj^0,w,c
  2125   0016D4  185C               	xorwf	??_led_toggle_status^0,w,c
  2126   0016D6  0BF8               	andlw	-8
  2127   0016D8  185C               	xorwf	??_led_toggle_status^0,w,c
  2128   0016DA  6E5D               	movwf	led_toggle_status@pin_obj^0,c
  2129   0016DC  505B               	movf	led_toggle_status@Led^0,w,c
  2130   0016DE  6ED9               	movwf	fsr2l,c
  2131   0016E0  6ADA               	clrf	fsr2h,c
  2132   0016E2  30DF               	rrcf	223,w,c
  2133   0016E4  32E8               	rrcf	wreg,f,c
  2134   0016E6  32E8               	rrcf	wreg,f,c
  2135   0016E8  0B07               	andlw	7
  2136   0016EA  6E5C               	movwf	??_led_toggle_status^0,c
  2137   0016EC  465C               	rlncf	??_led_toggle_status^0,f,c
  2138   0016EE  465C               	rlncf	??_led_toggle_status^0,f,c
  2139   0016F0  465C               	rlncf	??_led_toggle_status^0,f,c
  2140   0016F2  505D               	movf	led_toggle_status@pin_obj^0,w,c
  2141   0016F4  185C               	xorwf	??_led_toggle_status^0,w,c
  2142   0016F6  0BC7               	andlw	-57
  2143   0016F8  185C               	xorwf	??_led_toggle_status^0,w,c
  2144   0016FA  6E5D               	movwf	led_toggle_status@pin_obj^0,c
  2145   0016FC  9C5D               	bcf	led_toggle_status@pin_obj^0,6,c
  2146   0016FE  505B               	movf	led_toggle_status@Led^0,w,c
  2147   001700  6ED9               	movwf	fsr2l,c
  2148   001702  6ADA               	clrf	fsr2h,c
  2149   001704  ACDF               	btfss	indf2,6,c
  2150   001706  D002               	bra	i2u215_45
  2151   001708  8E5D               	bsf	led_toggle_status@pin_obj^0,7,c
  2152   00170A  D001               	bra	i2u215_47
  2153   00170C                     i2u215_45:
  2154   00170C  9E5D               	bcf	led_toggle_status@pin_obj^0,7,c
  2155   00170E                     i2u215_47:
  2156   00170E                     
  2157                           ;ECU_LAYER/Led/ecu_led.c: 99:         gpio_pin_toggle_logic(&pin_obj);
  2158   00170E  0E5D               	movlw	low led_toggle_status@pin_obj
  2159   001710  6E56               	movwf	gpio_pin_toggle_logic@_pin_config^0,c
  2160   001712  ECA6  F00A         	call	_gpio_pin_toggle_logic	;wreg free
  2161   001716                     i2l276:
  2162   001716  0012               	return		;funcret
  2163   001718                     __end_of_led_toggle_status:
  2164                           	callstack 0
  2165                           
  2166 ;; *************** function _gpio_pin_toggle_logic *****************
  2167 ;; Defined at:
  2168 ;;		line 91 in file "MCAL_Layer/GPIO/hal_gpio.c"
  2169 ;; Parameters:    Size  Location     Type
  2170 ;;  _pin_config     1    0[COMRAM] PTR const struct .
  2171 ;;		 -> led_toggle_status@pin_obj(1), 
  2172 ;; Auto vars:     Size  Location     Type
  2173 ;;  ret             1    0        unsigned char 
  2174 ;; Return value:  Size  Location     Type
  2175 ;;                  1    wreg      unsigned char 
  2176 ;; Registers used:
  2177 ;;		wreg, fsr2l, fsr2h, status,2, status,0, prodl, prodh
  2178 ;; Tracked objects:
  2179 ;;		On entry : 0/0
  2180 ;;		On exit  : 0/0
  2181 ;;		Unchanged: 0/0
  2182 ;; Data sizes:     COMRAM   BANK0   BANK1   BANK2   BANK3   BANK4   BANK5   BANK6   BANK7   BANK8   BANK9  BANK10  BANK1
      +1  BANK12  BANK13  BANK14  BANK15
  2183 ;;      Params:         1       0       0       0       0       0       0       0       0       0       0       0       
      +0       0       0       0       0
  2184 ;;      Locals:         0       0       0       0       0       0       0       0       0       0       0       0       
      +0       0       0       0       0
  2185 ;;      Temps:          4       0       0       0       0       0       0       0       0       0       0       0       
      +0       0       0       0       0
  2186 ;;      Totals:         5       0       0       0       0       0       0       0       0       0       0       0       
      +0       0       0       0       0
  2187 ;;Total ram usage:        5 bytes
  2188 ;; Hardware stack levels used: 1
  2189 ;; This function calls:
  2190 ;;		Nothing
  2191 ;; This function is called by:
  2192 ;;		_led_toggle_status
  2193 ;; This function uses a non-reentrant model
  2194 ;;
  2195                           
  2196                           	psect	text14
  2197   00154C                     __ptext14:
  2198                           	callstack 0
  2199   00154C                     _gpio_pin_toggle_logic:
  2200                           	callstack 22
  2201   00154C                     
  2202                           ;MCAL_Layer/GPIO/hal_gpio.c: 93:     if (((void*)0) == _pin_config || _pin_config->pin >
      +                           8 - 1) {
  2203   00154C  5056               	movf	gpio_pin_toggle_logic@_pin_config^0,w,c
  2204   00154E  B4D8               	btfsc	status,2,c
  2205   001550  EFAC  F00A         	goto	i2u203_41
  2206   001554  EFAE  F00A         	goto	i2u203_40
  2207   001558                     i2u203_41:
  2208   001558  EFBE  F00A         	goto	i2l3473
  2209   00155C                     i2u203_40:
  2210   00155C  5056               	movf	gpio_pin_toggle_logic@_pin_config^0,w,c
  2211   00155E  6ED9               	movwf	fsr2l,c
  2212   001560  6ADA               	clrf	fsr2h,c
  2213   001562  30DF               	rrcf	223,w,c
  2214   001564  32E8               	rrcf	wreg,f,c
  2215   001566  32E8               	rrcf	wreg,f,c
  2216   001568  0B07               	andlw	7
  2217   00156A  6E57               	movwf	??_gpio_pin_toggle_logic^0,c
  2218   00156C  0E07               	movlw	7
  2219   00156E  6457               	cpfsgt	??_gpio_pin_toggle_logic^0,c
  2220   001570  EFBC  F00A         	goto	i2u204_41
  2221   001574  EFBE  F00A         	goto	i2u204_40
  2222   001578                     i2u204_41:
  2223   001578  EFC0  F00A         	goto	i2l3475
  2224   00157C                     i2u204_40:
  2225   00157C                     i2l3473:
  2226                           
  2227                           ;MCAL_Layer/GPIO/hal_gpio.c: 95:     } else {
  2228   00157C  EFE6  F00A         	goto	i2l550
  2229   001580                     i2l3475:
  2230                           
  2231                           ;MCAL_Layer/GPIO/hal_gpio.c: 96:         (*lat_registers[_pin_config->port] ^= ((uint8)1
      +                           << _pin_config->pin));
  2232   001580  5056               	movf	gpio_pin_toggle_logic@_pin_config^0,w,c
  2233   001582  6ED9               	movwf	fsr2l,c
  2234   001584  6ADA               	clrf	fsr2h,c
  2235   001586  30DF               	rrcf	223,w,c
  2236   001588  32E8               	rrcf	wreg,f,c
  2237   00158A  32E8               	rrcf	wreg,f,c
  2238   00158C  0B07               	andlw	7
  2239   00158E  6E57               	movwf	??_gpio_pin_toggle_logic^0,c
  2240   001590  0E01               	movlw	1
  2241   001592  6E58               	movwf	(??_gpio_pin_toggle_logic+1)^0,c
  2242   001594  2A57               	incf	??_gpio_pin_toggle_logic^0,f,c
  2243   001596  EFCF  F00A         	goto	i2u205_44
  2244   00159A                     i2u205_45:
  2245   00159A  90D8               	bcf	status,0,c
  2246   00159C  3658               	rlcf	(??_gpio_pin_toggle_logic+1)^0,f,c
  2247   00159E                     i2u205_44:
  2248   00159E  2E57               	decfsz	??_gpio_pin_toggle_logic^0,f,c
  2249   0015A0  EFCD  F00A         	goto	i2u205_45
  2250   0015A4  5056               	movf	gpio_pin_toggle_logic@_pin_config^0,w,c
  2251   0015A6  6ED9               	movwf	fsr2l,c
  2252   0015A8  6ADA               	clrf	fsr2h,c
  2253   0015AA  50DF               	movf	223,w,c
  2254   0015AC  0B07               	andlw	7
  2255   0015AE  0D02               	mullw	2
  2256   0015B0  50F3               	movf	243,w,c
  2257   0015B2  0F0B               	addlw	low _lat_registers
  2258   0015B4  6ED9               	movwf	fsr2l,c
  2259   0015B6  6ADA               	clrf	fsr2h,c
  2260   0015B8  CFDE F059          	movff	postinc2,??_gpio_pin_toggle_logic+2
  2261   0015BC  CFDD F05A          	movff	postdec2,??_gpio_pin_toggle_logic+3
  2262   0015C0  C059  FFD9         	movff	??_gpio_pin_toggle_logic+2,fsr2l
  2263   0015C4  C05A  FFDA         	movff	??_gpio_pin_toggle_logic+3,fsr2h
  2264   0015C8  5058               	movf	(??_gpio_pin_toggle_logic+1)^0,w,c
  2265   0015CA  1ADF               	xorwf	indf2,f,c
  2266   0015CC                     i2l550:
  2267   0015CC  0012               	return		;funcret
  2268   0015CE                     __end_of_gpio_pin_toggle_logic:
  2269                           	callstack 0
  2270                           
  2271 ;; *************** function _TIMER0_ISR *****************
  2272 ;; Defined at:
  2273 ;;		line 137 in file "MCAL_LAYER/Timer/hal_timer0.c"
  2274 ;; Parameters:    Size  Location     Type
  2275 ;;		None
  2276 ;; Auto vars:     Size  Location     Type
  2277 ;;		None
  2278 ;; Return value:  Size  Location     Type
  2279 ;;                  1    wreg      void 
  2280 ;; Registers used:
  2281 ;;		wreg, status,2
  2282 ;; Tracked objects:
  2283 ;;		On entry : 0/0
  2284 ;;		On exit  : 0/0
  2285 ;;		Unchanged: 0/0
  2286 ;; Data sizes:     COMRAM   BANK0   BANK1   BANK2   BANK3   BANK4   BANK5   BANK6   BANK7   BANK8   BANK9  BANK10  BANK1
      +1  BANK12  BANK13  BANK14  BANK15
  2287 ;;      Params:         0       0       0       0       0       0       0       0       0       0       0       0       
      +0       0       0       0       0
  2288 ;;      Locals:         0       0       0       0       0       0       0       0       0       0       0       0       
      +0       0       0       0       0
  2289 ;;      Temps:          0       0       0       0       0       0       0       0       0       0       0       0       
      +0       0       0       0       0
  2290 ;;      Totals:         0       0       0       0       0       0       0       0       0       0       0       0       
      +0       0       0       0       0
  2291 ;;Total ram usage:        0 bytes
  2292 ;; Hardware stack levels used: 1
  2293 ;; This function calls:
  2294 ;;		Nothing
  2295 ;; This function is called by:
  2296 ;;		_Interrupt_Manager_High
  2297 ;; This function uses a non-reentrant model
  2298 ;;
  2299                           
  2300                           	psect	text15
  2301   00189A                     __ptext15:
  2302                           	callstack 0
  2303   00189A                     _TIMER0_ISR:
  2304                           	callstack 25
  2305   00189A                     
  2306                           ;MCAL_LAYER/Timer/hal_timer0.c: 139:     (INTCONbits.TMR0IF = 0);
  2307   00189A  94F2               	bcf	242,2,c	;volatile
  2308   00189C                     
  2309                           ;MCAL_LAYER/Timer/hal_timer0.c: 140:     TMR0H = (pre_work_out) >> 8;
  2310   00189C  5033               	movf	(_pre_work_out+1)^0,w,c
  2311   00189E  6ED7               	movwf	215,c	;volatile
  2312   0018A0                     
  2313                           ;MCAL_LAYER/Timer/hal_timer0.c: 141:     TMR0L = (uint8) (pre_work_out);
  2314   0018A0  C032  FFD6         	movff	_pre_work_out,4054	;volatile
  2315   0018A4  0012               	return		;funcret
  2316   0018A6                     __end_of_TIMER0_ISR:
  2317                           	callstack 0
  2318                           
  2319 ;; *************** function _RB7_ISR *****************
  2320 ;; Defined at:
  2321 ;;		line 514 in file "MCAL_LAYER/Interrupt/mcal_external_interrupt.c"
  2322 ;; Parameters:    Size  Location     Type
  2323 ;;  source          1    wreg     unsigned char 
  2324 ;; Auto vars:     Size  Location     Type
  2325 ;;  source          1    0[COMRAM] unsigned char 
  2326 ;; Return value:  Size  Location     Type
  2327 ;;                  1    wreg      void 
  2328 ;; Registers used:
  2329 ;;		wreg, status,2, status,0
  2330 ;; Tracked objects:
  2331 ;;		On entry : 0/0
  2332 ;;		On exit  : 0/0
  2333 ;;		Unchanged: 0/0
  2334 ;; Data sizes:     COMRAM   BANK0   BANK1   BANK2   BANK3   BANK4   BANK5   BANK6   BANK7   BANK8   BANK9  BANK10  BANK1
      +1  BANK12  BANK13  BANK14  BANK15
  2335 ;;      Params:         0       0       0       0       0       0       0       0       0       0       0       0       
      +0       0       0       0       0
  2336 ;;      Locals:         1       0       0       0       0       0       0       0       0       0       0       0       
      +0       0       0       0       0
  2337 ;;      Temps:          0       0       0       0       0       0       0       0       0       0       0       0       
      +0       0       0       0       0
  2338 ;;      Totals:         1       0       0       0       0       0       0       0       0       0       0       0       
      +0       0       0       0       0
  2339 ;;Total ram usage:        1 bytes
  2340 ;; Hardware stack levels used: 1
  2341 ;; This function calls:
  2342 ;;		Nothing
  2343 ;; This function is called by:
  2344 ;;		_Interrupt_Manager_High
  2345 ;; This function uses a non-reentrant model
  2346 ;;
  2347                           
  2348                           	psect	text16
  2349   00180E                     __ptext16:
  2350                           	callstack 0
  2351   00180E                     _RB7_ISR:
  2352                           	callstack 25
  2353                           
  2354                           ;incstack = 0
  2355                           ;RB7_ISR@source stored from wreg
  2356   00180E  6E56               	movwf	RB7_ISR@source^0,c
  2357   001810                     
  2358                           ;MCAL_LAYER/Interrupt/mcal_external_interrupt.c: 515:     (INTCONbits.RBIF = 1);
  2359   001810  80F2               	bsf	242,0,c	;volatile
  2360   001812                     
  2361                           ;MCAL_LAYER/Interrupt/mcal_external_interrupt.c: 517:     if (0 == source) {
  2362   001812  5056               	movf	RB7_ISR@source^0,w,c
  2363   001814  A4D8               	btfss	status,2,c
  2364   001816  EF0F  F00C         	goto	i2u57_41
  2365   00181A  EF11  F00C         	goto	i2u57_40
  2366   00181E                     i2u57_41:
  2367   00181E  EF13  F00C         	goto	i2l2189
  2368   001822                     i2u57_40:
  2369   001822  EF13  F00C         	goto	i2l778
  2370   001826                     i2l2189:
  2371   001826                     i2l778:
  2372   001826  0012               	return		;funcret
  2373   001828                     __end_of_RB7_ISR:
  2374                           	callstack 0
  2375                           
  2376 ;; *************** function _RB6_ISR *****************
  2377 ;; Defined at:
  2378 ;;		line 500 in file "MCAL_LAYER/Interrupt/mcal_external_interrupt.c"
  2379 ;; Parameters:    Size  Location     Type
  2380 ;;  source          1    wreg     unsigned char 
  2381 ;; Auto vars:     Size  Location     Type
  2382 ;;  source          1    0[COMRAM] unsigned char 
  2383 ;; Return value:  Size  Location     Type
  2384 ;;                  1    wreg      void 
  2385 ;; Registers used:
  2386 ;;		wreg, status,2, status,0
  2387 ;; Tracked objects:
  2388 ;;		On entry : 0/0
  2389 ;;		On exit  : 0/0
  2390 ;;		Unchanged: 0/0
  2391 ;; Data sizes:     COMRAM   BANK0   BANK1   BANK2   BANK3   BANK4   BANK5   BANK6   BANK7   BANK8   BANK9  BANK10  BANK1
      +1  BANK12  BANK13  BANK14  BANK15
  2392 ;;      Params:         0       0       0       0       0       0       0       0       0       0       0       0       
      +0       0       0       0       0
  2393 ;;      Locals:         1       0       0       0       0       0       0       0       0       0       0       0       
      +0       0       0       0       0
  2394 ;;      Temps:          0       0       0       0       0       0       0       0       0       0       0       0       
      +0       0       0       0       0
  2395 ;;      Totals:         1       0       0       0       0       0       0       0       0       0       0       0       
      +0       0       0       0       0
  2396 ;;Total ram usage:        1 bytes
  2397 ;; Hardware stack levels used: 1
  2398 ;; This function calls:
  2399 ;;		Nothing
  2400 ;; This function is called by:
  2401 ;;		_Interrupt_Manager_High
  2402 ;; This function uses a non-reentrant model
  2403 ;;
  2404                           
  2405                           	psect	text17
  2406   001828                     __ptext17:
  2407                           	callstack 0
  2408   001828                     _RB6_ISR:
  2409                           	callstack 25
  2410                           
  2411                           ;incstack = 0
  2412                           ;RB6_ISR@source stored from wreg
  2413   001828  6E56               	movwf	RB6_ISR@source^0,c
  2414   00182A                     
  2415                           ;MCAL_LAYER/Interrupt/mcal_external_interrupt.c: 501:     (INTCONbits.RBIF = 1);
  2416   00182A  80F2               	bsf	242,0,c	;volatile
  2417   00182C                     
  2418                           ;MCAL_LAYER/Interrupt/mcal_external_interrupt.c: 503:     if (0 == source) {
  2419   00182C  5056               	movf	RB6_ISR@source^0,w,c
  2420   00182E  A4D8               	btfss	status,2,c
  2421   001830  EF1C  F00C         	goto	i2u56_41
  2422   001834  EF1E  F00C         	goto	i2u56_40
  2423   001838                     i2u56_41:
  2424   001838  EF20  F00C         	goto	i2l2179
  2425   00183C                     i2u56_40:
  2426   00183C  EF20  F00C         	goto	i2l770
  2427   001840                     i2l2179:
  2428   001840                     i2l770:
  2429   001840  0012               	return		;funcret
  2430   001842                     __end_of_RB6_ISR:
  2431                           	callstack 0
  2432                           
  2433 ;; *************** function _RB5_ISR *****************
  2434 ;; Defined at:
  2435 ;;		line 486 in file "MCAL_LAYER/Interrupt/mcal_external_interrupt.c"
  2436 ;; Parameters:    Size  Location     Type
  2437 ;;  source          1    wreg     unsigned char 
  2438 ;; Auto vars:     Size  Location     Type
  2439 ;;  source          1    0[COMRAM] unsigned char 
  2440 ;; Return value:  Size  Location     Type
  2441 ;;                  1    wreg      void 
  2442 ;; Registers used:
  2443 ;;		wreg, status,2, status,0
  2444 ;; Tracked objects:
  2445 ;;		On entry : 0/0
  2446 ;;		On exit  : 0/0
  2447 ;;		Unchanged: 0/0
  2448 ;; Data sizes:     COMRAM   BANK0   BANK1   BANK2   BANK3   BANK4   BANK5   BANK6   BANK7   BANK8   BANK9  BANK10  BANK1
      +1  BANK12  BANK13  BANK14  BANK15
  2449 ;;      Params:         0       0       0       0       0       0       0       0       0       0       0       0       
      +0       0       0       0       0
  2450 ;;      Locals:         1       0       0       0       0       0       0       0       0       0       0       0       
      +0       0       0       0       0
  2451 ;;      Temps:          0       0       0       0       0       0       0       0       0       0       0       0       
      +0       0       0       0       0
  2452 ;;      Totals:         1       0       0       0       0       0       0       0       0       0       0       0       
      +0       0       0       0       0
  2453 ;;Total ram usage:        1 bytes
  2454 ;; Hardware stack levels used: 1
  2455 ;; This function calls:
  2456 ;;		Nothing
  2457 ;; This function is called by:
  2458 ;;		_Interrupt_Manager_High
  2459 ;; This function uses a non-reentrant model
  2460 ;;
  2461                           
  2462                           	psect	text18
  2463   001842                     __ptext18:
  2464                           	callstack 0
  2465   001842                     _RB5_ISR:
  2466                           	callstack 25
  2467                           
  2468                           ;incstack = 0
  2469                           ;RB5_ISR@source stored from wreg
  2470   001842  6E56               	movwf	RB5_ISR@source^0,c
  2471   001844                     
  2472                           ;MCAL_LAYER/Interrupt/mcal_external_interrupt.c: 487:     (INTCONbits.RBIF = 1);
  2473   001844  80F2               	bsf	242,0,c	;volatile
  2474   001846                     
  2475                           ;MCAL_LAYER/Interrupt/mcal_external_interrupt.c: 489:     if (0 == source) {
  2476   001846  5056               	movf	RB5_ISR@source^0,w,c
  2477   001848  A4D8               	btfss	status,2,c
  2478   00184A  EF29  F00C         	goto	i2u55_41
  2479   00184E  EF2B  F00C         	goto	i2u55_40
  2480   001852                     i2u55_41:
  2481   001852  EF2D  F00C         	goto	i2l2169
  2482   001856                     i2u55_40:
  2483   001856  EF2D  F00C         	goto	i2l762
  2484   00185A                     i2l2169:
  2485   00185A                     i2l762:
  2486   00185A  0012               	return		;funcret
  2487   00185C                     __end_of_RB5_ISR:
  2488                           	callstack 0
  2489                           
  2490 ;; *************** function _RB4_ISR *****************
  2491 ;; Defined at:
  2492 ;;		line 472 in file "MCAL_LAYER/Interrupt/mcal_external_interrupt.c"
  2493 ;; Parameters:    Size  Location     Type
  2494 ;;  source          1    wreg     unsigned char 
  2495 ;; Auto vars:     Size  Location     Type
  2496 ;;  source          1    0[COMRAM] unsigned char 
  2497 ;; Return value:  Size  Location     Type
  2498 ;;                  1    wreg      void 
  2499 ;; Registers used:
  2500 ;;		wreg, status,2, status,0
  2501 ;; Tracked objects:
  2502 ;;		On entry : 0/0
  2503 ;;		On exit  : 0/0
  2504 ;;		Unchanged: 0/0
  2505 ;; Data sizes:     COMRAM   BANK0   BANK1   BANK2   BANK3   BANK4   BANK5   BANK6   BANK7   BANK8   BANK9  BANK10  BANK1
      +1  BANK12  BANK13  BANK14  BANK15
  2506 ;;      Params:         0       0       0       0       0       0       0       0       0       0       0       0       
      +0       0       0       0       0
  2507 ;;      Locals:         1       0       0       0       0       0       0       0       0       0       0       0       
      +0       0       0       0       0
  2508 ;;      Temps:          0       0       0       0       0       0       0       0       0       0       0       0       
      +0       0       0       0       0
  2509 ;;      Totals:         1       0       0       0       0       0       0       0       0       0       0       0       
      +0       0       0       0       0
  2510 ;;Total ram usage:        1 bytes
  2511 ;; Hardware stack levels used: 1
  2512 ;; This function calls:
  2513 ;;		Nothing
  2514 ;; This function is called by:
  2515 ;;		_Interrupt_Manager_High
  2516 ;; This function uses a non-reentrant model
  2517 ;;
  2518                           
  2519                           	psect	text19
  2520   00185C                     __ptext19:
  2521                           	callstack 0
  2522   00185C                     _RB4_ISR:
  2523                           	callstack 25
  2524                           
  2525                           ;incstack = 0
  2526                           ;RB4_ISR@source stored from wreg
  2527   00185C  6E56               	movwf	RB4_ISR@source^0,c
  2528   00185E                     
  2529                           ;MCAL_LAYER/Interrupt/mcal_external_interrupt.c: 473:     (INTCONbits.RBIF = 1);
  2530   00185E  80F2               	bsf	242,0,c	;volatile
  2531   001860                     
  2532                           ;MCAL_LAYER/Interrupt/mcal_external_interrupt.c: 475:     if (0 == source) {
  2533   001860  5056               	movf	RB4_ISR@source^0,w,c
  2534   001862  A4D8               	btfss	status,2,c
  2535   001864  EF36  F00C         	goto	i2u54_41
  2536   001868  EF38  F00C         	goto	i2u54_40
  2537   00186C                     i2u54_41:
  2538   00186C  EF3A  F00C         	goto	i2l2159
  2539   001870                     i2u54_40:
  2540   001870  EF3A  F00C         	goto	i2l754
  2541   001874                     i2l2159:
  2542   001874                     i2l754:
  2543   001874  0012               	return		;funcret
  2544   001876                     __end_of_RB4_ISR:
  2545                           	callstack 0
  2546                           
  2547 ;; *************** function _INT2_ISR *****************
  2548 ;; Defined at:
  2549 ;;		line 466 in file "MCAL_LAYER/Interrupt/mcal_external_interrupt.c"
  2550 ;; Parameters:    Size  Location     Type
  2551 ;;		None
  2552 ;; Auto vars:     Size  Location     Type
  2553 ;;		None
  2554 ;; Return value:  Size  Location     Type
  2555 ;;                  1    wreg      void 
  2556 ;; Registers used:
  2557 ;;		None
  2558 ;; Tracked objects:
  2559 ;;		On entry : 0/0
  2560 ;;		On exit  : 0/0
  2561 ;;		Unchanged: 0/0
  2562 ;; Data sizes:     COMRAM   BANK0   BANK1   BANK2   BANK3   BANK4   BANK5   BANK6   BANK7   BANK8   BANK9  BANK10  BANK1
      +1  BANK12  BANK13  BANK14  BANK15
  2563 ;;      Params:         0       0       0       0       0       0       0       0       0       0       0       0       
      +0       0       0       0       0
  2564 ;;      Locals:         0       0       0       0       0       0       0       0       0       0       0       0       
      +0       0       0       0       0
  2565 ;;      Temps:          0       0       0       0       0       0       0       0       0       0       0       0       
      +0       0       0       0       0
  2566 ;;      Totals:         0       0       0       0       0       0       0       0       0       0       0       0       
      +0       0       0       0       0
  2567 ;;Total ram usage:        0 bytes
  2568 ;; Hardware stack levels used: 1
  2569 ;; This function calls:
  2570 ;;		Nothing
  2571 ;; This function is called by:
  2572 ;;		_Interrupt_Manager_High
  2573 ;; This function uses a non-reentrant model
  2574 ;;
  2575                           
  2576                           	psect	text20
  2577   0018B8                     __ptext20:
  2578                           	callstack 0
  2579   0018B8                     _INT2_ISR:
  2580                           	callstack 25
  2581   0018B8                     
  2582                           ;MCAL_LAYER/Interrupt/mcal_external_interrupt.c: 467:     (INTCON3bits.INT2IF = 0);
  2583   0018B8  92F0               	bcf	240,1,c	;volatile
  2584   0018BA  0012               	return		;funcret
  2585   0018BC                     __end_of_INT2_ISR:
  2586                           	callstack 0
  2587                           
  2588 ;; *************** function _INT1_ISR *****************
  2589 ;; Defined at:
  2590 ;;		line 460 in file "MCAL_LAYER/Interrupt/mcal_external_interrupt.c"
  2591 ;; Parameters:    Size  Location     Type
  2592 ;;		None
  2593 ;; Auto vars:     Size  Location     Type
  2594 ;;		None
  2595 ;; Return value:  Size  Location     Type
  2596 ;;                  1    wreg      void 
  2597 ;; Registers used:
  2598 ;;		None
  2599 ;; Tracked objects:
  2600 ;;		On entry : 0/0
  2601 ;;		On exit  : 0/0
  2602 ;;		Unchanged: 0/0
  2603 ;; Data sizes:     COMRAM   BANK0   BANK1   BANK2   BANK3   BANK4   BANK5   BANK6   BANK7   BANK8   BANK9  BANK10  BANK1
      +1  BANK12  BANK13  BANK14  BANK15
  2604 ;;      Params:         0       0       0       0       0       0       0       0       0       0       0       0       
      +0       0       0       0       0
  2605 ;;      Locals:         0       0       0       0       0       0       0       0       0       0       0       0       
      +0       0       0       0       0
  2606 ;;      Temps:          0       0       0       0       0       0       0       0       0       0       0       0       
      +0       0       0       0       0
  2607 ;;      Totals:         0       0       0       0       0       0       0       0       0       0       0       0       
      +0       0       0       0       0
  2608 ;;Total ram usage:        0 bytes
  2609 ;; Hardware stack levels used: 1
  2610 ;; This function calls:
  2611 ;;		Nothing
  2612 ;; This function is called by:
  2613 ;;		_Interrupt_Manager_High
  2614 ;; This function uses a non-reentrant model
  2615 ;;
  2616                           
  2617                           	psect	text21
  2618   0018BC                     __ptext21:
  2619                           	callstack 0
  2620   0018BC                     _INT1_ISR:
  2621                           	callstack 25
  2622   0018BC                     
  2623                           ;MCAL_LAYER/Interrupt/mcal_external_interrupt.c: 461:     (INTCON3bits.INT1IF = 0);
  2624   0018BC  90F0               	bcf	240,0,c	;volatile
  2625   0018BE  0012               	return		;funcret
  2626   0018C0                     __end_of_INT1_ISR:
  2627                           	callstack 0
  2628                           
  2629 ;; *************** function _INT0_ISR *****************
  2630 ;; Defined at:
  2631 ;;		line 454 in file "MCAL_LAYER/Interrupt/mcal_external_interrupt.c"
  2632 ;; Parameters:    Size  Location     Type
  2633 ;;		None
  2634 ;; Auto vars:     Size  Location     Type
  2635 ;;		None
  2636 ;; Return value:  Size  Location     Type
  2637 ;;                  1    wreg      void 
  2638 ;; Registers used:
  2639 ;;		None
  2640 ;; Tracked objects:
  2641 ;;		On entry : 0/0
  2642 ;;		On exit  : 0/0
  2643 ;;		Unchanged: 0/0
  2644 ;; Data sizes:     COMRAM   BANK0   BANK1   BANK2   BANK3   BANK4   BANK5   BANK6   BANK7   BANK8   BANK9  BANK10  BANK1
      +1  BANK12  BANK13  BANK14  BANK15
  2645 ;;      Params:         0       0       0       0       0       0       0       0       0       0       0       0       
      +0       0       0       0       0
  2646 ;;      Locals:         0       0       0       0       0       0       0       0       0       0       0       0       
      +0       0       0       0       0
  2647 ;;      Temps:          0       0       0       0       0       0       0       0       0       0       0       0       
      +0       0       0       0       0
  2648 ;;      Totals:         0       0       0       0       0       0       0       0       0       0       0       0       
      +0       0       0       0       0
  2649 ;;Total ram usage:        0 bytes
  2650 ;; Hardware stack levels used: 1
  2651 ;; This function calls:
  2652 ;;		Nothing
  2653 ;; This function is called by:
  2654 ;;		_Interrupt_Manager_High
  2655 ;; This function uses a non-reentrant model
  2656 ;;
  2657                           
  2658                           	psect	text22
  2659   0018C0                     __ptext22:
  2660                           	callstack 0
  2661   0018C0                     _INT0_ISR:
  2662                           	callstack 25
  2663   0018C0                     
  2664                           ;MCAL_LAYER/Interrupt/mcal_external_interrupt.c: 455:     (INTCONbits.INT0IF = 0);
  2665   0018C0  92F2               	bcf	242,1,c	;volatile
  2666   0018C2  0012               	return		;funcret
  2667   0018C4                     __end_of_INT0_ISR:
  2668                           	callstack 0
  2669                           
  2670 ;; *************** function _ADC_ISR *****************
  2671 ;; Defined at:
  2672 ;;		line 315 in file "MCAL_LAYER/ADC/hal_adc.c"
  2673 ;; Parameters:    Size  Location     Type
  2674 ;;		None
  2675 ;; Auto vars:     Size  Location     Type
  2676 ;;		None
  2677 ;; Return value:  Size  Location     Type
  2678 ;;                  1    wreg      void 
  2679 ;; Registers used:
  2680 ;;		None
  2681 ;; Tracked objects:
  2682 ;;		On entry : 0/0
  2683 ;;		On exit  : 0/0
  2684 ;;		Unchanged: 0/0
  2685 ;; Data sizes:     COMRAM   BANK0   BANK1   BANK2   BANK3   BANK4   BANK5   BANK6   BANK7   BANK8   BANK9  BANK10  BANK1
      +1  BANK12  BANK13  BANK14  BANK15
  2686 ;;      Params:         0       0       0       0       0       0       0       0       0       0       0       0       
      +0       0       0       0       0
  2687 ;;      Locals:         0       0       0       0       0       0       0       0       0       0       0       0       
      +0       0       0       0       0
  2688 ;;      Temps:          0       0       0       0       0       0       0       0       0       0       0       0       
      +0       0       0       0       0
  2689 ;;      Totals:         0       0       0       0       0       0       0       0       0       0       0       0       
      +0       0       0       0       0
  2690 ;;Total ram usage:        0 bytes
  2691 ;; Hardware stack levels used: 1
  2692 ;; This function calls:
  2693 ;;		Nothing
  2694 ;; This function is called by:
  2695 ;;		_Interrupt_Manager_High
  2696 ;; This function uses a non-reentrant model
  2697 ;;
  2698                           
  2699                           	psect	text23
  2700   0018C4                     __ptext23:
  2701                           	callstack 0
  2702   0018C4                     _ADC_ISR:
  2703                           	callstack 25
  2704   0018C4                     
  2705                           ;MCAL_LAYER/ADC/hal_adc.c: 316:     (PIR1bits.ADIF = 0);
  2706   0018C4  9C9E               	bcf	158,6,c	;volatile
  2707   0018C6  0012               	return		;funcret
  2708   0018C8                     __end_of_ADC_ISR:
  2709                           	callstack 0
  2710                           
  2711                           	psect	text24
  2712   000000                     __ptext24:
  2713                           	callstack 0
  2714   000000                     
  2715                           	psect	rparam
  2716   000000                     
  2717                           	psect	temp
  2718   000071                     btemp:
  2719                           	callstack 0
  2720   000071                     	ds	1
  2721   000000                     int$flags	set	btemp
  2722   000000                     wtemp8	set	btemp+1
  2723   000000                     ttemp5	set	btemp+1
  2724   000000                     ttemp6	set	btemp+4
  2725   000000                     ttemp7	set	btemp+8
  2726                           
  2727                           	psect	config
  2728                           
  2729                           ; Padding undefined space
  2730   300000                     	org	3145728
  2731   300000  FF                 	db	255
  2732                           
  2733                           ;Config register CONFIG1H @ 0x300001
  2734                           ;	Oscillator Selection bits
  2735                           ;	OSC = RCIO6, External RC oscillator, port function on RA6
  2736                           ;	Fail-Safe Clock Monitor Enable bit
  2737                           ;	FCMEN = OFF, Fail-Safe Clock Monitor disabled
  2738                           ;	Internal/External Oscillator Switchover bit
  2739                           ;	IESO = OFF, Oscillator Switchover mode disabled
  2740   300001                     	org	3145729
  2741   300001  07                 	db	7
  2742                           
  2743                           ;Config register CONFIG2L @ 0x300002
  2744                           ;	Power-up Timer Enable bit
  2745                           ;	PWRT = OFF, PWRT disabled
  2746                           ;	Brown-out Reset Enable bits
  2747                           ;	BOREN = SBORDIS, Brown-out Reset enabled in hardware only (SBOREN is disabled)
  2748                           ;	Brown Out Reset Voltage bits
  2749                           ;	BORV = 3, Minimum setting
  2750   300002                     	org	3145730
  2751   300002  1F                 	db	31
  2752                           
  2753                           ;Config register CONFIG2H @ 0x300003
  2754                           ;	Watchdog Timer Enable bit
  2755                           ;	WDT = ON, WDT enabled
  2756                           ;	Watchdog Timer Postscale Select bits
  2757                           ;	WDTPS = 32768, 1:32768
  2758   300003                     	org	3145731
  2759   300003  1F                 	db	31
  2760                           
  2761                           ; Padding undefined space
  2762   300004                     	org	3145732
  2763   300004  FF                 	db	255
  2764                           
  2765                           ;Config register CONFIG3H @ 0x300005
  2766                           ;	CCP2 MUX bit
  2767                           ;	CCP2MX = PORTC, CCP2 input/output is multiplexed with RC1
  2768                           ;	PORTB A/D Enable bit
  2769                           ;	PBADEN = OFF, PORTB<4:0> pins are configured as digital I/O on Reset
  2770                           ;	Low-Power Timer1 Oscillator Enable bit
  2771                           ;	LPT1OSC = OFF, Timer1 configured for higher power operation
  2772                           ;	MCLR Pin Enable bit
  2773                           ;	MCLRE = ON, MCLR pin enabled; RE3 input pin disabled
  2774   300005                     	org	3145733
  2775   300005  81                 	db	129
  2776                           
  2777                           ;Config register CONFIG4L @ 0x300006
  2778                           ;	Stack Full/Underflow Reset Enable bit
  2779                           ;	STVREN = ON, Stack full/underflow will cause Reset
  2780                           ;	Single-Supply ICSP Enable bit
  2781                           ;	LVP = ON, Single-Supply ICSP enabled
  2782                           ;	Extended Instruction Set Enable bit
  2783                           ;	XINST = OFF, Instruction set extension and Indexed Addressing mode disabled (Legacy mo
      +                          de)
  2784                           ;	Background Debugger Enable bit
  2785                           ;	DEBUG = 0x1, unprogrammed default
  2786   300006                     	org	3145734
  2787   300006  85                 	db	133
  2788                           
  2789                           ; Padding undefined space
  2790   300007                     	org	3145735
  2791   300007  FF                 	db	255
  2792                           
  2793                           ;Config register CONFIG5L @ 0x300008
  2794                           ;	Code Protection bit
  2795                           ;	CP0 = OFF, Block 0 (000800-003FFFh) not code-protected
  2796                           ;	Code Protection bit
  2797                           ;	CP1 = OFF, Block 1 (004000-007FFFh) not code-protected
  2798                           ;	Code Protection bit
  2799                           ;	CP2 = OFF, Block 2 (008000-00BFFFh) not code-protected
  2800                           ;	Code Protection bit
  2801                           ;	CP3 = OFF, Block 3 (00C000-00FFFFh) not code-protected
  2802   300008                     	org	3145736
  2803   300008  0F                 	db	15
  2804                           
  2805                           ;Config register CONFIG5H @ 0x300009
  2806                           ;	Boot Block Code Protection bit
  2807                           ;	CPB = OFF, Boot block (000000-0007FFh) not code-protected
  2808                           ;	Data EEPROM Code Protection bit
  2809                           ;	CPD = OFF, Data EEPROM not code-protected
  2810   300009                     	org	3145737
  2811   300009  C0                 	db	192
  2812                           
  2813                           ;Config register CONFIG6L @ 0x30000A
  2814                           ;	Write Protection bit
  2815                           ;	WRT0 = OFF, Block 0 (000800-003FFFh) not write-protected
  2816                           ;	Write Protection bit
  2817                           ;	WRT1 = OFF, Block 1 (004000-007FFFh) not write-protected
  2818                           ;	Write Protection bit
  2819                           ;	WRT2 = OFF, Block 2 (008000-00BFFFh) not write-protected
  2820                           ;	Write Protection bit
  2821                           ;	WRT3 = OFF, Block 3 (00C000-00FFFFh) not write-protected
  2822   30000A                     	org	3145738
  2823   30000A  0F                 	db	15
  2824                           
  2825                           ;Config register CONFIG6H @ 0x30000B
  2826                           ;	Configuration Register Write Protection bit
  2827                           ;	WRTC = OFF, Configuration registers (300000-3000FFh) not write-protected
  2828                           ;	Boot Block Write Protection bit
  2829                           ;	WRTB = OFF, Boot Block (000000-0007FFh) not write-protected
  2830                           ;	Data EEPROM Write Protection bit
  2831                           ;	WRTD = OFF, Data EEPROM not write-protected
  2832   30000B                     	org	3145739
  2833   30000B  E0                 	db	224
  2834                           
  2835                           ;Config register CONFIG7L @ 0x30000C
  2836                           ;	Table Read Protection bit
  2837                           ;	EBTR0 = OFF, Block 0 (000800-003FFFh) not protected from table reads executed in other
      +                           blocks
  2838                           ;	Table Read Protection bit
  2839                           ;	EBTR1 = OFF, Block 1 (004000-007FFFh) not protected from table reads executed in other
      +                           blocks
  2840                           ;	Table Read Protection bit
  2841                           ;	EBTR2 = OFF, Block 2 (008000-00BFFFh) not protected from table reads executed in other
      +                           blocks
  2842                           ;	Table Read Protection bit
  2843                           ;	EBTR3 = OFF, Block 3 (00C000-00FFFFh) not protected from table reads executed in other
      +                           blocks
  2844   30000C                     	org	3145740
  2845   30000C  0F                 	db	15
  2846                           
  2847                           ;Config register CONFIG7H @ 0x30000D
  2848                           ;	Boot Block Table Read Protection bit
  2849                           ;	EBTRB = OFF, Boot Block (000000-0007FFh) not protected from table reads executed in ot
      +                          her blocks
  2850   30000D                     	org	3145741
  2851   30000D  40                 	db	64
  2852                           tosu	equ	0xFFF
  2853                           tosh	equ	0xFFE
  2854                           tosl	equ	0xFFD
  2855                           stkptr	equ	0xFFC
  2856                           pclatu	equ	0xFFB
  2857                           pclath	equ	0xFFA
  2858                           pcl	equ	0xFF9
  2859                           tblptru	equ	0xFF8
  2860                           tblptrh	equ	0xFF7
  2861                           tblptrl	equ	0xFF6
  2862                           tablat	equ	0xFF5
  2863                           prodh	equ	0xFF4
  2864                           prodl	equ	0xFF3
  2865                           indf0	equ	0xFEF
  2866                           postinc0	equ	0xFEE
  2867                           postdec0	equ	0xFED
  2868                           preinc0	equ	0xFEC
  2869                           plusw0	equ	0xFEB
  2870                           fsr0h	equ	0xFEA
  2871                           fsr0l	equ	0xFE9
  2872                           wreg	equ	0xFE8
  2873                           indf1	equ	0xFE7
  2874                           postinc1	equ	0xFE6
  2875                           postdec1	equ	0xFE5
  2876                           preinc1	equ	0xFE4
  2877                           plusw1	equ	0xFE3
  2878                           fsr1h	equ	0xFE2
  2879                           fsr1l	equ	0xFE1
  2880                           bsr	equ	0xFE0
  2881                           indf2	equ	0xFDF
  2882                           postinc2	equ	0xFDE
  2883                           postdec2	equ	0xFDD
  2884                           preinc2	equ	0xFDC
  2885                           plusw2	equ	0xFDB
  2886                           fsr2h	equ	0xFDA
  2887                           fsr2l	equ	0xFD9
  2888                           status	equ	0xFD8

Data Sizes:
    Strings     3
    Constant    16
    Data        43
    BSS         42
    Persistent  2
    Stack       0

Auto Spaces:
    Space          Size  Autos    Used
    COMRAM          126     25     112
    BANK0           128      3       3
    BANK1           256      0       0
    BANK2           256      0       0
    BANK3           256      0       0
    BANK4           256      0       0
    BANK5           256      0       0
    BANK6           256      0       0
    BANK7           256      0       0
    BANK8           256      0       0
    BANK9           256      0       0
    BANK10          256      0       0
    BANK11          256      0       0
    BANK12          256      0       0
    BANK13          256      0       0
    BANK14          256      0       0
    BANK15          128      0       0

Pointer List with Targets:

    ADC_Get_Conversion_Result@adc$ADC_Interrupt_Handler	PTR FTN()void  size(2) Largest target is 0

    ADC_Init@adc$ADC_Interrupt_Handler	PTR FTN()void  size(2) Largest target is 0

    _ADC_Interrupt_Handler	PTR FTN()void  size(2) Largest target is 1
		 -> NULL(), 

    adc_select_result_format@adc$ADC_Interrupt_Handler	PTR FTN()void  size(2) Largest target is 0

    adc_select_voltage_ref@adc$ADC_Interrupt_Handler	PTR FTN()void  size(2) Largest target is 0

    f$.$buffer	PTR unsigned char  size(2) Largest target is 0

    f$.$source	PTR const unsigned char  size(2) Largest target is 0

    gpio_pin_direction_intialize@_pin_config	PTR const struct . size(1) Largest target is 1
		 -> led_intialize@pin_obj(BANK0[1]), Relay_initialize@pin_obj(COMRAM[1]), 

    gpio_pin_initialize@_pin_config	PTR const struct . size(1) Largest target is 1
		 -> led_intialize@pin_obj(BANK0[1]), Relay_initialize@pin_obj(COMRAM[1]), 

    gpio_pin_toggle_logic@_pin_config	PTR const struct . size(1) Largest target is 1
		 -> led_toggle_status@pin_obj(COMRAM[1]), 

    gpio_pin_write_logic@_pin_config	PTR const struct . size(1) Largest target is 1
		 -> led_intialize@pin_obj(BANK0[1]), led_turn_off@pin_obj(COMRAM[1]), led_turn_on@pin_obj(COMRAM[1]), Relay_initialize@pin_obj(COMRAM[1]), 
		 -> Relay_off@pin_obj(COMRAM[1]), Relay_on@pin_obj(COMRAM[1]), 

    INT0_Interrupt_Handler	PTR FTN()void  size(2) Largest target is 1
		 -> NULL(), 

    INT1_Interrupt_Handler	PTR FTN()void  size(2) Largest target is 1
		 -> NULL(), 

    INT2_Interrupt_Handler	PTR FTN()void  size(2) Largest target is 1
		 -> NULL(), 

    Interrupt_INTx_Clear_Flag@obj$External_CallBack	PTR FTN()void  size(2) Largest target is 0

    Interrupt_INTx_Disable@obj$External_CallBack	PTR FTN()void  size(2) Largest target is 0

    Interrupt_INTx_Edge_Init@obj$External_CallBack	PTR FTN()void  size(2) Largest target is 0

    Interrupt_INTx_Enable@obj$External_CallBack	PTR FTN()void  size(2) Largest target is 0

    Interrupt_INTx_Pin_Init@obj$External_CallBack	PTR FTN()void  size(2) Largest target is 0

    Interrupt_RBx_Init@obj$External_CallBack_High	PTR FTN()void  size(2) Largest target is 0

    Interrupt_RBx_Init@obj$External_CallBack_Low	PTR FTN()void  size(2) Largest target is 0

    Interrupt_Set_Interrupt_Handler@obj$External_CallBack	PTR FTN()void  size(2) Largest target is 0

    lat_registers	PTR volatile unsigned char [5] size(2) Largest target is 1
		 -> LATA(BITBIGSFRlllll[1]), LATB(BITBIGSFRllllh[1]), LATC(BITBIGSFRllllh[1]), LATD(BITBIGSFRllllh[1]), 
		 -> LATE(BITBIGSFRllllh[1]), 

    led_intialize@Led	PTR const struct . size(1) Largest target is 1
		 -> led(COMRAM[1]), 

    led_toggle_status@Led	PTR const struct . size(1) Largest target is 1
		 -> led(COMRAM[1]), 

    port_registers	PTR volatile unsigned char [5] size(2) Largest target is 1
		 -> PORTA(BITBIGSFRlllll[1]), PORTB(BITBIGSFRlllll[1]), PORTC(BITBIGSFRlllll[1]), PORTD(BITBIGSFRlllll[1]), 
		 -> PORTE(BITBIGSFRlllll[1]), 

    RB4_Interrupt_Handler_High	PTR FTN()void  size(2) Largest target is 1
		 -> NULL(), 

    RB4_Interrupt_Handler_Low	PTR FTN()void  size(2) Largest target is 1
		 -> NULL(), 

    RB5_Interrupt_Handler_High	PTR FTN()void  size(2) Largest target is 1
		 -> NULL(), 

    RB5_Interrupt_Handler_Low	PTR FTN()void  size(2) Largest target is 1
		 -> NULL(), 

    RB6_Interrupt_Handler_High	PTR FTN()void  size(2) Largest target is 1
		 -> NULL(), 

    RB6_Interrupt_Handler_Low	PTR FTN()void  size(2) Largest target is 1
		 -> NULL(), 

    RB7_Interrupt_Handler_High	PTR FTN()void  size(2) Largest target is 1
		 -> NULL(), 

    RB7_Interrupt_Handler_Low	PTR FTN()void  size(2) Largest target is 1
		 -> NULL(), 

    S1278$External_CallBack	PTR FTN()void  size(2) Largest target is 0

    S1311$External_CallBack_High	PTR FTN()void  size(2) Largest target is 0

    S1311$External_CallBack_Low	PTR FTN()void  size(2) Largest target is 0

    S1819$Timer0_Interrupt_Handler	PTR FTN()void  size(2) Largest target is 0

    S1989$Timer1_Interrupt_Handler	PTR FTN()void  size(2) Largest target is 1
		 -> Isr(), 

    S2196$Timer2_Interrupt_Handler	PTR FTN()void  size(2) Largest target is 0

    S2835$buffer	PTR unsigned char  size(2) Largest target is 0

    S2835$source	PTR const unsigned char  size(2) Largest target is 0

    S663$ADC_Interrupt_Handler	PTR FTN()void  size(2) Largest target is 0

    sp__memset	PTR void  size(2) Largest target is 0

    Timer0_Init@timer$Timer0_Interrupt_Handler	PTR FTN()void  size(2) Largest target is 0

    Timer0_Interrupt_Handler	PTR FTN()void  size(2) Largest target is 1
		 -> NULL(), 

    Timer0_Mode_Config@timer$Timer0_Interrupt_Handler	PTR FTN()void  size(2) Largest target is 0

    Timer0_Prescaler_Config@timer$Timer0_Interrupt_Handler	PTR FTN()void  size(2) Largest target is 0

    Timer0_Reg_Size_Config@timer$Timer0_Interrupt_Handler	PTR FTN()void  size(2) Largest target is 0

    timer1$Timer1_Interrupt_Handler	PTR FTN()void  size(2) Largest target is 1
		 -> Isr(), 

    Timer1_Init@timer	PTR const struct . size(1) Largest target is 7
		 -> timer1(COMRAM[7]), 

    Timer1_Init@timer$Timer1_Interrupt_Handler	PTR FTN()void  size(2) Largest target is 1
		 -> Isr(), 

    Timer1_Interrupt_Handler	PTR FTN()void  size(2) Largest target is 1
		 -> Isr(), NULL(), 

    Timer1_Mode_Config@timer	PTR const struct . size(1) Largest target is 7
		 -> timer1(COMRAM[7]), 

    Timer1_Mode_Config@timer$Timer1_Interrupt_Handler	PTR FTN()void  size(2) Largest target is 1
		 -> Isr(), 

    Timer2_Init@timer$Timer2_Interrupt_Handler	PTR FTN()void  size(2) Largest target is 0

    Timer2_Interrupt_Handler	PTR FTN()void  size(2) Largest target is 1
		 -> NULL(), 

    tris_registers	PTR volatile unsigned char [5] size(2) Largest target is 1
		 -> TRISA(BITBIGSFRlllll[1]), TRISB(ABS[1]), TRISC(ABS[1]), TRISD(ABS[1]), 
		 -> TRISE(ABS[1]), 

    vfprintf$0	PTR struct _IO_FILE size(1) Largest target is 12
		 -> sprintf@f(COMRAM[12]), 

    vfprintf$1	PTR const unsigned char  size(1) Largest target is 3
		 -> STR_1(CODE[3]), STR_2(CODE[3]), STR_3(CODE[3]), 

    vfprintf$2	PTR PTR void  size(1) Largest target is 1
		 -> sprintf@ap(COMRAM[1]), 


Critical Paths under _main in COMRAM

    _led_intialize->_gpio_pin_initialize
    _gpio_pin_initialize->_gpio_pin_write_logic
    _Timer1_Init->_Timer1_Mode_Config

Critical Paths under _Interrupt_Manager_High in COMRAM

    _Isr->_led_toggle_status
    _led_toggle_status->_gpio_pin_toggle_logic

Critical Paths under _main in BANK0

    _Application_initialize->_led_intialize

Critical Paths under _Interrupt_Manager_High in BANK0

    None.

Critical Paths under _main in BANK1

    None.

Critical Paths under _Interrupt_Manager_High in BANK1

    None.

Critical Paths under _main in BANK2

    None.

Critical Paths under _Interrupt_Manager_High in BANK2

    None.

Critical Paths under _main in BANK3

    None.

Critical Paths under _Interrupt_Manager_High in BANK3

    None.

Critical Paths under _main in BANK4

    None.

Critical Paths under _Interrupt_Manager_High in BANK4

    None.

Critical Paths under _main in BANK5

    None.

Critical Paths under _Interrupt_Manager_High in BANK5

    None.

Critical Paths under _main in BANK6

    None.

Critical Paths under _Interrupt_Manager_High in BANK6

    None.

Critical Paths under _main in BANK7

    None.

Critical Paths under _Interrupt_Manager_High in BANK7

    None.

Critical Paths under _main in BANK8

    None.

Critical Paths under _Interrupt_Manager_High in BANK8

    None.

Critical Paths under _main in BANK9

    None.

Critical Paths under _Interrupt_Manager_High in BANK9

    None.

Critical Paths under _main in BANK10

    None.

Critical Paths under _Interrupt_Manager_High in BANK10

    None.

Critical Paths under _main in BANK11

    None.

Critical Paths under _Interrupt_Manager_High in BANK11

    None.

Critical Paths under _main in BANK12

    None.

Critical Paths under _Interrupt_Manager_High in BANK12

    None.

Critical Paths under _main in BANK13

    None.

Critical Paths under _Interrupt_Manager_High in BANK13

    None.

Critical Paths under _main in BANK14

    None.

Critical Paths under _Interrupt_Manager_High in BANK14

    None.

Critical Paths under _main in BANK15

    None.

Critical Paths under _Interrupt_Manager_High in BANK15

    None.

Call Graph Tables:

 ---------------------------------------------------------------------------------
 (Depth) Function   	        Calls       Base Space   Used Autos Params    Refs
 ---------------------------------------------------------------------------------
 (0) _main                                                 0     0      0    8801
             _Application_initialize
 ---------------------------------------------------------------------------------
 (1) _Application_initialize                               0     0      0    8801
                        _Timer1_Init
               _ecu_layer_initialize
                      _led_intialize
 ---------------------------------------------------------------------------------
 (2) _led_intialize                                        4     3      1    8398
                                              0 BANK0      3     2      1
                _gpio_pin_initialize
 ---------------------------------------------------------------------------------
 (3) _gpio_pin_initialize                                  3     2      1    8086
                                             22 COMRAM     3     2      1
       _gpio_pin_direction_intialize
               _gpio_pin_write_logic
 ---------------------------------------------------------------------------------
 (4) _gpio_pin_write_logic                                 8     6      2    5837
                                             14 COMRAM     8     6      2
 ---------------------------------------------------------------------------------
 (4) _gpio_pin_direction_intialize                         7     6      1     437
                                             14 COMRAM     7     6      1
 ---------------------------------------------------------------------------------
 (2) _ecu_layer_initialize                                 1     1      0       0
 ---------------------------------------------------------------------------------
 (2) _Timer1_Init                                          4     3      1     403
                                             15 COMRAM     3     2      1
                 _Timer1_Mode_Config
 ---------------------------------------------------------------------------------
 (3) _Timer1_Mode_Config                                   1     0      1     164
                                             14 COMRAM     1     0      1
 ---------------------------------------------------------------------------------
 Estimated maximum stack depth 4
 ---------------------------------------------------------------------------------
 (Depth) Function   	        Calls       Base Space   Used Autos Params    Refs
 ---------------------------------------------------------------------------------
 (5) _Interrupt_Manager_High                               6     6      0     494
                                              8 COMRAM     6     6      0
                            _ADC_ISR
                           _INT0_ISR
                           _INT1_ISR
                           _INT2_ISR
                            _RB4_ISR
                            _RB5_ISR
                            _RB6_ISR
                            _RB7_ISR
                         _TIMER0_ISR
                         _TIMER1_ISR
                         _TIMER2_ISR
 ---------------------------------------------------------------------------------
 (6) _TIMER2_ISR                                           0     0      0       0
 ---------------------------------------------------------------------------------
 (6) _TIMER1_ISR                                           0     0      0     374
                                NULL *
                                _Isr *
 ---------------------------------------------------------------------------------
 (7) _Isr                                                  0     0      0     374
                  _led_toggle_status
 ---------------------------------------------------------------------------------
 (8) _led_toggle_status                                    4     3      1     374
                                              5 COMRAM     3     2      1
              _gpio_pin_toggle_logic
 ---------------------------------------------------------------------------------
 (9) _gpio_pin_toggle_logic                                6     5      1     172
                                              0 COMRAM     5     4      1
 ---------------------------------------------------------------------------------
 (7) NULL(Fake)                                            0     0      0       0
 ---------------------------------------------------------------------------------
 (6) _TIMER0_ISR                                           0     0      0       0
 ---------------------------------------------------------------------------------
 (6) _RB7_ISR                                              1     1      0      30
                                              0 COMRAM     1     1      0
 ---------------------------------------------------------------------------------
 (6) _RB6_ISR                                              1     1      0      30
                                              0 COMRAM     1     1      0
 ---------------------------------------------------------------------------------
 (6) _RB5_ISR                                              1     1      0      30
                                              0 COMRAM     1     1      0
 ---------------------------------------------------------------------------------
 (6) _RB4_ISR                                              1     1      0      30
                                              0 COMRAM     1     1      0
 ---------------------------------------------------------------------------------
 (6) _INT2_ISR                                             0     0      0       0
 ---------------------------------------------------------------------------------
 (6) _INT1_ISR                                             0     0      0       0
 ---------------------------------------------------------------------------------
 (6) _INT0_ISR                                             0     0      0       0
 ---------------------------------------------------------------------------------
 (6) _ADC_ISR                                              0     0      0       0
 ---------------------------------------------------------------------------------
 Estimated maximum stack depth 9
 ---------------------------------------------------------------------------------

 Call Graph Graphs:

 _main (ROOT)
   _Application_initialize
     _Timer1_Init
       _Timer1_Mode_Config
     _ecu_layer_initialize
     _led_intialize
       _gpio_pin_initialize
         _gpio_pin_direction_intialize
         _gpio_pin_write_logic

 _Interrupt_Manager_High (ROOT)
   _ADC_ISR
   _INT0_ISR
   _INT1_ISR
   _INT2_ISR
   _RB4_ISR
   _RB5_ISR
   _RB6_ISR
   _RB7_ISR
   _TIMER0_ISR
   _TIMER1_ISR
     NULL(Fake) *
     _Isr *
       _led_toggle_status
         _gpio_pin_toggle_logic
   _TIMER2_ISR

 Address spaces:
Name               Size   Autos  Total    Cost      Usage
BIGRAM             F7F      0       0      47        0.0%
EEDATA             400      0       0       0        0.0%
BITBANK14          100      0       0      33        0.0%
BANK14             100      0       0      34        0.0%
BITBANK13          100      0       0      31        0.0%
BANK13             100      0       0      32        0.0%
BITBANK12          100      0       0      29        0.0%
BANK12             100      0       0      30        0.0%
BITBANK11          100      0       0      27        0.0%
BANK11             100      0       0      28        0.0%
BITBANK10          100      0       0      25        0.0%
BANK10             100      0       0      26        0.0%
BITBANK9           100      0       0      23        0.0%
BANK9              100      0       0      24        0.0%
BITBANK8           100      0       0      21        0.0%
BANK8              100      0       0      22        0.0%
BITBANK7           100      0       0      18        0.0%
BANK7              100      0       0      19        0.0%
BITBANK6           100      0       0      16        0.0%
BANK6              100      0       0      17        0.0%
BITBANK5           100      0       0      14        0.0%
BANK5              100      0       0      15        0.0%
BITBANK4           100      0       0      12        0.0%
BANK4              100      0       0      13        0.0%
BITBANK3           100      0       0      10        0.0%
BANK3              100      0       0      11        0.0%
BITBANK2           100      0       0       8        0.0%
BANK2              100      0       0       9        0.0%
BITBANK1           100      0       0       6        0.0%
BANK1              100      0       0       7        0.0%
BITBANK15           80      0       0      35        0.0%
BANK15              80      0       0      36        0.0%
BITBANK0            80      0       0       4        0.0%
BANK0               80      3       3       5        2.3%
BITCOMRAM           7E      0       0       0        0.0%
COMRAM              7E     19      70       1       88.9%
BITBIGSFRhlhlhh     18      0       0      38        0.0%
BITBIGSFRllhh       15      0       0      42        0.0%
BITBIGSFRhh          D      0       0      37        0.0%
BITBIGSFRllhll       7      0       0      43        0.0%
BITBIGSFRlllhh       6      0       0      44        0.0%
BITBIGSFRhlhllh      5      0       0      39        0.0%
BITBIGSFRhlhlll      5      0       0      41        0.0%
BITBIGSFRllllh       4      0       0      45        0.0%
BITBIGSFRlllll       4      0       0      46        0.0%
BITBIGSFRhlhlll      1      0       0      40        0.0%
BIGSFR               0      0       0     200        0.0%
BITSFR               0      0       0     200        0.0%
SFR                  0      0       0     200        0.0%
STACK                0      0       0       2        0.0%
NULL                 0      0       0       0        0.0%
ABS                  0      0      73      20        0.0%
DATA                 0      0      73       3        0.0%
CODE                 0      0       0       0        0.0%


Microchip Technology PIC18 Macro Assembler V2.45 build 20230818022343 
Symbol Table                                                                                   Sun Mar 10 19:18:44 2024

                          _led_intialize 1640                  ?_Interrupt_Manager_High 0056  
                                    l320 18C8                                      l251 1656  
                                    l255 16AC                                      l517 13AC  
                                    l536 14BC                                      l557 1774  
                                    l922 14E4                                      l924 154A  
                                    l948 163E                                      _Isr 18A6  
                                    _led 002B                          __end_of_ADC_ISR 18C8  
                                    _ret 001F                                      _val 002C  
                                    _pre 004E                                      tosl 0FFD  
                                    wreg 0FE8                          __end_of_RB4_ISR 1876  
                        __end_of_RB5_ISR 185C                          __end_of_RB6_ISR 1842  
                        __end_of_RB7_ISR 1828                                     ?_Isr 0056  
                                   l1024 188C                                     l1018 1892  
                                   l1019 1892                                     l4401 13AE  
                                   l3531 15E8                                     l1907 18C8  
                                   l4403 13C2                                     l3541 163C  
                                   l3533 1600                                     l4405 13E2  
                                   l3535 1606                                     l3527 15CE  
                                   l4431 12C4                                     l4407 13EA  
                                   l4415 1490                                     l3537 161E  
                                   l3529 15E6                                     l3641 14D0  
                                   l4433 131A                                     l4425 1288  
                                   l4409 143A                                     l4417 14BA  
                                   l5153 188E                                     l3539 1624  
                                   l3651 1508                                     l3643 14D0  
                                   l4427 129C                                     l4451 174C  
                                   l3661 1544                                     l3653 1524  
                                   l3645 14E0                                     l4437 136A  
                                   l4429 12BC                                     l4453 1754  
                                   l4541 1640                                     l3663 1546  
                                   l3655 1532                                     l3647 14E6  
                                   l3639 14BE                                     l4439 13AA  
                                   l4455 1772                                     l4447 1718  
                                   l4551 16A4                                     l4543 1652  
                                   l3665 1548                                     l3657 1534  
                                   l3649 14EE                                     l4449 172C  
                                   l4545 165A                                     l3667 154A  
                                   l3659 1536                                     l5195 14A4  
                                   l4547 1690                                     l4651 187A  
                                   l5197 1394                                     l4549 1692  
                                   l4653 1882                                     l4649 1876  
                                   STR_1 1011                                     _LATA 0F89  
                                   _LATB 0F8A                                     _LATC 0F8B  
                                   u2160 15E6                                     _LATD 0F8C  
                                   u2161 15E2                                     _LATE 0F8D  
                                   u2170 1600                                     u2171 15FC  
                                   u2180 161E                                     u3220 1380  
                                   u3204 12E2                                     u3140 13C2  
                                   u2181 161A                                     u3221 137A  
                                   u3205 12DE                                     u3141 13BE  
                                   u2190 163C                                     u3230 1382  
                                   u3214 1338                                     u3150 13E2  
                                   u2191 1638                                     u3215 1334  
                                   u3151 13DE                                     u2280 14E0  
                                   u3240 172C                                     u3320 1652  
                                   u2281 14DC                                     u3241 1728  
                                   u3321 164E                                     u3250 174C  
                                   u3251 1748                                     u3180 129C  
                                   u3164 1408                                     u3181 1298  
                                   u3165 1404                                     u3190 12BC  
                                   u3174 1458                                     u3191 12B8  
                                   u3175 1454                                     u3335 16A0  
                                   u3337 16A4                                     _TMR2 0FCC  
                                   _main 188E                                     fsr2h 0FDA  
                                   indf2 0FDF                                     fsr1l 0FE1  
                                   fsr2l 0FD9                                     btemp 0071  
                                   prodh 0FF4                                     prodl 0FF3  
                                   start 000E                           ?_led_intialize 0080  
         __end_of_Interrupt_Manager_High 1288                             ___param_bank 0000  
                 ?_gpio_pin_toggle_logic 0056                                    ??_Isr 005E  
                   _gpio_pin_write_logic 13AE                              ?_TIMER0_ISR 0056  
                            ?_TIMER1_ISR 0056                              ?_TIMER2_ISR 0056  
                       __end_of_INT0_ISR 18C4                         __end_of_INT1_ISR 18C0  
                       __end_of_INT2_ISR 18BC            _pre_work_out@hal_timer1$F2119 006F  
                          Relay_on@F3485 0050                                    ?_main 0056  
                                  _EEADR 0FA9                                    _RB4_f 0023  
                                  i2l272 16C2                                    _RB5_f 0022  
                                  i2l444 18C6                                    i2l276 1716  
                                  _RB6_f 0021                                    i2l550 15CC  
                                  _RB7_f 0020                                    i2l742 18BE  
                                  i2l738 18C2                                    i2l746 18BA  
                                  i2l754 1874                                    i2l762 185A  
                                  i2l770 1840                                    i2l839 126C  
                                  i2l952 17E0                                    i2l881 18A4  
                                  i2l778 1826                                    i2l992 18B6  
                                  _TMR0H 0FD7                                    _TMR1H 0FCF  
                                  _TMR0L 0FD6                                    _TMR1L 0FCE  
                                  _PORTA 0F80                                    _PORTB 0F81  
                                  _PORTC 0F82                                    _PORTD 0F83  
                                  _PORTE 0F84                                    _TRISA 0F92  
                                  _TRISB 0F93                                    _TRISC 0F94  
                                  _TRISD 0F95                                    _TRISE 0F96  
                                  pclath 0FFA                                    pclatu 0FFB  
                                  tablat 0FF5                                    ttemp5 0072  
                                  ttemp6 0075                                    ttemp7 0079  
                                  status 0FD8                                    wtemp8 0072  
                        __initialization 1776                             __end_of_main 189A  
                  ?_gpio_pin_write_logic 0064                                ??_ADC_ISR 0056  
                          _lat_registers 000B                                   ??_main 006F  
                          __activetblptr 0003                         led_turn_on@F3487 0054  
                              ??_RB4_ISR 0056                                ??_RB5_ISR 0056  
                              ??_RB6_ISR 0056                                ??_RB7_ISR 0056  
                                 _ADRESH 0FC4                                   _EEADRH 0FAA  
                                 _ADRESL 0FC3                                   _EEDATA 0FA8  
                                 _EECON2 0FA7                 _Timer2_Interrupt_Handler 002E  
                                 i2l1011 18AE                                   i2l2101 18C4  
                                 i2l2211 18B0                                   i2l2141 18C0  
                                 i2l2145 18BC                                   i2l2153 185E  
                                 i2l2155 1860                                   i2l2163 1844  
                                 i2l2149 18B8                                   i2l2165 1846  
                                 i2l2173 182A                                   i2l2159 1874  
                                 i2l2175 182C                                   i2l2183 1810  
                                 i2l2169 185A                                   i2l2185 1812  
                                 i2l2193 189A                                   i2l2179 1840  
                                 i2l2195 189C                                   i2l2189 1826  
                                 i2l2197 18A0                                   i2l4301 109E  
                                 i2l4311 10D0                                   i2l4303 10AC  
                                 i2l3521 16FE                                   i2l3513 16AE  
                                 i2l4321 110C                                   i2l4313 10DE  
                                 i2l4305 10B0                                   i2l3523 170E  
                                 i2l3515 16BE                                   i2l4331 114A  
                                 i2l4323 1110                                   i2l4315 10EC  
                                 i2l4307 10BE                                   i2l3517 16C6  
                                 i2l4341 1176                                   i2l4333 114E  
                                 i2l4325 111E                                   i2l4317 10F0  
                                 i2l4309 10CC                                   i2l3471 155C  
                                 i2l3519 16FC                                   i2l4351 11A4  
                                 i2l4343 117C                                   i2l4335 1154  
                                 i2l4327 112C                                   i2l4319 10FE  
                                 i2l3473 157C                                   i2l4361 11DA  
                                 i2l4353 11B2                                   i2l4345 118A  
                                 i2l4337 1162                                   i2l4329 113A  
                                 i2l4281 1030                                   i2l3475 1580  
                                 i2l4371 1212                                   i2l4363 11EA  
                                 i2l4355 11C2                                   i2l4347 119A  
                                 i2l4339 1172                                   i2l4291 106C  
                                 i2l4283 103E                                   i2l3469 154C  
                                 i2l4381 123E                                   i2l4373 1216  
                                 i2l4365 11EE                                   i2l4357 11C6  
                                 i2l4349 119E                                   i2l4293 1070  
                                 i2l4285 104C                                   i2l3671 18A6  
                                 i2l4383 1244                                   i2l4375 121C  
                                 i2l4367 11F4                                   i2l4359 11CC  
                                 i2l4295 107E                                   i2l4287 1050  
                                 i2l4385 1252                                   i2l4377 122A  
                                 i2l4369 1202                                   i2l4297 108C  
                                 i2l4289 105E                                   i2l3771 17B2  
                                 i2l4387 1262                                   i2l4379 123A  
                                 i2l4299 1090                                   i2l3773 17B6  
                                 i2l4389 1266                                   i2l3775 17C8  
                                 i2l3767 17AC                                   i2l3769 17AE  
       gpio_pin_toggle_logic@_pin_config 0056                          ??_led_intialize 0081  
                          ??_Timer1_Init 0066                           Relay_off@F3490 004F  
                ?_Application_initialize 0056                         led_intialize@Led 0080  
                                 clear_0 179C                                   _timer1 0024  
                                 fp__Isr 0000                                   isa$std 0001  
gpio_pin_direction_intialize@_pin_config 0064                             __pdataCOMRAM 0001  
                           __mediumconst 0000                                   tblptrh 0FF7  
                                 tblptrl 0FF6                                   tblptru 0FF8  
                             __accesstop 0080                  __end_of__initialization 17A2  
                              ?_INT0_ISR 0056                                ?_INT1_ISR 0056  
                              ?_INT2_ISR 0056                            ___rparam_used 0001  
                 ??_gpio_pin_write_logic 0066                           __pcstackCOMRAM 0056  
         __end_of_Application_initialize 188E                            RB4_ISR@source 0056  
                    __end_of_Timer1_Init 154C               _RB6_Interrupt_Handler_High 003C  
                          RB5_ISR@source 0056                _RB5_Interrupt_Handler_Low 003E  
                             ??_INT0_ISR 0056                               ??_INT1_ISR 0056  
                             ??_INT2_ISR 0056                               __pnvCOMRAM 006F  
                 _INT2_Interrupt_Handler 0046                  ??_gpio_pin_toggle_logic 0057  
                          RB6_ISR@source 0056                        led_turn_off@F3492 0053  
                           ??_TIMER0_ISR 0056                             ??_TIMER1_ISR 005E  
                           ??_TIMER2_ISR 0056                                  _ADC_ISR 18C4  
                                _RB4_ISR 185C                                  _RB5_ISR 1842  
                                _RB6_ISR 1828                                  _RB7_ISR 180E  
                                i2u54_40 1870                                  i2u54_41 186C  
                                i2u55_40 1856                                  i2u55_41 1852  
                                i2u56_40 183C                                  i2u56_41 1838  
                                i2u57_40 1822                                  i2u57_41 181E  
                          RB7_ISR@source 0056                               _btn_values 1001  
                         _tris_registers 0015                       __end_of_TIMER0_ISR 18A6  
                     __end_of_TIMER1_ISR 17E2                       __end_of_TIMER2_ISR 18B8  
                                __Hparam 0000                              _Timer1_Init 14BE  
                                __Lparam 0000                     led_intialize@pin_obj 0082  
                    _gpio_pin_initialize 1718                             __psmallconst 1000  
                                __pcinit 1776                                  __ramtop 1000  
                                __ptext0 188E                                  __ptext1 1876  
                                __ptext2 1640                                  __ptext3 1718  
                                __ptext4 13AE                                  __ptext5 1288  
                                __ptext6 18C8                                  __ptext7 14BE  
                                __ptext8 15CE                                _T0CONbits 0FD5  
                              _T1CONbits 0FCD                                _T2CONbits 0FCA  
                   ?_gpio_pin_initialize 006C                           __pintcode_body 1016  
                   end_of_initialization 17A2                                  int_func 1016  
                                postdec1 0FE5                                  postdec2 0FDD  
                                postinc0 0FEE                                  postinc2 0FDE  
                              _PORTBbits 0F81                     led_toggle_status@Led 005B  
   __end_of_gpio_pin_direction_intialize 13AE             _gpio_pin_direction_intialize 1288  
                  ??_gpio_pin_initialize 006D                 _Timer0_Interrupt_Handler 0034  
               ??_Interrupt_Manager_High 005E                    __end_of_led_intialize 16AE  
                          __pidataCOMRAM 17E2                      start_initialization 1776  
                            __end_of_Isr 18B0            ?_gpio_pin_direction_intialize 0064  
                       Timer1_Init@timer 0065               __end_of_Timer1_Mode_Config 1640  
          __end_of_gpio_pin_toggle_logic 15CE                                 ?_ADC_ISR 0056  
             _RB5_Interrupt_Handler_High 0040             __end_of_ecu_layer_initialize 18CA  
                      _led_toggle_status 16AE                                 ?_RB4_ISR 0056  
                               ?_RB5_ISR 0056                                 ?_RB6_ISR 0056  
                               ?_RB7_ISR 0056                       ?_led_toggle_status 005B  
                            __pbssCOMRAM 002C                            __pcstackBANK0 0080  
              _RB6_Interrupt_Handler_Low 003A                      ??_led_toggle_status 005C  
                 _INT0_Interrupt_Handler 004A          gpio_pin_direction_intialize@ret 006A  
                           ?_Timer1_Init 0065                    Relay_initialize@F3480 0051  
                 __ADC_Interrupt_Handler 004C                                __pintcode 0008  
        gpio_pin_write_logic@_pin_config 0064                __end_of_led_toggle_status 1718  
                            __smallconst 1000           ??_gpio_pin_direction_intialize 0065  
                               _INT0_ISR 18C0                                 _INT1_ISR 18BC  
                               _INT2_ISR 18B8                 ??_Application_initialize 006F  
                               _PIE1bits 0F9D                                 i2u203_40 155C  
                               i2u203_41 1558                                 i2u204_40 157C  
                               i2u300_40 1162                                 i2u204_41 1578  
                               i2u300_41 115E                                 i2u301_40 1172  
                               i2u301_41 116E                                 i2u205_44 159E  
                               i2u205_45 159A                                 i2u214_40 16BE  
                               i2u310_40 122A                                 i2u302_40 118A  
                               i2u214_41 16BA                                 i2u310_41 1226  
                               i2u302_41 1186                                 i2u311_40 123A  
                               i2u303_40 119A                                 i2u311_41 1236  
                               i2u303_41 1196                                 i2u215_45 170C  
                               i2u215_47 170E                                 i2u312_40 1252  
                               i2u304_40 11B2                                 i2u312_41 124E  
                               i2u304_41 11AE                                 i2u240_48 17CE  
                               i2u313_40 1262                                 i2u305_40 11C2  
                               i2u240_49 17E0                                 i2u313_41 125E  
                               i2u305_41 11BE                                 i2u306_40 11DA  
                               i2u306_41 11D6                                 i2u307_40 11EA  
                               i2u307_41 11E6                                 i2u308_40 1202  
                               i2u308_41 11FE                                 i2u309_40 1212  
                               i2u309_41 120E                                 i2u239_40 17C8  
                               i2u239_41 17C4                                 _PIR1bits 0F9E  
                               i2u290_40 10BE                                 i2u282_40 103E  
                               i2u290_41 10BA                                 i2u282_41 103A  
                               i2u291_40 10CC                                 i2u283_40 104C  
                               i2u291_41 10C8                                 i2u283_41 1048  
                               i2u292_40 10DE                                 i2u284_40 105E  
                               i2u292_41 10DA                                 i2u284_41 105A  
                               i2u293_40 10EC                                 i2u285_40 106C  
                               i2u293_41 10E8                                 i2u285_41 1068  
                               i2u294_40 10FE                                 i2u286_40 107E  
                               i2u294_41 10FA                                 i2u286_41 107A  
                               i2u295_40 110C                                 i2u287_40 108C  
                               i2u295_41 1108                                 i2u287_41 1088  
                               i2u296_40 111E                                 i2u288_40 109E  
                               i2u296_41 111A                                 i2u288_41 109A  
                               i2u297_40 112C                                 i2u289_40 10AC  
                               i2u297_41 1128                                 i2u289_41 10A8  
                               i2u298_40 113A                                 i2u298_41 1136  
                               i2u299_40 114A                                 i2u299_41 1146  
                 _Interrupt_Manager_High 0008                               _ADCON0bits 0FC2  
                             _ADCON1bits 0FC1                               _ADCON2bits 0FC0  
                 gpio_pin_initialize@ret 006E                  gpio_pin_write_logic@ret 006B  
                            _INTCON2bits 0FF1                              _INTCON3bits 0FF0  
                              copy_data0 178A                     _ecu_layer_initialize 18C8  
                             _EECON1bits 0FA6                                 __Hrparam 0000  
                               __Lrparam 0000                 led_toggle_status@pin_obj 005D  
            __end_of_gpio_pin_initialize 1776                       __end_of_btn_values 1011  
         gpio_pin_initialize@_pin_config 006C                       led_intialize@F3482 0055  
                               __ptext10 18B0                                 __ptext11 17AC  
                               __ptext20 18B8                                 __ptext12 18A6  
                               __ptext21 18BC                                 __ptext13 16AE  
                               __ptext22 18C0                                 __ptext14 154C  
                               __ptext23 18C4                                 __ptext15 189A  
                               __ptext24 0000                                 __ptext16 180E  
                               __ptext17 1828                                 __ptext18 1842  
                               __ptext19 185C                 _Timer1_Interrupt_Handler 0030  
                  ?_ecu_layer_initialize 0056                                 isa$xinst 0000  
                               int$flags 0071                       _Timer1_Mode_Config 15CE  
                             _INTCONbits 0FF2                             _pre_work_out 0032  
                    ?_Timer1_Mode_Config 0064             __end_of_gpio_pin_write_logic 14BE  
                               intlevel2 0000                     ??_Timer1_Mode_Config 0065  
                Timer1_Mode_Config@timer 0064                   led_toggle_status@F3497 0052  
                  _gpio_pin_toggle_logic 154C                               _TIMER0_ISR 189A  
                             _TIMER1_ISR 17AC                               _TIMER2_ISR 18B0  
             _RB4_Interrupt_Handler_High 0044                   _Application_initialize 1876  
             gpio_pin_write_logic@logic_ 0065               _RB7_Interrupt_Handler_High 0038  
                         _port_registers 0001                _RB4_Interrupt_Handler_Low 0042  
              _RB7_Interrupt_Handler_Low 0036                   ??_ecu_layer_initialize 0064  
                 _INT1_Interrupt_Handler 0048  
